---
triple:          'arm64-apple-darwin'
binary-path:     '/Users/kendallboesch/Desktop/CS3341-FoundationsOfModernComputing/Lab-3/lab-3-flowscript-interpreter-kendallboesch/.vscode/tasks'
relocations:
  - { offsetInCU: 0xEB4, offset: 0xEB4, size: 0x8, addend: 0x0, symName: __ZN8nlohmann16json_abi_v3_11_26detail6concatINSt3__112basic_stringIcNS3_11char_traitsIcEENS3_9allocatorIcEEEEJRA51_KcPSA_EEET_DpOT0_, symObjAddr: 0x5D64, symBinAddr: 0x100007B6C, symSize: 0xCC }
  - { offsetInCU: 0xF8C, offset: 0xF8C, size: 0x8, addend: 0x0, symName: __ZN8nlohmann16json_abi_v3_11_26detail6concatINSt3__112basic_stringIcNS3_11char_traitsIcEENS3_9allocatorIcEEEEJS9_S9_RKS9_EEET_DpOT0_, symObjAddr: 0x9214, symBinAddr: 0x10000B01C, symSize: 0xD8 }
  - { offsetInCU: 0x1006, offset: 0x1006, size: 0x8, addend: 0x0, symName: __ZN8nlohmann16json_abi_v3_11_26detail13concat_lengthINSt3__112basic_stringIcNS3_11char_traitsIcEENS3_9allocatorIcEEEEJS9_S9_EEEmRKT_DpRKT0_, symObjAddr: 0x9454, symBinAddr: 0x10000B25C, symSize: 0x48 }
  - { offsetInCU: 0x106B, offset: 0x106B, size: 0x8, addend: 0x0, symName: __ZN8nlohmann16json_abi_v3_11_26detail11concat_intoINSt3__112basic_stringIcNS3_11char_traitsIcEENS3_9allocatorIcEEEES9_JS9_RKS9_ELi0EEEvRT_OT0_DpOT1_, symObjAddr: 0x949C, symBinAddr: 0x10000B2A4, symSize: 0x44 }
  - { offsetInCU: 0x10EA, offset: 0x10EA, size: 0x8, addend: 0x0, symName: __ZN8nlohmann16json_abi_v3_11_26detail13concat_lengthINSt3__112basic_stringIcNS3_11char_traitsIcEENS3_9allocatorIcEEEEJS9_EEEmRKT_DpRKT0_, symObjAddr: 0x9624, symBinAddr: 0x10000B42C, symSize: 0x40 }
  - { offsetInCU: 0x113B, offset: 0x113B, size: 0x8, addend: 0x0, symName: __ZN8nlohmann16json_abi_v3_11_26detail13concat_lengthINSt3__112basic_stringIcNS3_11char_traitsIcEENS3_9allocatorIcEEEEJEEEmRKT_DpRKT0_, symObjAddr: 0x9664, symBinAddr: 0x10000B46C, symSize: 0x38 }
  - { offsetInCU: 0x1177, offset: 0x1177, size: 0x8, addend: 0x0, symName: __ZN8nlohmann16json_abi_v3_11_26detail13concat_lengthEv, symObjAddr: 0x969C, symBinAddr: 0x10000B4A4, symSize: 0x8 }
  - { offsetInCU: 0x1195, offset: 0x1195, size: 0x8, addend: 0x0, symName: __ZN8nlohmann16json_abi_v3_11_26detail11concat_intoINSt3__112basic_stringIcNS3_11char_traitsIcEENS3_9allocatorIcEEEES9_JRKS9_ELi0EEEvRT_OT0_DpOT1_, symObjAddr: 0x96F0, symBinAddr: 0x10000B4F8, symSize: 0x3C }
  - { offsetInCU: 0x1200, offset: 0x1200, size: 0x8, addend: 0x0, symName: __ZN8nlohmann16json_abi_v3_11_26detail11concat_intoINSt3__112basic_stringIcNS3_11char_traitsIcEENS3_9allocatorIcEEEERKS9_JELi0EEEvRT_OT0_DpOT1_, symObjAddr: 0x972C, symBinAddr: 0x10000B534, symSize: 0x34 }
  - { offsetInCU: 0x1256, offset: 0x1256, size: 0x8, addend: 0x0, symName: __ZN8nlohmann16json_abi_v3_11_26detail11concat_intoINSt3__112basic_stringIcNS3_11char_traitsIcEENS3_9allocatorIcEEEEEEvRT_, symObjAddr: 0x9760, symBinAddr: 0x10000B568, symSize: 0x10 }
  - { offsetInCU: 0x1285, offset: 0x1285, size: 0x8, addend: 0x0, symName: __ZN8nlohmann16json_abi_v3_11_26detail6concatINSt3__112basic_stringIcNS3_11char_traitsIcEENS3_9allocatorIcEEEEJRA17_KcRKS9_cS9_RA3_SA_EEET_DpOT0_, symObjAddr: 0x9770, symBinAddr: 0x10000B578, symSize: 0xF0 }
  - { offsetInCU: 0x1327, offset: 0x1327, size: 0x8, addend: 0x0, symName: __ZN8nlohmann16json_abi_v3_11_26detail13concat_lengthIJNSt3__112basic_stringIcNS3_11char_traitsIcEENS3_9allocatorIcEEEEcS9_A3_cEEEmPKcDpRKT_, symObjAddr: 0x9860, symBinAddr: 0x10000B668, symSize: 0x58 }
  - { offsetInCU: 0x13AB, offset: 0x13AB, size: 0x8, addend: 0x0, symName: __ZN8nlohmann16json_abi_v3_11_26detail11concat_intoINSt3__112basic_stringIcNS3_11char_traitsIcEENS3_9allocatorIcEEEERA17_KcJRKS9_cS9_RA3_SA_ELi0EEEvRT_OT0_DpOT1_, symObjAddr: 0x98B8, symBinAddr: 0x10000B6C0, symSize: 0x54 }
  - { offsetInCU: 0x1452, offset: 0x1452, size: 0x8, addend: 0x0, symName: __ZN8nlohmann16json_abi_v3_11_26detail13concat_lengthINSt3__112basic_stringIcNS3_11char_traitsIcEENS3_9allocatorIcEEEEJcS9_A3_cEEEmRKT_DpRKT0_, symObjAddr: 0x990C, symBinAddr: 0x10000B714, symSize: 0x54 }
  - { offsetInCU: 0x14CB, offset: 0x14CB, size: 0x8, addend: 0x0, symName: __ZN8nlohmann16json_abi_v3_11_26detail13concat_lengthIJNSt3__112basic_stringIcNS3_11char_traitsIcEENS3_9allocatorIcEEEEA3_cEEEmcDpRKT_, symObjAddr: 0x9960, symBinAddr: 0x10000B768, symSize: 0x34 }
  - { offsetInCU: 0x1523, offset: 0x1523, size: 0x8, addend: 0x0, symName: __ZN8nlohmann16json_abi_v3_11_26detail13concat_lengthINSt3__112basic_stringIcNS3_11char_traitsIcEENS3_9allocatorIcEEEEJA3_cEEEmRKT_DpRKT0_, symObjAddr: 0x9994, symBinAddr: 0x10000B79C, symSize: 0x40 }
  - { offsetInCU: 0x1574, offset: 0x1574, size: 0x8, addend: 0x0, symName: __ZN8nlohmann16json_abi_v3_11_26detail13concat_lengthIJEEEmPKcDpRKT_, symObjAddr: 0x99D4, symBinAddr: 0x10000B7DC, symSize: 0x38 }
  - { offsetInCU: 0x15A7, offset: 0x15A7, size: 0x8, addend: 0x0, symName: __ZN8nlohmann16json_abi_v3_11_26detail11concat_intoINSt3__112basic_stringIcNS3_11char_traitsIcEENS3_9allocatorIcEEEERKS9_JcS9_RA3_KcELi0EEEvRT_OT0_DpOT1_, symObjAddr: 0x9A0C, symBinAddr: 0x10000B814, symSize: 0x4C }
  - { offsetInCU: 0x163A, offset: 0x163A, size: 0x8, addend: 0x0, symName: __ZN8nlohmann16json_abi_v3_11_26detail11concat_intoINSt3__112basic_stringIcNS3_11char_traitsIcEENS3_9allocatorIcEEEEcJS9_RA3_KcELi0EEEvRT_OT0_DpOT1_, symObjAddr: 0x9A58, symBinAddr: 0x10000B860, symSize: 0x48 }
  - { offsetInCU: 0x16B9, offset: 0x16B9, size: 0x8, addend: 0x0, symName: __ZN8nlohmann16json_abi_v3_11_26detail11concat_intoINSt3__112basic_stringIcNS3_11char_traitsIcEENS3_9allocatorIcEEEES9_JRA3_KcELi0EEEvRT_OT0_DpOT1_, symObjAddr: 0x9AD4, symBinAddr: 0x10000B8DC, symSize: 0x3C }
  - { offsetInCU: 0x1724, offset: 0x1724, size: 0x8, addend: 0x0, symName: __ZN8nlohmann16json_abi_v3_11_26detail11concat_intoINSt3__112basic_stringIcNS3_11char_traitsIcEENS3_9allocatorIcEEEERA3_KcJELi0EEEvRT_OT0_DpOT1_, symObjAddr: 0x9B10, symBinAddr: 0x10000B918, symSize: 0x34 }
  - { offsetInCU: 0x177A, offset: 0x177A, size: 0x8, addend: 0x0, symName: __ZN8nlohmann16json_abi_v3_11_26detail13concat_lengthIJPKcEEEmS4_DpRKT_, symObjAddr: 0xA544, symBinAddr: 0x10000C34C, symSize: 0x44 }
  - { offsetInCU: 0x17C2, offset: 0x17C2, size: 0x8, addend: 0x0, symName: __ZN8nlohmann16json_abi_v3_11_26detail11concat_intoINSt3__112basic_stringIcNS3_11char_traitsIcEENS3_9allocatorIcEEEERA51_KcJPSA_ELi0EEEvRT_OT0_DpOT1_, symObjAddr: 0xA588, symBinAddr: 0x10000C390, symSize: 0x3C }
  - { offsetInCU: 0x182D, offset: 0x182D, size: 0x8, addend: 0x0, symName: __ZN8nlohmann16json_abi_v3_11_26detail11concat_intoINSt3__112basic_stringIcNS3_11char_traitsIcEENS3_9allocatorIcEEEEPKcJELi0EEEvRT_OT0_DpOT1_, symObjAddr: 0xA5C4, symBinAddr: 0x10000C3CC, symSize: 0x38 }
  - { offsetInCU: 0x1898, offset: 0x1898, size: 0x8, addend: 0x0, symName: __ZN8nlohmann16json_abi_v3_11_26detail9from_jsonINS0_10basic_jsonINSt3__13mapENS4_6vectorENS4_12basic_stringIcNS4_11char_traitsIcEENS4_9allocatorIcEEEEbxydSA_NS0_14adl_serializerENS6_IhNSA_IhEEEEvEEEEvRKT_RNSH_8string_tE, symObjAddr: 0xA818, symBinAddr: 0x10000C620, symSize: 0x118 }
  - { offsetInCU: 0x18DA, offset: 0x18DA, size: 0x8, addend: 0x0, symName: __ZN8nlohmann16json_abi_v3_11_26detail6concatINSt3__112basic_stringIcNS3_11char_traitsIcEENS3_9allocatorIcEEEEJRA29_KcPSA_EEET_DpOT0_, symObjAddr: 0xAA84, symBinAddr: 0x10000C88C, symSize: 0xCC }
  - { offsetInCU: 0x1940, offset: 0x1940, size: 0x8, addend: 0x0, symName: __ZN8nlohmann16json_abi_v3_11_26detail11concat_intoINSt3__112basic_stringIcNS3_11char_traitsIcEENS3_9allocatorIcEEEERA29_KcJPSA_ELi0EEEvRT_OT0_DpOT1_, symObjAddr: 0xAB78, symBinAddr: 0x10000C980, symSize: 0x3C }
  - { offsetInCU: 0x11487, offset: 0x11487, size: 0x8, addend: 0x0, symName: __ZNSt3__124__put_character_sequenceB7v160006IcNS_11char_traitsIcEEEERNS_13basic_ostreamIT_T0_EES7_PKS4_m, symObjAddr: 0xB2BC, symBinAddr: 0x10000D0C4, symSize: 0x1EC }
  - { offsetInCU: 0x12C1C, offset: 0x12C1C, size: 0x8, addend: 0x0, symName: __ZNSt3__1neB7v160006IcNS_11char_traitsIcEENS_9allocatorIcEEEEbRKNS_12basic_stringIT_T0_T1_EEPKS6_, symObjAddr: 0x314, symBinAddr: 0x10000211C, symSize: 0x34 }
  - { offsetInCU: 0x12C74, offset: 0x12C74, size: 0x8, addend: 0x0, symName: __ZNSt3__1lsB7v160006INS_11char_traitsIcEEEERNS_13basic_ostreamIcT_EES6_PKc, symObjAddr: 0x374, symBinAddr: 0x10000217C, symSize: 0x48 }
  - { offsetInCU: 0x12CBA, offset: 0x12CBA, size: 0x8, addend: 0x0, symName: __ZNSt3__14endlB7v160006IcNS_11char_traitsIcEEEERNS_13basic_ostreamIT_T0_EES7_, symObjAddr: 0x3E8, symBinAddr: 0x1000021F0, symSize: 0x58 }
  - { offsetInCU: 0x12CFB, offset: 0x12CFB, size: 0x8, addend: 0x0, symName: __ZNSt3__14moveB7v160006INS_11__wrap_iterIPN8nlohmann16json_abi_v3_11_210basic_jsonINS_3mapENS_6vectorENS_12basic_stringIcNS_11char_traitsIcEENS_9allocatorIcEEEEbxydSA_NS3_14adl_serializerENS6_IhNSA_IhEEEEvEEEENS_20back_insert_iteratorINS6_ISG_NSA_ISG_EEEEEEEET0_T_SO_SN_, symObjAddr: 0x1000, symBinAddr: 0x100002E08, symSize: 0x60 }
  - { offsetInCU: 0x12D55, offset: 0x12D55, size: 0x8, addend: 0x0, symName: __ZNSt3__113back_inserterB7v160006INS_6vectorIN8nlohmann16json_abi_v3_11_210basic_jsonINS_3mapES1_NS_12basic_stringIcNS_11char_traitsIcEENS_9allocatorIcEEEEbxydS9_NS3_14adl_serializerENS1_IhNS9_IhEEEEvEENS9_ISF_EEEEEENS_20back_insert_iteratorIT_EERSJ_, symObjAddr: 0x10C0, symBinAddr: 0x100002EC8, symSize: 0x2C }
  - { offsetInCU: 0x12D89, offset: 0x12D89, size: 0x8, addend: 0x0, symName: __ZNSt3__1neB7v160006ERKNS_14__map_iteratorINS_15__tree_iteratorINS_12__value_typeINS_12basic_stringIcNS_11char_traitsIcEENS_9allocatorIcEEEEN8nlohmann16json_abi_v3_11_210basic_jsonINS_3mapENS_6vectorES8_bxydS6_NSA_14adl_serializerENSD_IhNS6_IhEEEEvEEEEPNS_11__tree_nodeISI_PvEElEEEESQ_, symObjAddr: 0x1184, symBinAddr: 0x100002F8C, symSize: 0x30 }
  - { offsetInCU: 0x13481, offset: 0x13481, size: 0x8, addend: 0x0, symName: __ZNSt3__119__debug_db_insert_cB7v160006INS_6vectorIN8nlohmann16json_abi_v3_11_210basic_jsonINS_3mapES1_NS_12basic_stringIcNS_11char_traitsIcEENS_9allocatorIcEEEEbxydS9_NS3_14adl_serializerENS1_IhNS9_IhEEEEvEENS9_ISF_EEEEEEvPT_, symObjAddr: 0x16C0, symBinAddr: 0x1000034C8, symSize: 0x10 }
  - { offsetInCU: 0x134B2, offset: 0x134B2, size: 0x8, addend: 0x0, symName: __ZNSt3__13minB7v160006ImEERKT_S3_S3_, symObjAddr: 0x1A64, symBinAddr: 0x10000386C, symSize: 0x2C }
  - { offsetInCU: 0x136DF, offset: 0x136DF, size: 0x8, addend: 0x0, symName: __ZNSt3__13minB7v160006ImNS_6__lessImmEEEERKT_S5_S5_T0_, symObjAddr: 0x1AF0, symBinAddr: 0x1000038F8, symSize: 0x54 }
  - { offsetInCU: 0x13774, offset: 0x13774, size: 0x8, addend: 0x0, symName: __ZNSt3__120__throw_length_errorB7v160006EPKc, symObjAddr: 0x1BCC, symBinAddr: 0x1000039D4, symSize: 0x64 }
  - { offsetInCU: 0x1379D, offset: 0x1379D, size: 0x8, addend: 0x0, symName: __ZNSt3__119__allocate_at_leastB7v160006INS_9allocatorIN8nlohmann16json_abi_v3_11_210basic_jsonINS_3mapENS_6vectorENS_12basic_stringIcNS_11char_traitsIcEENS1_IcEEEEbxydS1_NS3_14adl_serializerENS6_IhNS1_IhEEEEvEEEEEENS_19__allocation_resultINS_16allocator_traitsIT_E7pointerEEERSJ_m, symObjAddr: 0x1DF8, symBinAddr: 0x100003C00, symSize: 0x40 }
  - { offsetInCU: 0x137DF, offset: 0x137DF, size: 0x8, addend: 0x0, symName: __ZNSt3__117__libcpp_allocateB7v160006Emm, symObjAddr: 0x1F7C, symBinAddr: 0x100003D84, symSize: 0x60 }
  - { offsetInCU: 0x1383B, offset: 0x1383B, size: 0x8, addend: 0x0, symName: __ZNSt3__124__is_overaligned_for_newB7v160006Em, symObjAddr: 0x1FDC, symBinAddr: 0x100003DE4, symSize: 0x20 }
  - { offsetInCU: 0x13869, offset: 0x13869, size: 0x8, addend: 0x0, symName: __ZNSt3__121__libcpp_operator_newB7v160006IJmSt11align_val_tEEEPvDpT_, symObjAddr: 0x1FFC, symBinAddr: 0x100003E04, symSize: 0x2C }
  - { offsetInCU: 0x138B6, offset: 0x138B6, size: 0x8, addend: 0x0, symName: __ZNSt3__121__libcpp_operator_newB7v160006IJmEEEPvDpT_, symObjAddr: 0x2028, symBinAddr: 0x100003E30, symSize: 0x24 }
  - { offsetInCU: 0x138EF, offset: 0x138EF, size: 0x8, addend: 0x0, symName: __ZNSt3__142__uninitialized_allocator_move_if_noexceptB7v160006INS_9allocatorIN8nlohmann16json_abi_v3_11_210basic_jsonINS_3mapENS_6vectorENS_12basic_stringIcNS_11char_traitsIcEENS1_IcEEEEbxydS1_NS3_14adl_serializerENS6_IhNS1_IhEEEEvEEEENS_16reverse_iteratorIPSF_EESJ_SJ_EET2_RT_T0_T1_SK_, symObjAddr: 0x217C, symBinAddr: 0x100003F84, symSize: 0x12C }
  - { offsetInCU: 0x13990, offset: 0x13990, size: 0x8, addend: 0x0, symName: __ZNSt3__14swapB7v160006IPN8nlohmann16json_abi_v3_11_210basic_jsonINS_3mapENS_6vectorENS_12basic_stringIcNS_11char_traitsIcEENS_9allocatorIcEEEEbxydS9_NS2_14adl_serializerENS5_IhNS9_IhEEEEvEEEENS_9enable_ifIXaasr21is_move_constructibleIT_EE5valuesr18is_move_assignableISI_EE5valueEvE4typeERSI_SL_, symObjAddr: 0x22F4, symBinAddr: 0x1000040FC, symSize: 0x3C }
  - { offsetInCU: 0x139E3, offset: 0x139E3, size: 0x8, addend: 0x0, symName: __ZNSt3__125__debug_db_invalidate_allB7v160006INS_6vectorIN8nlohmann16json_abi_v3_11_210basic_jsonINS_3mapES1_NS_12basic_stringIcNS_11char_traitsIcEENS_9allocatorIcEEEEbxydS9_NS3_14adl_serializerENS1_IhNS9_IhEEEEvEENS9_ISF_EEEEEEvPT_, symObjAddr: 0x2404, symBinAddr: 0x10000420C, symSize: 0x10 }
  - { offsetInCU: 0x13A14, offset: 0x13A14, size: 0x8, addend: 0x0, symName: __ZNSt3__112__to_addressB7v160006IN8nlohmann16json_abi_v3_11_210basic_jsonINS_3mapENS_6vectorENS_12basic_stringIcNS_11char_traitsIcEENS_9allocatorIcEEEEbxydS9_NS2_14adl_serializerENS5_IhNS9_IhEEEEvEEEEPT_SH_, symObjAddr: 0x245C, symBinAddr: 0x100004264, symSize: 0x14 }
  - { offsetInCU: 0x13A4A, offset: 0x13A4A, size: 0x8, addend: 0x0, symName: __ZNSt3__122__make_exception_guardB7v160006INS_29_AllocatorDestroyRangeReverseINS_9allocatorIN8nlohmann16json_abi_v3_11_210basic_jsonINS_3mapENS_6vectorENS_12basic_stringIcNS_11char_traitsIcEENS2_IcEEEEbxydS2_NS4_14adl_serializerENS7_IhNS2_IhEEEEvEEEENS_16reverse_iteratorIPSG_EEEEEENS_28__exception_guard_exceptionsIT_EESN_, symObjAddr: 0x2470, symBinAddr: 0x100004278, symSize: 0x4C }
  - { offsetInCU: 0x13A80, offset: 0x13A80, size: 0x8, addend: 0x0, symName: __ZNSt3__1neB7v160006IPN8nlohmann16json_abi_v3_11_210basic_jsonINS_3mapENS_6vectorENS_12basic_stringIcNS_11char_traitsIcEENS_9allocatorIcEEEEbxydS9_NS2_14adl_serializerENS5_IhNS9_IhEEEEvEESG_EEbRKNS_16reverse_iteratorIT_EERKNSH_IT0_EE, symObjAddr: 0x2500, symBinAddr: 0x100004308, symSize: 0x48 }
  - { offsetInCU: 0x13ACC, offset: 0x13ACC, size: 0x8, addend: 0x0, symName: __ZNSt3__112__to_addressB7v160006INS_16reverse_iteratorIPN8nlohmann16json_abi_v3_11_210basic_jsonINS_3mapENS_6vectorENS_12basic_stringIcNS_11char_traitsIcEENS_9allocatorIcEEEEbxydSA_NS3_14adl_serializerENS6_IhNSA_IhEEEEvEEEEvEENS_5decayIDTclsr19__to_address_helperIT_EE6__callclsr3stdE7declvalIRKSK_EEEEE4typeESM_, symObjAddr: 0x257C, symBinAddr: 0x100004384, symSize: 0x24 }
  - { offsetInCU: 0x13B2A, offset: 0x13B2A, size: 0x8, addend: 0x0, symName: __ZNSt3__119__allocator_destroyB7v160006INS_9allocatorIN8nlohmann16json_abi_v3_11_210basic_jsonINS_3mapENS_6vectorENS_12basic_stringIcNS_11char_traitsIcEENS1_IcEEEEbxydS1_NS3_14adl_serializerENS6_IhNS1_IhEEEEvEEEENS_16reverse_iteratorINSH_IPSF_EEEESK_EEvRT_T0_T1_, symObjAddr: 0x285C, symBinAddr: 0x100004664, symSize: 0x70 }
  - { offsetInCU: 0x13B90, offset: 0x13B90, size: 0x8, addend: 0x0, symName: __ZNSt3__1neB7v160006INS_16reverse_iteratorIPN8nlohmann16json_abi_v3_11_210basic_jsonINS_3mapENS_6vectorENS_12basic_stringIcNS_11char_traitsIcEENS_9allocatorIcEEEEbxydSA_NS3_14adl_serializerENS6_IhNSA_IhEEEEvEEEESI_EEbRKNS1_IT_EERKNS1_IT0_EE, symObjAddr: 0x2908, symBinAddr: 0x100004710, symSize: 0x60 }
  - { offsetInCU: 0x13BDC, offset: 0x13BDC, size: 0x8, addend: 0x0, symName: __ZNSt3__112__to_addressB7v160006INS_16reverse_iteratorINS1_IPN8nlohmann16json_abi_v3_11_210basic_jsonINS_3mapENS_6vectorENS_12basic_stringIcNS_11char_traitsIcEENS_9allocatorIcEEEEbxydSA_NS3_14adl_serializerENS6_IhNSA_IhEEEEvEEEEEEvEENS_5decayIDTclsr19__to_address_helperIT_EE6__callclsr3stdE7declvalIRKSL_EEEEE4typeESN_, symObjAddr: 0x2994, symBinAddr: 0x10000479C, symSize: 0x24 }
  - { offsetInCU: 0x13C3A, offset: 0x13C3A, size: 0x8, addend: 0x0, symName: __ZNSt3__119__libcpp_deallocateB7v160006EPvmm, symObjAddr: 0x2D70, symBinAddr: 0x100004B78, symSize: 0x60 }
  - { offsetInCU: 0x13CA0, offset: 0x13CA0, size: 0x8, addend: 0x0, symName: __ZNSt3__127__do_deallocate_handle_sizeB7v160006IJSt11align_val_tEEEvPvmDpT_, symObjAddr: 0x2DD0, symBinAddr: 0x100004BD8, symSize: 0x30 }
  - { offsetInCU: 0x13CF3, offset: 0x13CF3, size: 0x8, addend: 0x0, symName: __ZNSt3__127__do_deallocate_handle_sizeB7v160006IJEEEvPvmDpT_, symObjAddr: 0x2E00, symBinAddr: 0x100004C08, symSize: 0x28 }
  - { offsetInCU: 0x13D31, offset: 0x13D31, size: 0x8, addend: 0x0, symName: __ZNSt3__124__libcpp_operator_deleteB7v160006IJPvSt11align_val_tEEEvDpT_, symObjAddr: 0x2E28, symBinAddr: 0x100004C30, symSize: 0x2C }
  - { offsetInCU: 0x13D7A, offset: 0x13D7A, size: 0x8, addend: 0x0, symName: __ZNSt3__124__libcpp_operator_deleteB7v160006IJPvEEEvDpT_, symObjAddr: 0x2E54, symBinAddr: 0x100004C5C, symSize: 0x24 }
  - { offsetInCU: 0x13DB0, offset: 0x13DB0, size: 0x8, addend: 0x0, symName: __ZNSt3__16__moveB7v160006INS_17_ClassicAlgPolicyENS_11__wrap_iterIPN8nlohmann16json_abi_v3_11_210basic_jsonINS_3mapENS_6vectorENS_12basic_stringIcNS_11char_traitsIcEENS_9allocatorIcEEEEbxydSB_NS4_14adl_serializerENS7_IhNSB_IhEEEEvEEEESJ_NS_20back_insert_iteratorINS7_ISH_NSB_ISH_EEEEEEEENS_4pairIT0_T2_EESP_T1_SQ_, symObjAddr: 0x2EC4, symBinAddr: 0x100004CCC, symSize: 0x5C }
  - { offsetInCU: 0x13E1C, offset: 0x13E1C, size: 0x8, addend: 0x0, symName: __ZNSt3__123__dispatch_copy_or_moveB7v160006INS_17_ClassicAlgPolicyENS_11__move_loopIS1_EENS_14__move_trivialENS_11__wrap_iterIPN8nlohmann16json_abi_v3_11_210basic_jsonINS_3mapENS_6vectorENS_12basic_stringIcNS_11char_traitsIcEENS_9allocatorIcEEEEbxydSE_NS7_14adl_serializerENSA_IhNSE_IhEEEEvEEEESM_NS_20back_insert_iteratorINSA_ISK_NSE_ISK_EEEEEEEENS_4pairIT2_T4_EESS_T3_ST_, symObjAddr: 0x2F20, symBinAddr: 0x100004D28, symSize: 0x5C }
  - { offsetInCU: 0x13E9A, offset: 0x13E9A, size: 0x8, addend: 0x0, symName: __ZNSt3__121__unwrap_and_dispatchB7v160006INS_10__overloadINS_11__move_loopINS_17_ClassicAlgPolicyEEENS_14__move_trivialEEENS_11__wrap_iterIPN8nlohmann16json_abi_v3_11_210basic_jsonINS_3mapENS_6vectorENS_12basic_stringIcNS_11char_traitsIcEENS_9allocatorIcEEEEbxydSG_NS9_14adl_serializerENSC_IhNSG_IhEEEEvEEEESO_NS_20back_insert_iteratorINSC_ISM_NSG_ISM_EEEEEELi0EEENS_4pairIT0_T2_EESU_T1_SV_, symObjAddr: 0x2F7C, symBinAddr: 0x100004D84, symSize: 0xE8 }
  - { offsetInCU: 0x13F2B, offset: 0x13F2B, size: 0x8, addend: 0x0, symName: __ZNSt3__114__unwrap_rangeB7v160006INS_11__wrap_iterIPN8nlohmann16json_abi_v3_11_210basic_jsonINS_3mapENS_6vectorENS_12basic_stringIcNS_11char_traitsIcEENS_9allocatorIcEEEEbxydSA_NS3_14adl_serializerENS6_IhNSA_IhEEEEvEEEESH_EENS_4pairIT0_SK_EET_SM_, symObjAddr: 0x3064, symBinAddr: 0x100004E6C, symSize: 0x70 }
  - { offsetInCU: 0x140A6, offset: 0x140A6, size: 0x8, addend: 0x0, symName: __ZNSt3__113__unwrap_iterB7v160006INS_20back_insert_iteratorINS_6vectorIN8nlohmann16json_abi_v3_11_210basic_jsonINS_3mapES2_NS_12basic_stringIcNS_11char_traitsIcEENS_9allocatorIcEEEEbxydSA_NS4_14adl_serializerENS2_IhNSA_IhEEEEvEENSA_ISG_EEEEEENS_18__unwrap_iter_implISJ_Lb0EEELi0EEEDTclsrT0_8__unwrapclsr3stdE7declvalIT_EEEESN_, symObjAddr: 0x316C, symBinAddr: 0x100004F74, symSize: 0x34 }
  - { offsetInCU: 0x140E9, offset: 0x140E9, size: 0x8, addend: 0x0, symName: __ZNSt3__19make_pairB7v160006INS_11__wrap_iterIPN8nlohmann16json_abi_v3_11_210basic_jsonINS_3mapENS_6vectorENS_12basic_stringIcNS_11char_traitsIcEENS_9allocatorIcEEEEbxydSA_NS3_14adl_serializerENS6_IhNSA_IhEEEEvEEEENS_20back_insert_iteratorINS6_ISG_NSA_ISG_EEEEEEEENS_4pairINS_18__unwrap_ref_decayIT_E4typeENSO_IT0_E4typeEEEOSP_OSS_, symObjAddr: 0x31A0, symBinAddr: 0x100004FA8, symSize: 0x38 }
  - { offsetInCU: 0x14139, offset: 0x14139, size: 0x8, addend: 0x0, symName: __ZNSt3__114__rewrap_rangeB7v160006INS_11__wrap_iterIPN8nlohmann16json_abi_v3_11_210basic_jsonINS_3mapENS_6vectorENS_12basic_stringIcNS_11char_traitsIcEENS_9allocatorIcEEEEbxydSA_NS3_14adl_serializerENS6_IhNSA_IhEEEEvEEEESH_EET_SJ_T0_, symObjAddr: 0x31D8, symBinAddr: 0x100004FE0, symSize: 0x3C }
  - { offsetInCU: 0x14185, offset: 0x14185, size: 0x8, addend: 0x0, symName: __ZNSt3__113__rewrap_iterB7v160006INS_20back_insert_iteratorINS_6vectorIN8nlohmann16json_abi_v3_11_210basic_jsonINS_3mapES2_NS_12basic_stringIcNS_11char_traitsIcEENS_9allocatorIcEEEEbxydSA_NS4_14adl_serializerENS2_IhNSA_IhEEEEvEENSA_ISG_EEEEEESJ_NS_18__unwrap_iter_implISJ_Lb0EEEEET_SM_T0_, symObjAddr: 0x3214, symBinAddr: 0x10000501C, symSize: 0x54 }
  - { offsetInCU: 0x141D9, offset: 0x141D9, size: 0x8, addend: 0x0, symName: __ZNSt3__19make_pairB7v160006IPN8nlohmann16json_abi_v3_11_210basic_jsonINS_3mapENS_6vectorENS_12basic_stringIcNS_11char_traitsIcEENS_9allocatorIcEEEEbxydS9_NS2_14adl_serializerENS5_IhNS9_IhEEEEvEESG_EENS_4pairINS_18__unwrap_ref_decayIT_E4typeENSI_IT0_E4typeEEEOSJ_OSM_, symObjAddr: 0x3268, symBinAddr: 0x100005070, symSize: 0x38 }
  - { offsetInCU: 0x14229, offset: 0x14229, size: 0x8, addend: 0x0, symName: __ZNSt3__113__unwrap_iterB7v160006INS_11__wrap_iterIPN8nlohmann16json_abi_v3_11_210basic_jsonINS_3mapENS_6vectorENS_12basic_stringIcNS_11char_traitsIcEENS_9allocatorIcEEEEbxydSA_NS3_14adl_serializerENS6_IhNSA_IhEEEEvEEEENS_18__unwrap_iter_implISI_Lb1EEELi0EEEDTclsrT0_8__unwrapclsr3stdE7declvalIT_EEEESM_, symObjAddr: 0x32A0, symBinAddr: 0x1000050A8, symSize: 0x2C }
  - { offsetInCU: 0x14394, offset: 0x14394, size: 0x8, addend: 0x0, symName: __ZNSt3__112__to_addressB7v160006INS_11__wrap_iterIPN8nlohmann16json_abi_v3_11_210basic_jsonINS_3mapENS_6vectorENS_12basic_stringIcNS_11char_traitsIcEENS_9allocatorIcEEEEbxydSA_NS3_14adl_serializerENS6_IhNSA_IhEEEEvEEEEvEENS_5decayIDTclsr19__to_address_helperIT_EE6__callclsr3stdE7declvalIRKSK_EEEEE4typeESM_, symObjAddr: 0x3364, symBinAddr: 0x10000516C, symSize: 0x24 }
  - { offsetInCU: 0x144DC, offset: 0x144DC, size: 0x8, addend: 0x0, symName: __ZNSt3__19make_pairB7v160006IPN8nlohmann16json_abi_v3_11_210basic_jsonINS_3mapENS_6vectorENS_12basic_stringIcNS_11char_traitsIcEENS_9allocatorIcEEEEbxydS9_NS2_14adl_serializerENS5_IhNS9_IhEEEEvEENS_20back_insert_iteratorINS5_ISF_NS9_ISF_EEEEEEEENS_4pairINS_18__unwrap_ref_decayIT_E4typeENSM_IT0_E4typeEEEOSN_OSQ_, symObjAddr: 0x3484, symBinAddr: 0x10000528C, symSize: 0x38 }
  - { offsetInCU: 0x14648, offset: 0x14648, size: 0x8, addend: 0x0, symName: __ZNSt3__113__rewrap_iterB7v160006INS_11__wrap_iterIPN8nlohmann16json_abi_v3_11_210basic_jsonINS_3mapENS_6vectorENS_12basic_stringIcNS_11char_traitsIcEENS_9allocatorIcEEEEbxydSA_NS3_14adl_serializerENS6_IhNSA_IhEEEEvEEEESH_NS_18__unwrap_iter_implISI_Lb1EEEEET_SL_T0_, symObjAddr: 0x35BC, symBinAddr: 0x1000053C4, symSize: 0x4C }
  - { offsetInCU: 0x146CF, offset: 0x146CF, size: 0x8, addend: 0x0, symName: __ZNSt3__1neB7v160006ERKNS_15__tree_iteratorINS_12__value_typeINS_12basic_stringIcNS_11char_traitsIcEENS_9allocatorIcEEEEN8nlohmann16json_abi_v3_11_210basic_jsonINS_3mapENS_6vectorES7_bxydS5_NS9_14adl_serializerENSC_IhNS5_IhEEEEvEEEEPNS_11__tree_nodeISH_PvEElEESO_, symObjAddr: 0x39CC, symBinAddr: 0x1000057D4, symSize: 0x34 }
  - { offsetInCU: 0x1470D, offset: 0x1470D, size: 0x8, addend: 0x0, symName: __ZNSt3__1eqB7v160006ERKNS_15__tree_iteratorINS_12__value_typeINS_12basic_stringIcNS_11char_traitsIcEENS_9allocatorIcEEEEN8nlohmann16json_abi_v3_11_210basic_jsonINS_3mapENS_6vectorES7_bxydS5_NS9_14adl_serializerENSC_IhNS5_IhEEEEvEEEEPNS_11__tree_nodeISH_PvEElEESO_, symObjAddr: 0x3A00, symBinAddr: 0x100005808, symSize: 0x30 }
  - { offsetInCU: 0x1477D, offset: 0x1477D, size: 0x8, addend: 0x0, symName: __ZNSt3__17launderB7v160006INS_4pairIKNS_12basic_stringIcNS_11char_traitsIcEENS_9allocatorIcEEEEN8nlohmann16json_abi_v3_11_210basic_jsonINS_3mapENS_6vectorES7_bxydS5_NSA_14adl_serializerENSD_IhNS5_IhEEEEvEEEEEEPT_SK_, symObjAddr: 0x3AAC, symBinAddr: 0x1000058B4, symSize: 0x24 }
  - { offsetInCU: 0x147B5, offset: 0x147B5, size: 0x8, addend: 0x0, symName: __ZNSt3__19__launderB7v160006INS_4pairIKNS_12basic_stringIcNS_11char_traitsIcEENS_9allocatorIcEEEEN8nlohmann16json_abi_v3_11_210basic_jsonINS_3mapENS_6vectorES7_bxydS5_NSA_14adl_serializerENSD_IhNS5_IhEEEEvEEEEEEPT_SK_, symObjAddr: 0x3AD0, symBinAddr: 0x1000058D8, symSize: 0x14 }
  - { offsetInCU: 0x147ED, offset: 0x147ED, size: 0x8, addend: 0x0, symName: __ZNSt3__13maxB7v160006ImEERKT_S3_S3_, symObjAddr: 0x3DCC, symBinAddr: 0x100005BD4, symSize: 0x2C }
  - { offsetInCU: 0x14830, offset: 0x14830, size: 0x8, addend: 0x0, symName: __ZNSt3__13maxB7v160006ImNS_6__lessImmEEEERKT_S5_S5_T0_, symObjAddr: 0x3DF8, symBinAddr: 0x100005C00, symSize: 0x54 }
  - { offsetInCU: 0x1488A, offset: 0x1488A, size: 0x8, addend: 0x0, symName: __ZNSt3__116__tree_next_iterB7v160006IPNS_15__tree_end_nodeIPNS_16__tree_node_baseIPvEEEES5_EET_T0_, symObjAddr: 0x3E84, symBinAddr: 0x100005C8C, symSize: 0x90 }
  - { offsetInCU: 0x148C8, offset: 0x148C8, size: 0x8, addend: 0x0, symName: __ZNSt3__110__tree_minB7v160006IPNS_16__tree_node_baseIPvEEEET_S5_, symObjAddr: 0x3F14, symBinAddr: 0x100005D1C, symSize: 0x40 }
  - { offsetInCU: 0x148FE, offset: 0x148FE, size: 0x8, addend: 0x0, symName: __ZNSt3__120__tree_is_left_childB7v160006IPNS_16__tree_node_baseIPvEEEEbT_, symObjAddr: 0x3F54, symBinAddr: 0x100005D5C, symSize: 0x2C }
  - { offsetInCU: 0x14934, offset: 0x14934, size: 0x8, addend: 0x0, symName: __ZNSt3__118__debug_db_erase_cB7v160006INS_6vectorIN8nlohmann16json_abi_v3_11_210basic_jsonINS_3mapES1_NS_12basic_stringIcNS_11char_traitsIcEENS_9allocatorIcEEEEbxydS9_NS3_14adl_serializerENS1_IhNS9_IhEEEEvEENS9_ISF_EEEEEEvPT_, symObjAddr: 0x46CC, symBinAddr: 0x1000064D4, symSize: 0x10 }
  - { offsetInCU: 0x14965, offset: 0x14965, size: 0x8, addend: 0x0, symName: __ZNSt3__118__debug_db_erase_cB7v160006INS_6vectorIhNS_9allocatorIhEEEEEEvPT_, symObjAddr: 0x4C48, symBinAddr: 0x100006A50, symSize: 0x10 }
  - { offsetInCU: 0x14996, offset: 0x14996, size: 0x8, addend: 0x0, symName: __ZNSt3__112__to_addressB7v160006IhEEPT_S2_, symObjAddr: 0x4D7C, symBinAddr: 0x100006B84, symSize: 0x14 }
  - { offsetInCU: 0x14A59, offset: 0x14A59, size: 0x8, addend: 0x0, symName: __ZNSt3__118__debug_db_erase_cB7v160006INS_6vectorI5ErrorNS_9allocatorIS2_EEEEEEvPT_, symObjAddr: 0x5454, symBinAddr: 0x10000725C, symSize: 0x10 }
  - { offsetInCU: 0x14A8A, offset: 0x14A8A, size: 0x8, addend: 0x0, symName: __ZNSt3__112__to_addressB7v160006I5ErrorEEPT_S3_, symObjAddr: 0x5598, symBinAddr: 0x1000073A0, symSize: 0x14 }
  - { offsetInCU: 0x14ABF, offset: 0x14ABF, size: 0x8, addend: 0x0, symName: __ZNSt3__17launderB7v160006INS_4pairIKNS_12basic_stringIcNS_11char_traitsIcEENS_9allocatorIcEEEENS_6vectorI5ErrorNS5_ISA_EEEEEEEEPT_SF_, symObjAddr: 0x57FC, symBinAddr: 0x100007604, symSize: 0x24 }
  - { offsetInCU: 0x14AF7, offset: 0x14AF7, size: 0x8, addend: 0x0, symName: __ZNSt3__19__launderB7v160006INS_4pairIKNS_12basic_stringIcNS_11char_traitsIcEENS_9allocatorIcEEEENS_6vectorI5ErrorNS5_ISA_EEEEEEEEPT_SF_, symObjAddr: 0x5820, symBinAddr: 0x100007628, symSize: 0x14 }
  - { offsetInCU: 0x14F2D, offset: 0x14F2D, size: 0x8, addend: 0x0, symName: __ZNSt3__1neB7v160006INS_3mapINS_12basic_stringIcNS_11char_traitsIcEENS_9allocatorIcEEEEN8nlohmann16json_abi_v3_11_210basic_jsonIS1_NS_6vectorES7_bxydS5_NS9_14adl_serializerENSB_IhNS5_IhEEEEvEENS_4lessIvEENS5_INS_4pairIKS7_SF_EEEEEEZNSF_6createISM_JEEEPT_DpOT0_EUlPSM_E_EEbRKNS_10unique_ptrISO_T0_EEDn, symObjAddr: 0x6018, symBinAddr: 0x100007E20, symSize: 0x2C }
  - { offsetInCU: 0x14F9C, offset: 0x14F9C, size: 0x8, addend: 0x0, symName: __ZNSt3__1ltB7v160006IcNS_11char_traitsIcEENS_9allocatorIcEEEEbRKNS_12basic_stringIT_T0_T1_EESB_, symObjAddr: 0x6EF0, symBinAddr: 0x100008CF8, symSize: 0x38 }
  - { offsetInCU: 0x15019, offset: 0x15019, size: 0x8, addend: 0x0, symName: __ZNSt3__118__constexpr_memcmpB7v160006IcEEiPKT_S3_m, symObjAddr: 0x72D4, symBinAddr: 0x1000090DC, symSize: 0x34 }
  - { offsetInCU: 0x1506A, offset: 0x1506A, size: 0x8, addend: 0x0, symName: __ZNSt3__112__to_addressB7v160006IKcEEPT_S3_, symObjAddr: 0x7308, symBinAddr: 0x100009110, symSize: 0x14 }
  - { offsetInCU: 0x150D2, offset: 0x150D2, size: 0x8, addend: 0x0, symName: __ZNSt3__17launderB7v160006IKNS_4pairIKNS_12basic_stringIcNS_11char_traitsIcEENS_9allocatorIcEEEEN8nlohmann16json_abi_v3_11_210basic_jsonINS_3mapENS_6vectorES7_bxydS5_NSA_14adl_serializerENSD_IhNS5_IhEEEEvEEEEEEPT_SL_, symObjAddr: 0x7460, symBinAddr: 0x100009268, symSize: 0x24 }
  - { offsetInCU: 0x1510A, offset: 0x1510A, size: 0x8, addend: 0x0, symName: __ZNSt3__19__launderB7v160006IKNS_4pairIKNS_12basic_stringIcNS_11char_traitsIcEENS_9allocatorIcEEEEN8nlohmann16json_abi_v3_11_210basic_jsonINS_3mapENS_6vectorES7_bxydS5_NSA_14adl_serializerENSD_IhNS5_IhEEEEvEEEEEEPT_SL_, symObjAddr: 0x7484, symBinAddr: 0x10000928C, symSize: 0x14 }
  - { offsetInCU: 0x15160, offset: 0x15160, size: 0x8, addend: 0x0, symName: __ZNSt3__119__debug_db_insert_cB7v160006INS_12basic_stringIcNS_11char_traitsIcEENS_9allocatorIcEEEEEEvPT_, symObjAddr: 0x79C0, symBinAddr: 0x1000097C8, symSize: 0x10 }
  - { offsetInCU: 0x15191, offset: 0x15191, size: 0x8, addend: 0x0, symName: __ZNSt3__115__debug_db_swapB7v160006INS_12basic_stringIcNS_11char_traitsIcEENS_9allocatorIcEEEEEEvPT_S8_, symObjAddr: 0x79D0, symBinAddr: 0x1000097D8, symSize: 0x14 }
  - { offsetInCU: 0x155CE, offset: 0x155CE, size: 0x8, addend: 0x0, symName: __ZNSt3__1neB7v160006INS_6vectorIN8nlohmann16json_abi_v3_11_210basic_jsonINS_3mapES1_NS_12basic_stringIcNS_11char_traitsIcEENS_9allocatorIcEEEEbxydS9_NS3_14adl_serializerENS1_IhNS9_IhEEEEvEENS9_ISF_EEEEZNSF_6createISH_JEEEPT_DpOT0_EUlPSH_E_EEbRKNS_10unique_ptrISJ_T0_EEDn, symObjAddr: 0x8224, symBinAddr: 0x10000A02C, symSize: 0x2C }
  - { offsetInCU: 0x15964, offset: 0x15964, size: 0x8, addend: 0x0, symName: __ZNSt3__1neB7v160006INS_12basic_stringIcNS_11char_traitsIcEENS_9allocatorIcEEEEZN8nlohmann16json_abi_v3_11_210basic_jsonINS_3mapENS_6vectorES6_bxydS4_NS8_14adl_serializerENSB_IhNS4_IhEEEEvE6createIS6_JRA1_KcEEEPT_DpOT0_EUlPS6_E_EEbRKNS_10unique_ptrISK_T0_EEDn, symObjAddr: 0x871C, symBinAddr: 0x10000A524, symSize: 0x2C }
  - { offsetInCU: 0x15DAE, offset: 0x15DAE, size: 0x8, addend: 0x0, symName: __ZNSt3__1neB7v160006IN8nlohmann16json_abi_v3_11_227byte_container_with_subtypeINS_6vectorIhNS_9allocatorIhEEEEEEZNS2_10basic_jsonINS_3mapES4_NS_12basic_stringIcNS_11char_traitsIcEENS5_IcEEEEbxydS5_NS2_14adl_serializerES7_vE6createIS8_JEEEPT_DpOT0_EUlPS8_E_EEbRKNS_10unique_ptrISJ_T0_EEDn, symObjAddr: 0x8C14, symBinAddr: 0x10000AA1C, symSize: 0x2C }
  - { offsetInCU: 0x15DFA, offset: 0x15DFA, size: 0x8, addend: 0x0, symName: __ZNSt3__119__debug_db_insert_cB7v160006INS_6vectorIhNS_9allocatorIhEEEEEEvPT_, symObjAddr: 0x8F78, symBinAddr: 0x10000AD80, symSize: 0x10 }
  - { offsetInCU: 0x15E2A, offset: 0x15E2A, size: 0x8, addend: 0x0, symName: __ZNSt3__127__tree_balance_after_insertB7v160006IPNS_16__tree_node_baseIPvEEEEvT_S5_, symObjAddr: 0x9DE4, symBinAddr: 0x10000BBEC, symSize: 0x27C }
  - { offsetInCU: 0x15EA8, offset: 0x15EA8, size: 0x8, addend: 0x0, symName: __ZNSt3__118__tree_left_rotateB7v160006IPNS_16__tree_node_baseIPvEEEEvT_, symObjAddr: 0xA060, symBinAddr: 0x10000BE68, symSize: 0xD8 }
  - { offsetInCU: 0x15EEA, offset: 0x15EEA, size: 0x8, addend: 0x0, symName: __ZNSt3__119__tree_right_rotateB7v160006IPNS_16__tree_node_baseIPvEEEEvT_, symObjAddr: 0xA138, symBinAddr: 0x10000BF40, symSize: 0xCC }
  - { offsetInCU: 0x15F60, offset: 0x15F60, size: 0x8, addend: 0x0, symName: __ZNSt3__118__constexpr_strlenB7v160006EPKc, symObjAddr: 0xA6BC, symBinAddr: 0x10000C4C4, symSize: 0x24 }
  - { offsetInCU: 0x15F8C, offset: 0x15F8C, size: 0x8, addend: 0x0, symName: __ZNSt3__14swapB7v160006IPNS_10__function6__baseIFvRN8nlohmann16json_abi_v3_11_210basic_jsonINS_3mapENS_6vectorENS_12basic_stringIcNS_11char_traitsIcEENS_9allocatorIcEEEEbxydSB_NS4_14adl_serializerENS7_IhNSB_IhEEEEvEEEEEEENS_9enable_ifIXaasr21is_move_constructibleIT_EE5valuesr18is_move_assignableISN_EE5valueEvE4typeERSN_SQ_, symObjAddr: 0xB04C, symBinAddr: 0x10000CE54, symSize: 0x3C }
  - { offsetInCU: 0x15FDF, offset: 0x15FDF, size: 0x8, addend: 0x0, symName: __ZNSt3__125__throw_bad_function_callB7v160006Ev, symObjAddr: 0xB0E0, symBinAddr: 0x10000CEE8, symSize: 0x38 }
  - { offsetInCU: 0x1602F, offset: 0x1602F, size: 0x8, addend: 0x0, symName: __ZNSt3__1eqB7v160006IcNS_11char_traitsIcEENS_9allocatorIcEEEEbRKNS_12basic_stringIT_T0_T1_EEPKS6_, symObjAddr: 0xB210, symBinAddr: 0x10000D018, symSize: 0xAC }
  - { offsetInCU: 0x16096, offset: 0x16096, size: 0x8, addend: 0x0, symName: __ZNSt3__116__pad_and_outputB7v160006IcNS_11char_traitsIcEEEENS_19ostreambuf_iteratorIT_T0_EES6_PKS4_S8_S8_RNS_8ios_baseES4_, symObjAddr: 0xB4C4, symBinAddr: 0x10000D2CC, symSize: 0x240 }
  - { offsetInCU: 0x16166, offset: 0x16166, size: 0x8, addend: 0x0, symName: __ZNSt3__112__to_addressB7v160006IcEEPT_S2_, symObjAddr: 0xB93C, symBinAddr: 0x10000D744, symSize: 0x14 }
  - { offsetInCU: 0x161CE, offset: 0x161CE, size: 0x8, addend: 0x0, symName: __ZNSt3__19use_facetB7v160006INS_5ctypeIcEEEERKT_RKNS_6localeE, symObjAddr: 0xBB4C, symBinAddr: 0x10000D954, symSize: 0x2C }
  - { offsetInCU: 0x16E65, offset: 0x16E65, size: 0x8, addend: 0x0, symName: __ZSt28__throw_bad_array_new_lengthB7v160006v, symObjAddr: 0x1F48, symBinAddr: 0x100003D50, symSize: 0x34 }
  - { offsetInCU: 0x18252, offset: 0x18252, size: 0x8, addend: 0x0, symName: __ZNSt3__16vectorIN8nlohmann16json_abi_v3_11_210basic_jsonINS_3mapES0_NS_12basic_stringIcNS_11char_traitsIcEENS_9allocatorIcEEEEbxydS8_NS2_14adl_serializerENS0_IhNS8_IhEEEEvEENS8_ISE_EEE26__swap_out_circular_bufferERNS_14__split_bufferISE_RSF_EE, symObjAddr: 0x18C0, symBinAddr: 0x1000036C8, symSize: 0x118 }
  - { offsetInCU: 0x1AD50, offset: 0x1AD50, size: 0x8, addend: 0x0, symName: __ZN9CustomJob10setExecuteERKNSt3__18functionIFvRN8nlohmann16json_abi_v3_11_210basic_jsonINS0_3mapENS0_6vectorENS0_12basic_stringIcNS0_11char_traitsIcEENS0_9allocatorIcEEEEbxydSA_NS3_14adl_serializerENS6_IhNSA_IhEEEEvEEEEE, symObjAddr: 0x0, symBinAddr: 0x100001E08, symSize: 0x30 }
  - { offsetInCU: 0x1AD86, offset: 0x1AD86, size: 0x8, addend: 0x0, symName: __ZNSt3__18functionIFvRN8nlohmann16json_abi_v3_11_210basic_jsonINS_3mapENS_6vectorENS_12basic_stringIcNS_11char_traitsIcEENS_9allocatorIcEEEEbxydS9_NS2_14adl_serializerENS5_IhNS9_IhEEEEvEEEEaSERKSI_, symObjAddr: 0x30, symBinAddr: 0x100001E38, symSize: 0x84 }
  - { offsetInCU: 0x1ADBD, offset: 0x1ADBD, size: 0x8, addend: 0x0, symName: __ZN9CustomJob7executeERN8nlohmann16json_abi_v3_11_210basic_jsonINSt3__13mapENS3_6vectorENS3_12basic_stringIcNS3_11char_traitsIcEENS3_9allocatorIcEEEEbxydS9_NS1_14adl_serializerENS5_IhNS9_IhEEEEvEE, symObjAddr: 0xB4, symBinAddr: 0x100001EBC, symSize: 0x30 }
  - { offsetInCU: 0x1ADF3, offset: 0x1ADF3, size: 0x8, addend: 0x0, symName: __ZNKSt3__18functionIFvRN8nlohmann16json_abi_v3_11_210basic_jsonINS_3mapENS_6vectorENS_12basic_stringIcNS_11char_traitsIcEENS_9allocatorIcEEEEbxydS9_NS2_14adl_serializerENS5_IhNS9_IhEEEEvEEEEclESG_, symObjAddr: 0xE4, symBinAddr: 0x100001EEC, symSize: 0x2C }
  - { offsetInCU: 0x1AE2A, offset: 0x1AE2A, size: 0x8, addend: 0x0, symName: __ZN9CustomJob9setTypeIdEv, symObjAddr: 0x110, symBinAddr: 0x100001F18, symSize: 0x160 }
  - { offsetInCU: 0x1AE76, offset: 0x1AE76, size: 0x8, addend: 0x0, symName: __ZN8nlohmann16json_abi_v3_11_210basic_jsonINSt3__13mapENS2_6vectorENS2_12basic_stringIcNS2_11char_traitsIcEENS2_9allocatorIcEEEEbxydS8_NS0_14adl_serializerENS4_IhNS8_IhEEEEvEixIKcEERSE_PT_, symObjAddr: 0x270, symBinAddr: 0x100002078, symSize: 0x78 }
  - { offsetInCU: 0x1AEB4, offset: 0x1AEB4, size: 0x8, addend: 0x0, symName: __ZNK8nlohmann16json_abi_v3_11_210basic_jsonINSt3__13mapENS2_6vectorENS2_12basic_stringIcNS2_11char_traitsIcEENS2_9allocatorIcEEEEbxydS8_NS0_14adl_serializerENS4_IhNS8_IhEEEEvEcvT_ISA_Li0EEEv, symObjAddr: 0x2E8, symBinAddr: 0x1000020F0, symSize: 0x2C }
  - { offsetInCU: 0x1AEE9, offset: 0x1AEE9, size: 0x8, addend: 0x0, symName: __ZNSt3__112basic_stringIcNS_11char_traitsIcEENS_9allocatorIcEEEaSB7v160006EPKc, symObjAddr: 0x348, symBinAddr: 0x100002150, symSize: 0x2C }
  - { offsetInCU: 0x1AF1E, offset: 0x1AF1E, size: 0x8, addend: 0x0, symName: __ZNSt3__113basic_ostreamIcNS_11char_traitsIcEEElsB7v160006EPFRS3_S4_E, symObjAddr: 0x3BC, symBinAddr: 0x1000021C4, symSize: 0x2C }
  - { offsetInCU: 0x1AF52, offset: 0x1AF52, size: 0x8, addend: 0x0, symName: __ZN9CustomJobD1Ev, symObjAddr: 0x44C, symBinAddr: 0x100002254, symSize: 0x2C }
  - { offsetInCU: 0x1AF7C, offset: 0x1AF7C, size: 0x8, addend: 0x0, symName: __ZN9CustomJobD0Ev, symObjAddr: 0x478, symBinAddr: 0x100002280, symSize: 0x30 }
  - { offsetInCU: 0x1AFA6, offset: 0x1AFA6, size: 0x8, addend: 0x0, symName: __ZN3Job19jobCompleteCallbackEv, symObjAddr: 0x4A8, symBinAddr: 0x1000022B0, symSize: 0x10 }
  - { offsetInCU: 0x1AFCC, offset: 0x1AFCC, size: 0x8, addend: 0x0, symName: __ZN9CustomJobD2Ev, symObjAddr: 0x4B8, symBinAddr: 0x1000022C0, symSize: 0x48 }
  - { offsetInCU: 0x1AFF6, offset: 0x1AFF6, size: 0x8, addend: 0x0, symName: __ZNSt3__18functionIFvRN8nlohmann16json_abi_v3_11_210basic_jsonINS_3mapENS_6vectorENS_12basic_stringIcNS_11char_traitsIcEENS_9allocatorIcEEEEbxydS9_NS2_14adl_serializerENS5_IhNS9_IhEEEEvEEEED1Ev, symObjAddr: 0x500, symBinAddr: 0x100002308, symSize: 0x2C }
  - { offsetInCU: 0x1B022, offset: 0x1B022, size: 0x8, addend: 0x0, symName: __ZN3JobD2Ev, symObjAddr: 0x52C, symBinAddr: 0x100002334, symSize: 0x64 }
  - { offsetInCU: 0x1B04C, offset: 0x1B04C, size: 0x8, addend: 0x0, symName: __ZNSt3__18functionIFvRN8nlohmann16json_abi_v3_11_210basic_jsonINS_3mapENS_6vectorENS_12basic_stringIcNS_11char_traitsIcEENS_9allocatorIcEEEEbxydS9_NS2_14adl_serializerENS5_IhNS9_IhEEEEvEEEED2Ev, symObjAddr: 0x590, symBinAddr: 0x100002398, symSize: 0x2C }
  - { offsetInCU: 0x1B078, offset: 0x1B078, size: 0x8, addend: 0x0, symName: __ZNSt3__110__function12__value_funcIFvRN8nlohmann16json_abi_v3_11_210basic_jsonINS_3mapENS_6vectorENS_12basic_stringIcNS_11char_traitsIcEENS_9allocatorIcEEEEbxydSA_NS3_14adl_serializerENS6_IhNSA_IhEEEEvEEEED1B7v160006Ev, symObjAddr: 0x5BC, symBinAddr: 0x1000023C4, symSize: 0x2C }
  - { offsetInCU: 0x1B0A2, offset: 0x1B0A2, size: 0x8, addend: 0x0, symName: __ZNSt3__110__function12__value_funcIFvRN8nlohmann16json_abi_v3_11_210basic_jsonINS_3mapENS_6vectorENS_12basic_stringIcNS_11char_traitsIcEENS_9allocatorIcEEEEbxydSA_NS3_14adl_serializerENS6_IhNSA_IhEEEEvEEEED2B7v160006Ev, symObjAddr: 0x5E8, symBinAddr: 0x1000023F0, symSize: 0x90 }
  - { offsetInCU: 0x1B0CC, offset: 0x1B0CC, size: 0x8, addend: 0x0, symName: __ZN8nlohmann16json_abi_v3_11_210basic_jsonINSt3__13mapENS2_6vectorENS2_12basic_stringIcNS2_11char_traitsIcEENS2_9allocatorIcEEEEbxydS8_NS0_14adl_serializerENS4_IhNS8_IhEEEEvED1Ev, symObjAddr: 0x678, symBinAddr: 0x100002480, symSize: 0x2C }
  - { offsetInCU: 0x1B0F6, offset: 0x1B0F6, size: 0x8, addend: 0x0, symName: __ZNSt3__13mapINS_12basic_stringIcNS_11char_traitsIcEENS_9allocatorIcEEEENS_6vectorI5ErrorNS4_IS8_EEEENS_4lessIS6_EENS4_INS_4pairIKS6_SA_EEEEED1B7v160006Ev, symObjAddr: 0x6A4, symBinAddr: 0x1000024AC, symSize: 0x2C }
  - { offsetInCU: 0x1B120, offset: 0x1B120, size: 0x8, addend: 0x0, symName: __ZN3JobD1Ev, symObjAddr: 0x6D0, symBinAddr: 0x1000024D8, symSize: 0x14 }
  - { offsetInCU: 0x1B14A, offset: 0x1B14A, size: 0x8, addend: 0x0, symName: __ZN3JobD0Ev, symObjAddr: 0x6E4, symBinAddr: 0x1000024EC, symSize: 0xC }
  - { offsetInCU: 0x1B174, offset: 0x1B174, size: 0x8, addend: 0x0, symName: __ZN8nlohmann16json_abi_v3_11_210basic_jsonINSt3__13mapENS2_6vectorENS2_12basic_stringIcNS2_11char_traitsIcEENS2_9allocatorIcEEEEbxydS8_NS0_14adl_serializerENS4_IhNS8_IhEEEEvED2Ev, symObjAddr: 0x6F0, symBinAddr: 0x1000024F8, symSize: 0x3C }
  - { offsetInCU: 0x1B19E, offset: 0x1B19E, size: 0x8, addend: 0x0, symName: __ZNK8nlohmann16json_abi_v3_11_210basic_jsonINSt3__13mapENS2_6vectorENS2_12basic_stringIcNS2_11char_traitsIcEENS2_9allocatorIcEEEEbxydS8_NS0_14adl_serializerENS4_IhNS8_IhEEEEvE16assert_invariantEb, symObjAddr: 0x72C, symBinAddr: 0x100002534, symSize: 0x1F0 }
  - { offsetInCU: 0x1B1D3, offset: 0x1B1D3, size: 0x8, addend: 0x0, symName: __ZN8nlohmann16json_abi_v3_11_210basic_jsonINSt3__13mapENS2_6vectorENS2_12basic_stringIcNS2_11char_traitsIcEENS2_9allocatorIcEEEEbxydS8_NS0_14adl_serializerENS4_IhNS8_IhEEEEvE4dataD1Ev, symObjAddr: 0x91C, symBinAddr: 0x100002724, symSize: 0x2C }
  - { offsetInCU: 0x1B1FD, offset: 0x1B1FD, size: 0x8, addend: 0x0, symName: __ZN8nlohmann16json_abi_v3_11_210basic_jsonINSt3__13mapENS2_6vectorENS2_12basic_stringIcNS2_11char_traitsIcEENS2_9allocatorIcEEEEbxydS8_NS0_14adl_serializerENS4_IhNS8_IhEEEEvE4dataD2Ev, symObjAddr: 0x948, symBinAddr: 0x100002750, symSize: 0x3C }
  - { offsetInCU: 0x1B227, offset: 0x1B227, size: 0x8, addend: 0x0, symName: __ZN8nlohmann16json_abi_v3_11_210basic_jsonINSt3__13mapENS2_6vectorENS2_12basic_stringIcNS2_11char_traitsIcEENS2_9allocatorIcEEEEbxydS8_NS0_14adl_serializerENS4_IhNS8_IhEEEEvE10json_value7destroyENS0_6detail7value_tE, symObjAddr: 0x984, symBinAddr: 0x10000278C, symSize: 0x518 }
  - { offsetInCU: 0x1B3B3, offset: 0x1B3B3, size: 0x8, addend: 0x0, symName: __ZNSt3__16vectorIN8nlohmann16json_abi_v3_11_210basic_jsonINS_3mapES0_NS_12basic_stringIcNS_11char_traitsIcEENS_9allocatorIcEEEEbxydS8_NS2_14adl_serializerENS0_IhNS8_IhEEEEvEENS8_ISE_EEEC1B7v160006Ev, symObjAddr: 0xEC4, symBinAddr: 0x100002CCC, symSize: 0x2C }
  - { offsetInCU: 0x1B3DD, offset: 0x1B3DD, size: 0x8, addend: 0x0, symName: __ZNSt3__16vectorIN8nlohmann16json_abi_v3_11_210basic_jsonINS_3mapES0_NS_12basic_stringIcNS_11char_traitsIcEENS_9allocatorIcEEEEbxydS8_NS2_14adl_serializerENS0_IhNS8_IhEEEEvEENS8_ISE_EEE7reserveEm, symObjAddr: 0xEF0, symBinAddr: 0x100002CF8, symSize: 0xE8 }
  - { offsetInCU: 0x1B439, offset: 0x1B439, size: 0x8, addend: 0x0, symName: __ZNKSt3__16vectorIN8nlohmann16json_abi_v3_11_210basic_jsonINS_3mapES0_NS_12basic_stringIcNS_11char_traitsIcEENS_9allocatorIcEEEEbxydS8_NS2_14adl_serializerENS0_IhNS8_IhEEEEvEENS8_ISE_EEE4sizeB7v160006Ev, symObjAddr: 0xFD8, symBinAddr: 0x100002DE0, symSize: 0x28 }
  - { offsetInCU: 0x1B45F, offset: 0x1B45F, size: 0x8, addend: 0x0, symName: __ZNSt3__16vectorIN8nlohmann16json_abi_v3_11_210basic_jsonINS_3mapES0_NS_12basic_stringIcNS_11char_traitsIcEENS_9allocatorIcEEEEbxydS8_NS2_14adl_serializerENS0_IhNS8_IhEEEEvEENS8_ISE_EEE5beginB7v160006Ev, symObjAddr: 0x1060, symBinAddr: 0x100002E68, symSize: 0x30 }
  - { offsetInCU: 0x1B487, offset: 0x1B487, size: 0x8, addend: 0x0, symName: __ZNSt3__16vectorIN8nlohmann16json_abi_v3_11_210basic_jsonINS_3mapES0_NS_12basic_stringIcNS_11char_traitsIcEENS_9allocatorIcEEEEbxydS8_NS2_14adl_serializerENS0_IhNS8_IhEEEEvEENS8_ISE_EEE3endB7v160006Ev, symObjAddr: 0x1090, symBinAddr: 0x100002E98, symSize: 0x30 }
  - { offsetInCU: 0x1B4AF, offset: 0x1B4AF, size: 0x8, addend: 0x0, symName: __ZNKSt3__13mapINS_12basic_stringIcNS_11char_traitsIcEENS_9allocatorIcEEEEN8nlohmann16json_abi_v3_11_210basic_jsonIS0_NS_6vectorES6_bxydS4_NS8_14adl_serializerENSA_IhNS4_IhEEEEvEENS_4lessIvEENS4_INS_4pairIKS6_SE_EEEEE4sizeB7v160006Ev, symObjAddr: 0x10EC, symBinAddr: 0x100002EF4, symSize: 0x28 }
  - { offsetInCU: 0x1B4D5, offset: 0x1B4D5, size: 0x8, addend: 0x0, symName: __ZNSt3__13mapINS_12basic_stringIcNS_11char_traitsIcEENS_9allocatorIcEEEEN8nlohmann16json_abi_v3_11_210basic_jsonIS0_NS_6vectorES6_bxydS4_NS8_14adl_serializerENSA_IhNS4_IhEEEEvEENS_4lessIvEENS4_INS_4pairIKS6_SE_EEEEE5beginB7v160006Ev, symObjAddr: 0x1114, symBinAddr: 0x100002F1C, symSize: 0x38 }
  - { offsetInCU: 0x1B4FB, offset: 0x1B4FB, size: 0x8, addend: 0x0, symName: __ZNSt3__13mapINS_12basic_stringIcNS_11char_traitsIcEENS_9allocatorIcEEEEN8nlohmann16json_abi_v3_11_210basic_jsonIS0_NS_6vectorES6_bxydS4_NS8_14adl_serializerENSA_IhNS4_IhEEEEvEENS_4lessIvEENS4_INS_4pairIKS6_SE_EEEEE3endB7v160006Ev, symObjAddr: 0x114C, symBinAddr: 0x100002F54, symSize: 0x38 }
  - { offsetInCU: 0x1B521, offset: 0x1B521, size: 0x8, addend: 0x0, symName: __ZNKSt3__114__map_iteratorINS_15__tree_iteratorINS_12__value_typeINS_12basic_stringIcNS_11char_traitsIcEENS_9allocatorIcEEEEN8nlohmann16json_abi_v3_11_210basic_jsonINS_3mapENS_6vectorES8_bxydS6_NSA_14adl_serializerENSD_IhNS6_IhEEEEvEEEEPNS_11__tree_nodeISI_PvEElEEEdeB7v160006Ev, symObjAddr: 0x11B4, symBinAddr: 0x100002FBC, symSize: 0x28 }
  - { offsetInCU: 0x1B547, offset: 0x1B547, size: 0x8, addend: 0x0, symName: __ZNSt3__16vectorIN8nlohmann16json_abi_v3_11_210basic_jsonINS_3mapES0_NS_12basic_stringIcNS_11char_traitsIcEENS_9allocatorIcEEEEbxydS8_NS2_14adl_serializerENS0_IhNS8_IhEEEEvEENS8_ISE_EEE9push_backB7v160006EOSE_, symObjAddr: 0x11DC, symBinAddr: 0x100002FE4, symSize: 0x6C }
  - { offsetInCU: 0x1B57E, offset: 0x1B57E, size: 0x8, addend: 0x0, symName: __ZNSt3__114__map_iteratorINS_15__tree_iteratorINS_12__value_typeINS_12basic_stringIcNS_11char_traitsIcEENS_9allocatorIcEEEEN8nlohmann16json_abi_v3_11_210basic_jsonINS_3mapENS_6vectorES8_bxydS6_NSA_14adl_serializerENSD_IhNS6_IhEEEEvEEEEPNS_11__tree_nodeISI_PvEElEEEppB7v160006Ev, symObjAddr: 0x1248, symBinAddr: 0x100003050, symSize: 0x2C }
  - { offsetInCU: 0x1B5A4, offset: 0x1B5A4, size: 0x8, addend: 0x0, symName: __ZNKSt3__16vectorIN8nlohmann16json_abi_v3_11_210basic_jsonINS_3mapES0_NS_12basic_stringIcNS_11char_traitsIcEENS_9allocatorIcEEEEbxydS8_NS2_14adl_serializerENS0_IhNS8_IhEEEEvEENS8_ISE_EEE5emptyB7v160006Ev, symObjAddr: 0x1274, symBinAddr: 0x10000307C, symSize: 0x28 }
  - { offsetInCU: 0x1B5CA, offset: 0x1B5CA, size: 0x8, addend: 0x0, symName: __ZNSt3__16vectorIN8nlohmann16json_abi_v3_11_210basic_jsonINS_3mapES0_NS_12basic_stringIcNS_11char_traitsIcEENS_9allocatorIcEEEEbxydS8_NS2_14adl_serializerENS0_IhNS8_IhEEEEvEENS8_ISE_EEE4backB7v160006Ev, symObjAddr: 0x129C, symBinAddr: 0x1000030A4, symSize: 0x1C }
  - { offsetInCU: 0x1B5F0, offset: 0x1B5F0, size: 0x8, addend: 0x0, symName: __ZN8nlohmann16json_abi_v3_11_210basic_jsonINSt3__13mapENS2_6vectorENS2_12basic_stringIcNS2_11char_traitsIcEENS2_9allocatorIcEEEEbxydS8_NS0_14adl_serializerENS4_IhNS8_IhEEEEvEC1EOSE_, symObjAddr: 0x12B8, symBinAddr: 0x1000030C0, symSize: 0x34 }
  - { offsetInCU: 0x1B629, offset: 0x1B629, size: 0x8, addend: 0x0, symName: __ZNSt3__16vectorIN8nlohmann16json_abi_v3_11_210basic_jsonINS_3mapES0_NS_12basic_stringIcNS_11char_traitsIcEENS_9allocatorIcEEEEbxydS8_NS2_14adl_serializerENS0_IhNS8_IhEEEEvEENS8_ISE_EEE8pop_backEv, symObjAddr: 0x12EC, symBinAddr: 0x1000030F4, symSize: 0x2C }
  - { offsetInCU: 0x1B651, offset: 0x1B651, size: 0x8, addend: 0x0, symName: __ZNK8nlohmann16json_abi_v3_11_210basic_jsonINSt3__13mapENS2_6vectorENS2_12basic_stringIcNS2_11char_traitsIcEENS2_9allocatorIcEEEEbxydS8_NS0_14adl_serializerENS4_IhNS8_IhEEEEvE8is_arrayEv, symObjAddr: 0x1318, symBinAddr: 0x100003120, symSize: 0x24 }
  - { offsetInCU: 0x1B677, offset: 0x1B677, size: 0x8, addend: 0x0, symName: __ZNSt3__16vectorIN8nlohmann16json_abi_v3_11_210basic_jsonINS_3mapES0_NS_12basic_stringIcNS_11char_traitsIcEENS_9allocatorIcEEEEbxydS8_NS2_14adl_serializerENS0_IhNS8_IhEEEEvEENS8_ISE_EEE5clearB7v160006Ev, symObjAddr: 0x133C, symBinAddr: 0x100003144, symSize: 0x4C }
  - { offsetInCU: 0x1B6AC, offset: 0x1B6AC, size: 0x8, addend: 0x0, symName: __ZNK8nlohmann16json_abi_v3_11_210basic_jsonINSt3__13mapENS2_6vectorENS2_12basic_stringIcNS2_11char_traitsIcEENS2_9allocatorIcEEEEbxydS8_NS0_14adl_serializerENS4_IhNS8_IhEEEEvE9is_objectEv, symObjAddr: 0x1388, symBinAddr: 0x100003190, symSize: 0x24 }
  - { offsetInCU: 0x1B6D2, offset: 0x1B6D2, size: 0x8, addend: 0x0, symName: __ZNSt3__13mapINS_12basic_stringIcNS_11char_traitsIcEENS_9allocatorIcEEEEN8nlohmann16json_abi_v3_11_210basic_jsonIS0_NS_6vectorES6_bxydS4_NS8_14adl_serializerENSA_IhNS4_IhEEEEvEENS_4lessIvEENS4_INS_4pairIKS6_SE_EEEEE5clearB7v160006Ev, symObjAddr: 0x13AC, symBinAddr: 0x1000031B4, symSize: 0x24 }
  - { offsetInCU: 0x1B6F8, offset: 0x1B6F8, size: 0x8, addend: 0x0, symName: __ZNSt3__16vectorIN8nlohmann16json_abi_v3_11_210basic_jsonINS_3mapES0_NS_12basic_stringIcNS_11char_traitsIcEENS_9allocatorIcEEEEbxydS8_NS2_14adl_serializerENS0_IhNS8_IhEEEEvEENS8_ISE_EEED1B7v160006Ev, symObjAddr: 0x13D0, symBinAddr: 0x1000031D8, symSize: 0x2C }
  - { offsetInCU: 0x1B73F, offset: 0x1B73F, size: 0x8, addend: 0x0, symName: __ZNSt3__19allocatorINS_3mapINS_12basic_stringIcNS_11char_traitsIcEENS0_IcEEEEN8nlohmann16json_abi_v3_11_210basic_jsonIS1_NS_6vectorES6_bxydS0_NS8_14adl_serializerENSA_IhNS0_IhEEEEvEENS_4lessIvEENS0_INS_4pairIKS6_SE_EEEEEEEC1B7v160006Ev, symObjAddr: 0x13FC, symBinAddr: 0x100003204, symSize: 0x2C }
  - { offsetInCU: 0x1B76F, offset: 0x1B76F, size: 0x8, addend: 0x0, symName: __ZNSt3__116allocator_traitsINS_9allocatorINS_3mapINS_12basic_stringIcNS_11char_traitsIcEENS1_IcEEEEN8nlohmann16json_abi_v3_11_210basic_jsonIS2_NS_6vectorES7_bxydS1_NS9_14adl_serializerENSB_IhNS1_IhEEEEvEENS_4lessIvEENS1_INS_4pairIKS7_SF_EEEEEEEEE7destroyB7v160006ISM_vEEvRSN_PT_, symObjAddr: 0x1428, symBinAddr: 0x100003230, symSize: 0x2C }
  - { offsetInCU: 0x1B7AC, offset: 0x1B7AC, size: 0x8, addend: 0x0, symName: __ZNSt3__116allocator_traitsINS_9allocatorINS_3mapINS_12basic_stringIcNS_11char_traitsIcEENS1_IcEEEEN8nlohmann16json_abi_v3_11_210basic_jsonIS2_NS_6vectorES7_bxydS1_NS9_14adl_serializerENSB_IhNS1_IhEEEEvEENS_4lessIvEENS1_INS_4pairIKS7_SF_EEEEEEEEE10deallocateB7v160006ERSN_PSM_m, symObjAddr: 0x1454, symBinAddr: 0x10000325C, symSize: 0x34 }
  - { offsetInCU: 0x1B80B, offset: 0x1B80B, size: 0x8, addend: 0x0, symName: __ZNSt3__19allocatorINS_6vectorIN8nlohmann16json_abi_v3_11_210basic_jsonINS_3mapES1_NS_12basic_stringIcNS_11char_traitsIcEENS0_IcEEEEbxydS0_NS3_14adl_serializerENS1_IhNS0_IhEEEEvEENS0_ISE_EEEEEC1B7v160006Ev, symObjAddr: 0x1488, symBinAddr: 0x100003290, symSize: 0x2C }
  - { offsetInCU: 0x1B83B, offset: 0x1B83B, size: 0x8, addend: 0x0, symName: __ZNSt3__116allocator_traitsINS_9allocatorINS_6vectorIN8nlohmann16json_abi_v3_11_210basic_jsonINS_3mapES2_NS_12basic_stringIcNS_11char_traitsIcEENS1_IcEEEEbxydS1_NS4_14adl_serializerENS2_IhNS1_IhEEEEvEENS1_ISF_EEEEEEE7destroyB7v160006ISH_vEEvRSI_PT_, symObjAddr: 0x14B4, symBinAddr: 0x1000032BC, symSize: 0x2C }
  - { offsetInCU: 0x1B878, offset: 0x1B878, size: 0x8, addend: 0x0, symName: __ZNSt3__116allocator_traitsINS_9allocatorINS_6vectorIN8nlohmann16json_abi_v3_11_210basic_jsonINS_3mapES2_NS_12basic_stringIcNS_11char_traitsIcEENS1_IcEEEEbxydS1_NS4_14adl_serializerENS2_IhNS1_IhEEEEvEENS1_ISF_EEEEEEE10deallocateB7v160006ERSI_PSH_m, symObjAddr: 0x14E0, symBinAddr: 0x1000032E8, symSize: 0x34 }
  - { offsetInCU: 0x1B8BA, offset: 0x1B8BA, size: 0x8, addend: 0x0, symName: __ZNSt3__19allocatorINS_12basic_stringIcNS_11char_traitsIcEENS0_IcEEEEEC1B7v160006Ev, symObjAddr: 0x1514, symBinAddr: 0x10000331C, symSize: 0x2C }
  - { offsetInCU: 0x1B8E4, offset: 0x1B8E4, size: 0x8, addend: 0x0, symName: __ZNSt3__116allocator_traitsINS_9allocatorINS_12basic_stringIcNS_11char_traitsIcEENS1_IcEEEEEEE7destroyB7v160006IS6_vEEvRS7_PT_, symObjAddr: 0x1540, symBinAddr: 0x100003348, symSize: 0x2C }
  - { offsetInCU: 0x1B921, offset: 0x1B921, size: 0x8, addend: 0x0, symName: __ZNSt3__116allocator_traitsINS_9allocatorINS_12basic_stringIcNS_11char_traitsIcEENS1_IcEEEEEEE10deallocateB7v160006ERS7_PS6_m, symObjAddr: 0x156C, symBinAddr: 0x100003374, symSize: 0x34 }
  - { offsetInCU: 0x1B986, offset: 0x1B986, size: 0x8, addend: 0x0, symName: __ZNSt3__19allocatorIN8nlohmann16json_abi_v3_11_227byte_container_with_subtypeINS_6vectorIhNS0_IhEEEEEEEC1B7v160006Ev, symObjAddr: 0x15A0, symBinAddr: 0x1000033A8, symSize: 0x2C }
  - { offsetInCU: 0x1B9B6, offset: 0x1B9B6, size: 0x8, addend: 0x0, symName: __ZNSt3__116allocator_traitsINS_9allocatorIN8nlohmann16json_abi_v3_11_227byte_container_with_subtypeINS_6vectorIhNS1_IhEEEEEEEEE7destroyB7v160006IS8_vEEvRS9_PT_, symObjAddr: 0x15CC, symBinAddr: 0x1000033D4, symSize: 0x2C }
  - { offsetInCU: 0x1B9F3, offset: 0x1B9F3, size: 0x8, addend: 0x0, symName: __ZNSt3__116allocator_traitsINS_9allocatorIN8nlohmann16json_abi_v3_11_227byte_container_with_subtypeINS_6vectorIhNS1_IhEEEEEEEEE10deallocateB7v160006ERS9_PS8_m, symObjAddr: 0x15F8, symBinAddr: 0x100003400, symSize: 0x34 }
  - { offsetInCU: 0x1BA35, offset: 0x1BA35, size: 0x8, addend: 0x0, symName: __ZNSt3__16vectorIN8nlohmann16json_abi_v3_11_210basic_jsonINS_3mapES0_NS_12basic_stringIcNS_11char_traitsIcEENS_9allocatorIcEEEEbxydS8_NS2_14adl_serializerENS0_IhNS8_IhEEEEvEENS8_ISE_EEEC2B7v160006Ev, symObjAddr: 0x162C, symBinAddr: 0x100003434, symSize: 0x58 }
  - { offsetInCU: 0x1BA6B, offset: 0x1BA6B, size: 0x8, addend: 0x0, symName: __ZNSt3__117__compressed_pairIPN8nlohmann16json_abi_v3_11_210basic_jsonINS_3mapENS_6vectorENS_12basic_stringIcNS_11char_traitsIcEENS_9allocatorIcEEEEbxydS9_NS2_14adl_serializerENS5_IhNS9_IhEEEEvEENS9_ISF_EEEC1B7v160006IDnNS_18__default_init_tagEEEOT_OT0_, symObjAddr: 0x1684, symBinAddr: 0x10000348C, symSize: 0x3C }
  - { offsetInCU: 0x1BAC3, offset: 0x1BAC3, size: 0x8, addend: 0x0, symName: __ZNSt3__117__compressed_pairIPN8nlohmann16json_abi_v3_11_210basic_jsonINS_3mapENS_6vectorENS_12basic_stringIcNS_11char_traitsIcEENS_9allocatorIcEEEEbxydS9_NS2_14adl_serializerENS5_IhNS9_IhEEEEvEENS9_ISF_EEEC2B7v160006IDnNS_18__default_init_tagEEEOT_OT0_, symObjAddr: 0x16D0, symBinAddr: 0x1000034D8, symSize: 0x40 }
  - { offsetInCU: 0x1BB1B, offset: 0x1BB1B, size: 0x8, addend: 0x0, symName: __ZNSt3__122__compressed_pair_elemIPN8nlohmann16json_abi_v3_11_210basic_jsonINS_3mapENS_6vectorENS_12basic_stringIcNS_11char_traitsIcEENS_9allocatorIcEEEEbxydS9_NS2_14adl_serializerENS5_IhNS9_IhEEEEvEELi0ELb0EEC2B7v160006IDnvEEOT_, symObjAddr: 0x1710, symBinAddr: 0x100003518, symSize: 0x1C }
  - { offsetInCU: 0x1BB5D, offset: 0x1BB5D, size: 0x8, addend: 0x0, symName: __ZNSt3__122__compressed_pair_elemINS_9allocatorIN8nlohmann16json_abi_v3_11_210basic_jsonINS_3mapENS_6vectorENS_12basic_stringIcNS_11char_traitsIcEENS1_IcEEEEbxydS1_NS3_14adl_serializerENS6_IhNS1_IhEEEEvEEEELi1ELb1EEC2B7v160006ENS_18__default_init_tagE, symObjAddr: 0x172C, symBinAddr: 0x100003534, symSize: 0x2C }
  - { offsetInCU: 0x1BB92, offset: 0x1BB92, size: 0x8, addend: 0x0, symName: __ZNSt3__19allocatorIN8nlohmann16json_abi_v3_11_210basic_jsonINS_3mapENS_6vectorENS_12basic_stringIcNS_11char_traitsIcEENS0_IcEEEEbxydS0_NS2_14adl_serializerENS5_IhNS0_IhEEEEvEEEC2B7v160006Ev, symObjAddr: 0x1758, symBinAddr: 0x100003560, symSize: 0x2C }
  - { offsetInCU: 0x1BBBC, offset: 0x1BBBC, size: 0x8, addend: 0x0, symName: __ZNSt3__116__non_trivial_ifILb1ENS_9allocatorIN8nlohmann16json_abi_v3_11_210basic_jsonINS_3mapENS_6vectorENS_12basic_stringIcNS_11char_traitsIcEENS1_IcEEEEbxydS1_NS3_14adl_serializerENS6_IhNS1_IhEEEEvEEEEEC2B7v160006Ev, symObjAddr: 0x1784, symBinAddr: 0x10000358C, symSize: 0x14 }
  - { offsetInCU: 0x1BBE6, offset: 0x1BBE6, size: 0x8, addend: 0x0, symName: __ZNKSt3__16vectorIN8nlohmann16json_abi_v3_11_210basic_jsonINS_3mapES0_NS_12basic_stringIcNS_11char_traitsIcEENS_9allocatorIcEEEEbxydS8_NS2_14adl_serializerENS0_IhNS8_IhEEEEvEENS8_ISE_EEE8capacityB7v160006Ev, symObjAddr: 0x1798, symBinAddr: 0x1000035A0, symSize: 0x40 }
  - { offsetInCU: 0x1BC0C, offset: 0x1BC0C, size: 0x8, addend: 0x0, symName: __ZNKSt3__16vectorIN8nlohmann16json_abi_v3_11_210basic_jsonINS_3mapES0_NS_12basic_stringIcNS_11char_traitsIcEENS_9allocatorIcEEEEbxydS8_NS2_14adl_serializerENS0_IhNS8_IhEEEEvEENS8_ISE_EEE8max_sizeEv, symObjAddr: 0x17D8, symBinAddr: 0x1000035E0, symSize: 0x60 }
  - { offsetInCU: 0x1BC34, offset: 0x1BC34, size: 0x8, addend: 0x0, symName: __ZNKSt3__16vectorIN8nlohmann16json_abi_v3_11_210basic_jsonINS_3mapES0_NS_12basic_stringIcNS_11char_traitsIcEENS_9allocatorIcEEEEbxydS8_NS2_14adl_serializerENS0_IhNS8_IhEEEEvEENS8_ISE_EEE20__throw_length_errorB7v160006Ev, symObjAddr: 0x1838, symBinAddr: 0x100003640, symSize: 0x1C }
  - { offsetInCU: 0x1BC5A, offset: 0x1BC5A, size: 0x8, addend: 0x0, symName: __ZNSt3__16vectorIN8nlohmann16json_abi_v3_11_210basic_jsonINS_3mapES0_NS_12basic_stringIcNS_11char_traitsIcEENS_9allocatorIcEEEEbxydS8_NS2_14adl_serializerENS0_IhNS8_IhEEEEvEENS8_ISE_EEE7__allocB7v160006Ev, symObjAddr: 0x1854, symBinAddr: 0x10000365C, symSize: 0x28 }
  - { offsetInCU: 0x1BC80, offset: 0x1BC80, size: 0x8, addend: 0x0, symName: __ZNSt3__114__split_bufferIN8nlohmann16json_abi_v3_11_210basic_jsonINS_3mapENS_6vectorENS_12basic_stringIcNS_11char_traitsIcEENS_9allocatorIcEEEEbxydS9_NS2_14adl_serializerENS5_IhNS9_IhEEEEvEERNS9_ISF_EEEC1EmmSH_, symObjAddr: 0x187C, symBinAddr: 0x100003684, symSize: 0x44 }
  - { offsetInCU: 0x1BCD6, offset: 0x1BCD6, size: 0x8, addend: 0x0, symName: __ZNSt3__114__split_bufferIN8nlohmann16json_abi_v3_11_210basic_jsonINS_3mapENS_6vectorENS_12basic_stringIcNS_11char_traitsIcEENS_9allocatorIcEEEEbxydS9_NS2_14adl_serializerENS5_IhNS9_IhEEEEvEERNS9_ISF_EEED1Ev, symObjAddr: 0x19D8, symBinAddr: 0x1000037E0, symSize: 0x2C }
  - { offsetInCU: 0x1BD02, offset: 0x1BD02, size: 0x8, addend: 0x0, symName: __ZNKSt3__16vectorIN8nlohmann16json_abi_v3_11_210basic_jsonINS_3mapES0_NS_12basic_stringIcNS_11char_traitsIcEENS_9allocatorIcEEEEbxydS8_NS2_14adl_serializerENS0_IhNS8_IhEEEEvEENS8_ISE_EEE9__end_capB7v160006Ev, symObjAddr: 0x1A04, symBinAddr: 0x10000380C, symSize: 0x28 }
  - { offsetInCU: 0x1BD28, offset: 0x1BD28, size: 0x8, addend: 0x0, symName: __ZNKSt3__117__compressed_pairIPN8nlohmann16json_abi_v3_11_210basic_jsonINS_3mapENS_6vectorENS_12basic_stringIcNS_11char_traitsIcEENS_9allocatorIcEEEEbxydS9_NS2_14adl_serializerENS5_IhNS9_IhEEEEvEENS9_ISF_EEE5firstB7v160006Ev, symObjAddr: 0x1A2C, symBinAddr: 0x100003834, symSize: 0x24 }
  - { offsetInCU: 0x1BD4E, offset: 0x1BD4E, size: 0x8, addend: 0x0, symName: __ZNKSt3__122__compressed_pair_elemIPN8nlohmann16json_abi_v3_11_210basic_jsonINS_3mapENS_6vectorENS_12basic_stringIcNS_11char_traitsIcEENS_9allocatorIcEEEEbxydS9_NS2_14adl_serializerENS5_IhNS9_IhEEEEvEELi0ELb0EE5__getB7v160006Ev, symObjAddr: 0x1A50, symBinAddr: 0x100003858, symSize: 0x14 }
  - { offsetInCU: 0x1BD7F, offset: 0x1BD7F, size: 0x8, addend: 0x0, symName: __ZNSt3__116allocator_traitsINS_9allocatorIN8nlohmann16json_abi_v3_11_210basic_jsonINS_3mapENS_6vectorENS_12basic_stringIcNS_11char_traitsIcEENS1_IcEEEEbxydS1_NS3_14adl_serializerENS6_IhNS1_IhEEEEvEEEEE8max_sizeB7v160006ISG_vEEmRKSG_, symObjAddr: 0x1A90, symBinAddr: 0x100003898, symSize: 0x24 }
  - { offsetInCU: 0x1BDAD, offset: 0x1BDAD, size: 0x8, addend: 0x0, symName: __ZNKSt3__16vectorIN8nlohmann16json_abi_v3_11_210basic_jsonINS_3mapES0_NS_12basic_stringIcNS_11char_traitsIcEENS_9allocatorIcEEEEbxydS8_NS2_14adl_serializerENS0_IhNS8_IhEEEEvEENS8_ISE_EEE7__allocB7v160006Ev, symObjAddr: 0x1AB4, symBinAddr: 0x1000038BC, symSize: 0x28 }
  - { offsetInCU: 0x1BDD3, offset: 0x1BDD3, size: 0x8, addend: 0x0, symName: __ZNSt3__114numeric_limitsIlE3maxB7v160006Ev, symObjAddr: 0x1ADC, symBinAddr: 0x1000038E4, symSize: 0x14 }
  - { offsetInCU: 0x1BDF2, offset: 0x1BDF2, size: 0x8, addend: 0x0, symName: __ZNKSt3__16__lessImmEclB7v160006ERKmS3_, symObjAddr: 0x1B44, symBinAddr: 0x10000394C, symSize: 0x34 }
  - { offsetInCU: 0x1BE34, offset: 0x1BE34, size: 0x8, addend: 0x0, symName: __ZNKSt3__19allocatorIN8nlohmann16json_abi_v3_11_210basic_jsonINS_3mapENS_6vectorENS_12basic_stringIcNS_11char_traitsIcEENS0_IcEEEEbxydS0_NS2_14adl_serializerENS5_IhNS0_IhEEEEvEEE8max_sizeB7v160006Ev, symObjAddr: 0x1B78, symBinAddr: 0x100003980, symSize: 0x14 }
  - { offsetInCU: 0x1BE5A, offset: 0x1BE5A, size: 0x8, addend: 0x0, symName: __ZNKSt3__117__compressed_pairIPN8nlohmann16json_abi_v3_11_210basic_jsonINS_3mapENS_6vectorENS_12basic_stringIcNS_11char_traitsIcEENS_9allocatorIcEEEEbxydS9_NS2_14adl_serializerENS5_IhNS9_IhEEEEvEENS9_ISF_EEE6secondB7v160006Ev, symObjAddr: 0x1B8C, symBinAddr: 0x100003994, symSize: 0x24 }
  - { offsetInCU: 0x1BE80, offset: 0x1BE80, size: 0x8, addend: 0x0, symName: __ZNKSt3__122__compressed_pair_elemINS_9allocatorIN8nlohmann16json_abi_v3_11_210basic_jsonINS_3mapENS_6vectorENS_12basic_stringIcNS_11char_traitsIcEENS1_IcEEEEbxydS1_NS3_14adl_serializerENS6_IhNS1_IhEEEEvEEEELi1ELb1EE5__getB7v160006Ev, symObjAddr: 0x1BB0, symBinAddr: 0x1000039B8, symSize: 0x14 }
  - { offsetInCU: 0x1BEA6, offset: 0x1BEA6, size: 0x8, addend: 0x0, symName: __ZNSt3__123__libcpp_numeric_limitsIlLb1EE3maxB7v160006Ev, symObjAddr: 0x1BC4, symBinAddr: 0x1000039CC, symSize: 0x8 }
  - { offsetInCU: 0x1BEBA, offset: 0x1BEBA, size: 0x8, addend: 0x0, symName: __ZNSt12length_errorC1B7v160006EPKc, symObjAddr: 0x1C30, symBinAddr: 0x100003A38, symSize: 0x34 }
  - { offsetInCU: 0x1BEF2, offset: 0x1BEF2, size: 0x8, addend: 0x0, symName: __ZNSt12length_errorC2B7v160006EPKc, symObjAddr: 0x1C64, symBinAddr: 0x100003A6C, symSize: 0x4C }
  - { offsetInCU: 0x1BF2A, offset: 0x1BF2A, size: 0x8, addend: 0x0, symName: __ZNSt3__117__compressed_pairIPN8nlohmann16json_abi_v3_11_210basic_jsonINS_3mapENS_6vectorENS_12basic_stringIcNS_11char_traitsIcEENS_9allocatorIcEEEEbxydS9_NS2_14adl_serializerENS5_IhNS9_IhEEEEvEENS9_ISF_EEE6secondB7v160006Ev, symObjAddr: 0x1CB0, symBinAddr: 0x100003AB8, symSize: 0x24 }
  - { offsetInCU: 0x1BF50, offset: 0x1BF50, size: 0x8, addend: 0x0, symName: __ZNSt3__122__compressed_pair_elemINS_9allocatorIN8nlohmann16json_abi_v3_11_210basic_jsonINS_3mapENS_6vectorENS_12basic_stringIcNS_11char_traitsIcEENS1_IcEEEEbxydS1_NS3_14adl_serializerENS6_IhNS1_IhEEEEvEEEELi1ELb1EE5__getB7v160006Ev, symObjAddr: 0x1CD4, symBinAddr: 0x100003ADC, symSize: 0x14 }
  - { offsetInCU: 0x1BF76, offset: 0x1BF76, size: 0x8, addend: 0x0, symName: __ZNSt3__114__split_bufferIN8nlohmann16json_abi_v3_11_210basic_jsonINS_3mapENS_6vectorENS_12basic_stringIcNS_11char_traitsIcEENS_9allocatorIcEEEEbxydS9_NS2_14adl_serializerENS5_IhNS9_IhEEEEvEERNS9_ISF_EEEC2EmmSH_, symObjAddr: 0x1CE8, symBinAddr: 0x100003AF0, symSize: 0xD4 }
  - { offsetInCU: 0x1BFEA, offset: 0x1BFEA, size: 0x8, addend: 0x0, symName: __ZNSt3__117__compressed_pairIPN8nlohmann16json_abi_v3_11_210basic_jsonINS_3mapENS_6vectorENS_12basic_stringIcNS_11char_traitsIcEENS_9allocatorIcEEEEbxydS9_NS2_14adl_serializerENS5_IhNS9_IhEEEEvEERNS9_ISF_EEEC1B7v160006IDnSI_EEOT_OT0_, symObjAddr: 0x1DBC, symBinAddr: 0x100003BC4, symSize: 0x3C }
  - { offsetInCU: 0x1C042, offset: 0x1C042, size: 0x8, addend: 0x0, symName: __ZNSt3__114__split_bufferIN8nlohmann16json_abi_v3_11_210basic_jsonINS_3mapENS_6vectorENS_12basic_stringIcNS_11char_traitsIcEENS_9allocatorIcEEEEbxydS9_NS2_14adl_serializerENS5_IhNS9_IhEEEEvEERNS9_ISF_EEE7__allocB7v160006Ev, symObjAddr: 0x1E38, symBinAddr: 0x100003C40, symSize: 0x28 }
  - { offsetInCU: 0x1C068, offset: 0x1C068, size: 0x8, addend: 0x0, symName: __ZNSt3__114__split_bufferIN8nlohmann16json_abi_v3_11_210basic_jsonINS_3mapENS_6vectorENS_12basic_stringIcNS_11char_traitsIcEENS_9allocatorIcEEEEbxydS9_NS2_14adl_serializerENS5_IhNS9_IhEEEEvEERNS9_ISF_EEE9__end_capB7v160006Ev, symObjAddr: 0x1E60, symBinAddr: 0x100003C68, symSize: 0x28 }
  - { offsetInCU: 0x1C08E, offset: 0x1C08E, size: 0x8, addend: 0x0, symName: __ZNSt3__117__compressed_pairIPN8nlohmann16json_abi_v3_11_210basic_jsonINS_3mapENS_6vectorENS_12basic_stringIcNS_11char_traitsIcEENS_9allocatorIcEEEEbxydS9_NS2_14adl_serializerENS5_IhNS9_IhEEEEvEERNS9_ISF_EEEC2B7v160006IDnSI_EEOT_OT0_, symObjAddr: 0x1E88, symBinAddr: 0x100003C90, symSize: 0x48 }
  - { offsetInCU: 0x1C0E6, offset: 0x1C0E6, size: 0x8, addend: 0x0, symName: __ZNSt3__122__compressed_pair_elemIRNS_9allocatorIN8nlohmann16json_abi_v3_11_210basic_jsonINS_3mapENS_6vectorENS_12basic_stringIcNS_11char_traitsIcEENS1_IcEEEEbxydS1_NS3_14adl_serializerENS6_IhNS1_IhEEEEvEEEELi1ELb0EEC2B7v160006ISH_vEEOT_, symObjAddr: 0x1ED0, symBinAddr: 0x100003CD8, symSize: 0x20 }
  - { offsetInCU: 0x1C128, offset: 0x1C128, size: 0x8, addend: 0x0, symName: __ZNSt3__19allocatorIN8nlohmann16json_abi_v3_11_210basic_jsonINS_3mapENS_6vectorENS_12basic_stringIcNS_11char_traitsIcEENS0_IcEEEEbxydS0_NS2_14adl_serializerENS5_IhNS0_IhEEEEvEEE8allocateB7v160006Em, symObjAddr: 0x1EF0, symBinAddr: 0x100003CF8, symSize: 0x58 }
  - { offsetInCU: 0x1C15C, offset: 0x1C15C, size: 0x8, addend: 0x0, symName: __ZNSt3__117__compressed_pairIPN8nlohmann16json_abi_v3_11_210basic_jsonINS_3mapENS_6vectorENS_12basic_stringIcNS_11char_traitsIcEENS_9allocatorIcEEEEbxydS9_NS2_14adl_serializerENS5_IhNS9_IhEEEEvEERNS9_ISF_EEE6secondB7v160006Ev, symObjAddr: 0x204C, symBinAddr: 0x100003E54, symSize: 0x28 }
  - { offsetInCU: 0x1C182, offset: 0x1C182, size: 0x8, addend: 0x0, symName: __ZNSt3__122__compressed_pair_elemIRNS_9allocatorIN8nlohmann16json_abi_v3_11_210basic_jsonINS_3mapENS_6vectorENS_12basic_stringIcNS_11char_traitsIcEENS1_IcEEEEbxydS1_NS3_14adl_serializerENS6_IhNS1_IhEEEEvEEEELi1ELb0EE5__getB7v160006Ev, symObjAddr: 0x2074, symBinAddr: 0x100003E7C, symSize: 0x18 }
  - { offsetInCU: 0x1C1A8, offset: 0x1C1A8, size: 0x8, addend: 0x0, symName: __ZNSt3__117__compressed_pairIPN8nlohmann16json_abi_v3_11_210basic_jsonINS_3mapENS_6vectorENS_12basic_stringIcNS_11char_traitsIcEENS_9allocatorIcEEEEbxydS9_NS2_14adl_serializerENS5_IhNS9_IhEEEEvEERNS9_ISF_EEE5firstB7v160006Ev, symObjAddr: 0x208C, symBinAddr: 0x100003E94, symSize: 0x24 }
  - { offsetInCU: 0x1C1CE, offset: 0x1C1CE, size: 0x8, addend: 0x0, symName: __ZNSt3__122__compressed_pair_elemIPN8nlohmann16json_abi_v3_11_210basic_jsonINS_3mapENS_6vectorENS_12basic_stringIcNS_11char_traitsIcEENS_9allocatorIcEEEEbxydS9_NS2_14adl_serializerENS5_IhNS9_IhEEEEvEELi0ELb0EE5__getB7v160006Ev, symObjAddr: 0x20B0, symBinAddr: 0x100003EB8, symSize: 0x14 }
  - { offsetInCU: 0x1C1F4, offset: 0x1C1F4, size: 0x8, addend: 0x0, symName: __ZNKSt3__16vectorIN8nlohmann16json_abi_v3_11_210basic_jsonINS_3mapES0_NS_12basic_stringIcNS_11char_traitsIcEENS_9allocatorIcEEEEbxydS8_NS2_14adl_serializerENS0_IhNS8_IhEEEEvEENS8_ISE_EEE17__annotate_deleteB7v160006Ev, symObjAddr: 0x20C4, symBinAddr: 0x100003ECC, symSize: 0xB8 }
  - { offsetInCU: 0x1C21A, offset: 0x1C21A, size: 0x8, addend: 0x0, symName: __ZNSt3__116reverse_iteratorIPN8nlohmann16json_abi_v3_11_210basic_jsonINS_3mapENS_6vectorENS_12basic_stringIcNS_11char_traitsIcEENS_9allocatorIcEEEEbxydS9_NS2_14adl_serializerENS5_IhNS9_IhEEEEvEEEC1B7v160006ESG_, symObjAddr: 0x22A8, symBinAddr: 0x1000040B0, symSize: 0x34 }
  - { offsetInCU: 0x1C252, offset: 0x1C252, size: 0x8, addend: 0x0, symName: __ZNKSt3__116reverse_iteratorIPN8nlohmann16json_abi_v3_11_210basic_jsonINS_3mapENS_6vectorENS_12basic_stringIcNS_11char_traitsIcEENS_9allocatorIcEEEEbxydS9_NS2_14adl_serializerENS5_IhNS9_IhEEEEvEEE4baseB7v160006Ev, symObjAddr: 0x22DC, symBinAddr: 0x1000040E4, symSize: 0x18 }
  - { offsetInCU: 0x1C278, offset: 0x1C278, size: 0x8, addend: 0x0, symName: __ZNSt3__16vectorIN8nlohmann16json_abi_v3_11_210basic_jsonINS_3mapES0_NS_12basic_stringIcNS_11char_traitsIcEENS_9allocatorIcEEEEbxydS8_NS2_14adl_serializerENS0_IhNS8_IhEEEEvEENS8_ISE_EEE9__end_capB7v160006Ev, symObjAddr: 0x2330, symBinAddr: 0x100004138, symSize: 0x28 }
  - { offsetInCU: 0x1C29E, offset: 0x1C29E, size: 0x8, addend: 0x0, symName: __ZNKSt3__16vectorIN8nlohmann16json_abi_v3_11_210basic_jsonINS_3mapES0_NS_12basic_stringIcNS_11char_traitsIcEENS_9allocatorIcEEEEbxydS8_NS2_14adl_serializerENS0_IhNS8_IhEEEEvEENS8_ISE_EEE14__annotate_newB7v160006Em, symObjAddr: 0x2358, symBinAddr: 0x100004160, symSize: 0xAC }
  - { offsetInCU: 0x1C2D3, offset: 0x1C2D3, size: 0x8, addend: 0x0, symName: __ZNKSt3__16vectorIN8nlohmann16json_abi_v3_11_210basic_jsonINS_3mapES0_NS_12basic_stringIcNS_11char_traitsIcEENS_9allocatorIcEEEEbxydS8_NS2_14adl_serializerENS0_IhNS8_IhEEEEvEENS8_ISE_EEE31__annotate_contiguous_containerB7v160006EPKvSI_SI_SI_, symObjAddr: 0x2414, symBinAddr: 0x10000421C, symSize: 0x20 }
  - { offsetInCU: 0x1C325, offset: 0x1C325, size: 0x8, addend: 0x0, symName: __ZNKSt3__16vectorIN8nlohmann16json_abi_v3_11_210basic_jsonINS_3mapES0_NS_12basic_stringIcNS_11char_traitsIcEENS_9allocatorIcEEEEbxydS8_NS2_14adl_serializerENS0_IhNS8_IhEEEEvEENS8_ISE_EEE4dataB7v160006Ev, symObjAddr: 0x2434, symBinAddr: 0x10000423C, symSize: 0x28 }
  - { offsetInCU: 0x1C34B, offset: 0x1C34B, size: 0x8, addend: 0x0, symName: __ZNSt3__129_AllocatorDestroyRangeReverseINS_9allocatorIN8nlohmann16json_abi_v3_11_210basic_jsonINS_3mapENS_6vectorENS_12basic_stringIcNS_11char_traitsIcEENS1_IcEEEEbxydS1_NS3_14adl_serializerENS6_IhNS1_IhEEEEvEEEENS_16reverse_iteratorIPSF_EEEC1B7v160006ERSG_RSJ_SM_, symObjAddr: 0x24BC, symBinAddr: 0x1000042C4, symSize: 0x44 }
  - { offsetInCU: 0x1C3A2, offset: 0x1C3A2, size: 0x8, addend: 0x0, symName: __ZNSt3__116allocator_traitsINS_9allocatorIN8nlohmann16json_abi_v3_11_210basic_jsonINS_3mapENS_6vectorENS_12basic_stringIcNS_11char_traitsIcEENS1_IcEEEEbxydS1_NS3_14adl_serializerENS6_IhNS1_IhEEEEvEEEEE9constructB7v160006ISF_JSF_EvEEvRSG_PT_DpOT0_, symObjAddr: 0x2548, symBinAddr: 0x100004350, symSize: 0x34 }
  - { offsetInCU: 0x1C3F9, offset: 0x1C3F9, size: 0x8, addend: 0x0, symName: __ZNKSt3__116reverse_iteratorIPN8nlohmann16json_abi_v3_11_210basic_jsonINS_3mapENS_6vectorENS_12basic_stringIcNS_11char_traitsIcEENS_9allocatorIcEEEEbxydS9_NS2_14adl_serializerENS5_IhNS9_IhEEEEvEEEdeB7v160006Ev, symObjAddr: 0x25A0, symBinAddr: 0x1000043A8, symSize: 0x28 }
  - { offsetInCU: 0x1C42E, offset: 0x1C42E, size: 0x8, addend: 0x0, symName: __ZNSt3__116reverse_iteratorIPN8nlohmann16json_abi_v3_11_210basic_jsonINS_3mapENS_6vectorENS_12basic_stringIcNS_11char_traitsIcEENS_9allocatorIcEEEEbxydS9_NS2_14adl_serializerENS5_IhNS9_IhEEEEvEEEppB7v160006Ev, symObjAddr: 0x25C8, symBinAddr: 0x1000043D0, symSize: 0x20 }
  - { offsetInCU: 0x1C454, offset: 0x1C454, size: 0x8, addend: 0x0, symName: __ZNSt3__128__exception_guard_exceptionsINS_29_AllocatorDestroyRangeReverseINS_9allocatorIN8nlohmann16json_abi_v3_11_210basic_jsonINS_3mapENS_6vectorENS_12basic_stringIcNS_11char_traitsIcEENS2_IcEEEEbxydS2_NS4_14adl_serializerENS7_IhNS2_IhEEEEvEEEENS_16reverse_iteratorIPSG_EEEEE10__completeB7v160006Ev, symObjAddr: 0x25E8, symBinAddr: 0x1000043F0, symSize: 0x1C }
  - { offsetInCU: 0x1C47A, offset: 0x1C47A, size: 0x8, addend: 0x0, symName: __ZNSt3__128__exception_guard_exceptionsINS_29_AllocatorDestroyRangeReverseINS_9allocatorIN8nlohmann16json_abi_v3_11_210basic_jsonINS_3mapENS_6vectorENS_12basic_stringIcNS_11char_traitsIcEENS2_IcEEEEbxydS2_NS4_14adl_serializerENS7_IhNS2_IhEEEEvEEEENS_16reverse_iteratorIPSG_EEEEED1B7v160006Ev, symObjAddr: 0x2604, symBinAddr: 0x10000440C, symSize: 0x2C }
  - { offsetInCU: 0x1C4A4, offset: 0x1C4A4, size: 0x8, addend: 0x0, symName: __ZNSt3__128__exception_guard_exceptionsINS_29_AllocatorDestroyRangeReverseINS_9allocatorIN8nlohmann16json_abi_v3_11_210basic_jsonINS_3mapENS_6vectorENS_12basic_stringIcNS_11char_traitsIcEENS2_IcEEEEbxydS2_NS4_14adl_serializerENS7_IhNS2_IhEEEEvEEEENS_16reverse_iteratorIPSG_EEEEEC1B7v160006ESL_, symObjAddr: 0x2630, symBinAddr: 0x100004438, symSize: 0x34 }
  - { offsetInCU: 0x1C4DD, offset: 0x1C4DD, size: 0x8, addend: 0x0, symName: __ZNSt3__128__exception_guard_exceptionsINS_29_AllocatorDestroyRangeReverseINS_9allocatorIN8nlohmann16json_abi_v3_11_210basic_jsonINS_3mapENS_6vectorENS_12basic_stringIcNS_11char_traitsIcEENS2_IcEEEEbxydS2_NS4_14adl_serializerENS7_IhNS2_IhEEEEvEEEENS_16reverse_iteratorIPSG_EEEEEC2B7v160006ESL_, symObjAddr: 0x2664, symBinAddr: 0x10000446C, symSize: 0x30 }
  - { offsetInCU: 0x1C516, offset: 0x1C516, size: 0x8, addend: 0x0, symName: __ZNSt3__129_AllocatorDestroyRangeReverseINS_9allocatorIN8nlohmann16json_abi_v3_11_210basic_jsonINS_3mapENS_6vectorENS_12basic_stringIcNS_11char_traitsIcEENS1_IcEEEEbxydS1_NS3_14adl_serializerENS6_IhNS1_IhEEEEvEEEENS_16reverse_iteratorIPSF_EEEC2B7v160006ERSG_RSJ_SM_, symObjAddr: 0x2694, symBinAddr: 0x10000449C, symSize: 0x38 }
  - { offsetInCU: 0x1C56D, offset: 0x1C56D, size: 0x8, addend: 0x0, symName: __ZNSt3__19allocatorIN8nlohmann16json_abi_v3_11_210basic_jsonINS_3mapENS_6vectorENS_12basic_stringIcNS_11char_traitsIcEENS0_IcEEEEbxydS0_NS2_14adl_serializerENS5_IhNS0_IhEEEEvEEE9constructB7v160006ISE_JSE_EEEvPT_DpOT0_, symObjAddr: 0x26CC, symBinAddr: 0x1000044D4, symSize: 0x30 }
  - { offsetInCU: 0x1C5C9, offset: 0x1C5C9, size: 0x8, addend: 0x0, symName: __ZNSt3__119__to_address_helperINS_16reverse_iteratorIPN8nlohmann16json_abi_v3_11_210basic_jsonINS_3mapENS_6vectorENS_12basic_stringIcNS_11char_traitsIcEENS_9allocatorIcEEEEbxydSA_NS3_14adl_serializerENS6_IhNSA_IhEEEEvEEEEvE6__callB7v160006ERKSI_, symObjAddr: 0x26FC, symBinAddr: 0x100004504, symSize: 0x38 }
  - { offsetInCU: 0x1C5EC, offset: 0x1C5EC, size: 0x8, addend: 0x0, symName: __ZNKSt3__116reverse_iteratorIPN8nlohmann16json_abi_v3_11_210basic_jsonINS_3mapENS_6vectorENS_12basic_stringIcNS_11char_traitsIcEENS_9allocatorIcEEEEbxydS9_NS2_14adl_serializerENS5_IhNS9_IhEEEEvEEEptB7v160006Ev, symObjAddr: 0x2734, symBinAddr: 0x10000453C, symSize: 0x24 }
  - { offsetInCU: 0x1C612, offset: 0x1C612, size: 0x8, addend: 0x0, symName: __ZNSt3__128__exception_guard_exceptionsINS_29_AllocatorDestroyRangeReverseINS_9allocatorIN8nlohmann16json_abi_v3_11_210basic_jsonINS_3mapENS_6vectorENS_12basic_stringIcNS_11char_traitsIcEENS2_IcEEEEbxydS2_NS4_14adl_serializerENS7_IhNS2_IhEEEEvEEEENS_16reverse_iteratorIPSG_EEEEED2B7v160006Ev, symObjAddr: 0x2758, symBinAddr: 0x100004560, symSize: 0x50 }
  - { offsetInCU: 0x1C63C, offset: 0x1C63C, size: 0x8, addend: 0x0, symName: __ZNKSt3__129_AllocatorDestroyRangeReverseINS_9allocatorIN8nlohmann16json_abi_v3_11_210basic_jsonINS_3mapENS_6vectorENS_12basic_stringIcNS_11char_traitsIcEENS1_IcEEEEbxydS1_NS3_14adl_serializerENS6_IhNS1_IhEEEEvEEEENS_16reverse_iteratorIPSF_EEEclB7v160006Ev, symObjAddr: 0x27A8, symBinAddr: 0x1000045B0, symSize: 0xB4 }
  - { offsetInCU: 0x1C663, offset: 0x1C663, size: 0x8, addend: 0x0, symName: __ZNSt3__116reverse_iteratorINS0_IPN8nlohmann16json_abi_v3_11_210basic_jsonINS_3mapENS_6vectorENS_12basic_stringIcNS_11char_traitsIcEENS_9allocatorIcEEEEbxydS9_NS2_14adl_serializerENS5_IhNS9_IhEEEEvEEEEEC1B7v160006ESH_, symObjAddr: 0x28CC, symBinAddr: 0x1000046D4, symSize: 0x3C }
  - { offsetInCU: 0x1C69B, offset: 0x1C69B, size: 0x8, addend: 0x0, symName: __ZNSt3__116allocator_traitsINS_9allocatorIN8nlohmann16json_abi_v3_11_210basic_jsonINS_3mapENS_6vectorENS_12basic_stringIcNS_11char_traitsIcEENS1_IcEEEEbxydS1_NS3_14adl_serializerENS6_IhNS1_IhEEEEvEEEEE7destroyB7v160006ISF_vEEvRSG_PT_, symObjAddr: 0x2968, symBinAddr: 0x100004770, symSize: 0x2C }
  - { offsetInCU: 0x1C6D8, offset: 0x1C6D8, size: 0x8, addend: 0x0, symName: __ZNSt3__116reverse_iteratorINS0_IPN8nlohmann16json_abi_v3_11_210basic_jsonINS_3mapENS_6vectorENS_12basic_stringIcNS_11char_traitsIcEENS_9allocatorIcEEEEbxydS9_NS2_14adl_serializerENS5_IhNS9_IhEEEEvEEEEEppB7v160006Ev, symObjAddr: 0x29B8, symBinAddr: 0x1000047C0, symSize: 0x30 }
  - { offsetInCU: 0x1C6FE, offset: 0x1C6FE, size: 0x8, addend: 0x0, symName: __ZNKSt3__116reverse_iteratorINS0_IPN8nlohmann16json_abi_v3_11_210basic_jsonINS_3mapENS_6vectorENS_12basic_stringIcNS_11char_traitsIcEENS_9allocatorIcEEEEbxydS9_NS2_14adl_serializerENS5_IhNS9_IhEEEEvEEEEE4baseB7v160006Ev, symObjAddr: 0x29E8, symBinAddr: 0x1000047F0, symSize: 0x24 }
  - { offsetInCU: 0x1C724, offset: 0x1C724, size: 0x8, addend: 0x0, symName: __ZNSt3__19allocatorIN8nlohmann16json_abi_v3_11_210basic_jsonINS_3mapENS_6vectorENS_12basic_stringIcNS_11char_traitsIcEENS0_IcEEEEbxydS0_NS2_14adl_serializerENS5_IhNS0_IhEEEEvEEE7destroyB7v160006EPSE_, symObjAddr: 0x2A0C, symBinAddr: 0x100004814, symSize: 0x28 }
  - { offsetInCU: 0x1C75E, offset: 0x1C75E, size: 0x8, addend: 0x0, symName: __ZNSt3__119__to_address_helperINS_16reverse_iteratorINS1_IPN8nlohmann16json_abi_v3_11_210basic_jsonINS_3mapENS_6vectorENS_12basic_stringIcNS_11char_traitsIcEENS_9allocatorIcEEEEbxydSA_NS3_14adl_serializerENS6_IhNSA_IhEEEEvEEEEEEvE6__callB7v160006ERKSJ_, symObjAddr: 0x2A34, symBinAddr: 0x10000483C, symSize: 0x38 }
  - { offsetInCU: 0x1C781, offset: 0x1C781, size: 0x8, addend: 0x0, symName: __ZNKSt3__116reverse_iteratorINS0_IPN8nlohmann16json_abi_v3_11_210basic_jsonINS_3mapENS_6vectorENS_12basic_stringIcNS_11char_traitsIcEENS_9allocatorIcEEEEbxydS9_NS2_14adl_serializerENS5_IhNS9_IhEEEEvEEEEEptB7v160006Ev, symObjAddr: 0x2A6C, symBinAddr: 0x100004874, symSize: 0x24 }
  - { offsetInCU: 0x1C7A7, offset: 0x1C7A7, size: 0x8, addend: 0x0, symName: __ZNKSt3__116reverse_iteratorINS0_IPN8nlohmann16json_abi_v3_11_210basic_jsonINS_3mapENS_6vectorENS_12basic_stringIcNS_11char_traitsIcEENS_9allocatorIcEEEEbxydS9_NS2_14adl_serializerENS5_IhNS9_IhEEEEvEEEEEdeB7v160006Ev, symObjAddr: 0x2A90, symBinAddr: 0x100004898, symSize: 0x34 }
  - { offsetInCU: 0x1C7DC, offset: 0x1C7DC, size: 0x8, addend: 0x0, symName: __ZNSt3__116reverse_iteratorIPN8nlohmann16json_abi_v3_11_210basic_jsonINS_3mapENS_6vectorENS_12basic_stringIcNS_11char_traitsIcEENS_9allocatorIcEEEEbxydS9_NS2_14adl_serializerENS5_IhNS9_IhEEEEvEEEmmB7v160006Ev, symObjAddr: 0x2AC4, symBinAddr: 0x1000048CC, symSize: 0x20 }
  - { offsetInCU: 0x1C802, offset: 0x1C802, size: 0x8, addend: 0x0, symName: __ZNSt3__116reverse_iteratorINS0_IPN8nlohmann16json_abi_v3_11_210basic_jsonINS_3mapENS_6vectorENS_12basic_stringIcNS_11char_traitsIcEENS_9allocatorIcEEEEbxydS9_NS2_14adl_serializerENS5_IhNS9_IhEEEEvEEEEEC2B7v160006ESH_, symObjAddr: 0x2AE4, symBinAddr: 0x1000048EC, symSize: 0x2C }
  - { offsetInCU: 0x1C83A, offset: 0x1C83A, size: 0x8, addend: 0x0, symName: __ZNSt3__116reverse_iteratorIPN8nlohmann16json_abi_v3_11_210basic_jsonINS_3mapENS_6vectorENS_12basic_stringIcNS_11char_traitsIcEENS_9allocatorIcEEEEbxydS9_NS2_14adl_serializerENS5_IhNS9_IhEEEEvEEEC2B7v160006ESG_, symObjAddr: 0x2B10, symBinAddr: 0x100004918, symSize: 0x28 }
  - { offsetInCU: 0x1C872, offset: 0x1C872, size: 0x8, addend: 0x0, symName: __ZNSt3__117__compressed_pairIPN8nlohmann16json_abi_v3_11_210basic_jsonINS_3mapENS_6vectorENS_12basic_stringIcNS_11char_traitsIcEENS_9allocatorIcEEEEbxydS9_NS2_14adl_serializerENS5_IhNS9_IhEEEEvEENS9_ISF_EEE5firstB7v160006Ev, symObjAddr: 0x2B38, symBinAddr: 0x100004940, symSize: 0x24 }
  - { offsetInCU: 0x1C898, offset: 0x1C898, size: 0x8, addend: 0x0, symName: __ZNSt3__114__split_bufferIN8nlohmann16json_abi_v3_11_210basic_jsonINS_3mapENS_6vectorENS_12basic_stringIcNS_11char_traitsIcEENS_9allocatorIcEEEEbxydS9_NS2_14adl_serializerENS5_IhNS9_IhEEEEvEERNS9_ISF_EEED2Ev, symObjAddr: 0x2B5C, symBinAddr: 0x100004964, symSize: 0x8C }
  - { offsetInCU: 0x1C8C4, offset: 0x1C8C4, size: 0x8, addend: 0x0, symName: __ZNSt3__114__split_bufferIN8nlohmann16json_abi_v3_11_210basic_jsonINS_3mapENS_6vectorENS_12basic_stringIcNS_11char_traitsIcEENS_9allocatorIcEEEEbxydS9_NS2_14adl_serializerENS5_IhNS9_IhEEEEvEERNS9_ISF_EEE5clearB7v160006Ev, symObjAddr: 0x2BE8, symBinAddr: 0x1000049F0, symSize: 0x28 }
  - { offsetInCU: 0x1C8EA, offset: 0x1C8EA, size: 0x8, addend: 0x0, symName: __ZNSt3__116allocator_traitsINS_9allocatorIN8nlohmann16json_abi_v3_11_210basic_jsonINS_3mapENS_6vectorENS_12basic_stringIcNS_11char_traitsIcEENS1_IcEEEEbxydS1_NS3_14adl_serializerENS6_IhNS1_IhEEEEvEEEEE10deallocateB7v160006ERSG_PSF_m, symObjAddr: 0x2C10, symBinAddr: 0x100004A18, symSize: 0x34 }
  - { offsetInCU: 0x1C92C, offset: 0x1C92C, size: 0x8, addend: 0x0, symName: __ZNKSt3__114__split_bufferIN8nlohmann16json_abi_v3_11_210basic_jsonINS_3mapENS_6vectorENS_12basic_stringIcNS_11char_traitsIcEENS_9allocatorIcEEEEbxydS9_NS2_14adl_serializerENS5_IhNS9_IhEEEEvEERNS9_ISF_EEE8capacityB7v160006Ev, symObjAddr: 0x2C44, symBinAddr: 0x100004A4C, symSize: 0x40 }
  - { offsetInCU: 0x1C952, offset: 0x1C952, size: 0x8, addend: 0x0, symName: __ZNSt3__114__split_bufferIN8nlohmann16json_abi_v3_11_210basic_jsonINS_3mapENS_6vectorENS_12basic_stringIcNS_11char_traitsIcEENS_9allocatorIcEEEEbxydS9_NS2_14adl_serializerENS5_IhNS9_IhEEEEvEERNS9_ISF_EEE17__destruct_at_endB7v160006EPSF_, symObjAddr: 0x2C84, symBinAddr: 0x100004A8C, symSize: 0x2C }
  - { offsetInCU: 0x1C986, offset: 0x1C986, size: 0x8, addend: 0x0, symName: __ZNSt3__114__split_bufferIN8nlohmann16json_abi_v3_11_210basic_jsonINS_3mapENS_6vectorENS_12basic_stringIcNS_11char_traitsIcEENS_9allocatorIcEEEEbxydS9_NS2_14adl_serializerENS5_IhNS9_IhEEEEvEERNS9_ISF_EEE17__destruct_at_endB7v160006EPSF_NS_17integral_constantIbLb0EEE, symObjAddr: 0x2CB0, symBinAddr: 0x100004AB8, symSize: 0x80 }
  - { offsetInCU: 0x1C9C7, offset: 0x1C9C7, size: 0x8, addend: 0x0, symName: __ZNSt3__19allocatorIN8nlohmann16json_abi_v3_11_210basic_jsonINS_3mapENS_6vectorENS_12basic_stringIcNS_11char_traitsIcEENS0_IcEEEEbxydS0_NS2_14adl_serializerENS5_IhNS0_IhEEEEvEEE10deallocateB7v160006EPSE_m, symObjAddr: 0x2D30, symBinAddr: 0x100004B38, symSize: 0x40 }
  - { offsetInCU: 0x1CA09, offset: 0x1CA09, size: 0x8, addend: 0x0, symName: __ZNKSt3__114__split_bufferIN8nlohmann16json_abi_v3_11_210basic_jsonINS_3mapENS_6vectorENS_12basic_stringIcNS_11char_traitsIcEENS_9allocatorIcEEEEbxydS9_NS2_14adl_serializerENS5_IhNS9_IhEEEEvEERNS9_ISF_EEE9__end_capB7v160006Ev, symObjAddr: 0x2E78, symBinAddr: 0x100004C80, symSize: 0x28 }
  - { offsetInCU: 0x1CA2F, offset: 0x1CA2F, size: 0x8, addend: 0x0, symName: __ZNKSt3__117__compressed_pairIPN8nlohmann16json_abi_v3_11_210basic_jsonINS_3mapENS_6vectorENS_12basic_stringIcNS_11char_traitsIcEENS_9allocatorIcEEEEbxydS9_NS2_14adl_serializerENS5_IhNS9_IhEEEEvEERNS9_ISF_EEE5firstB7v160006Ev, symObjAddr: 0x2EA0, symBinAddr: 0x100004CA8, symSize: 0x24 }
  - { offsetInCU: 0x1CA7D, offset: 0x1CA7D, size: 0x8, addend: 0x0, symName: __ZNKSt3__111__move_loopINS_17_ClassicAlgPolicyEEclB7v160006IPN8nlohmann16json_abi_v3_11_210basic_jsonINS_3mapENS_6vectorENS_12basic_stringIcNS_11char_traitsIcEENS_9allocatorIcEEEEbxydSC_NS5_14adl_serializerENS8_IhNSC_IhEEEEvEESJ_NS_20back_insert_iteratorINS8_ISI_NSC_ISI_EEEEEEEENS_4pairIT_T1_EESP_T0_SQ_, symObjAddr: 0x30D4, symBinAddr: 0x100004EDC, symSize: 0x98 }
  - { offsetInCU: 0x1CB0B, offset: 0x1CB0B, size: 0x8, addend: 0x0, symName: __ZNSt3__14pairIPN8nlohmann16json_abi_v3_11_210basic_jsonINS_3mapENS_6vectorENS_12basic_stringIcNS_11char_traitsIcEENS_9allocatorIcEEEEbxydS9_NS2_14adl_serializerENS5_IhNS9_IhEEEEvEESG_EC1B7v160006ISG_SG_LPv0EEEOT_OT0_, symObjAddr: 0x32CC, symBinAddr: 0x1000050D4, symSize: 0x3C }
  - { offsetInCU: 0x1CB69, offset: 0x1CB69, size: 0x8, addend: 0x0, symName: __ZNSt3__14pairIPN8nlohmann16json_abi_v3_11_210basic_jsonINS_3mapENS_6vectorENS_12basic_stringIcNS_11char_traitsIcEENS_9allocatorIcEEEEbxydS9_NS2_14adl_serializerENS5_IhNS9_IhEEEEvEESG_EC2B7v160006ISG_SG_LPv0EEEOT_OT0_, symObjAddr: 0x3308, symBinAddr: 0x100005110, symSize: 0x34 }
  - { offsetInCU: 0x1CBC7, offset: 0x1CBC7, size: 0x8, addend: 0x0, symName: __ZNSt3__118__unwrap_iter_implINS_11__wrap_iterIPN8nlohmann16json_abi_v3_11_210basic_jsonINS_3mapENS_6vectorENS_12basic_stringIcNS_11char_traitsIcEENS_9allocatorIcEEEEbxydSA_NS3_14adl_serializerENS6_IhNSA_IhEEEEvEEEELb1EE8__unwrapB7v160006ESI_, symObjAddr: 0x333C, symBinAddr: 0x100005144, symSize: 0x28 }
  - { offsetInCU: 0x1CBF6, offset: 0x1CBF6, size: 0x8, addend: 0x0, symName: __ZNSt3__119__to_address_helperINS_11__wrap_iterIPN8nlohmann16json_abi_v3_11_210basic_jsonINS_3mapENS_6vectorENS_12basic_stringIcNS_11char_traitsIcEENS_9allocatorIcEEEEbxydSA_NS3_14adl_serializerENS6_IhNSA_IhEEEEvEEEEvE6__callB7v160006ERKSI_, symObjAddr: 0x3388, symBinAddr: 0x100005190, symSize: 0x30 }
  - { offsetInCU: 0x1CC19, offset: 0x1CC19, size: 0x8, addend: 0x0, symName: __ZNSt3__114pointer_traitsINS_11__wrap_iterIPN8nlohmann16json_abi_v3_11_210basic_jsonINS_3mapENS_6vectorENS_12basic_stringIcNS_11char_traitsIcEENS_9allocatorIcEEEEbxydSA_NS3_14adl_serializerENS6_IhNSA_IhEEEEvEEEEE10to_addressB7v160006ESI_, symObjAddr: 0x33B8, symBinAddr: 0x1000051C0, symSize: 0x2C }
  - { offsetInCU: 0x1CC3D, offset: 0x1CC3D, size: 0x8, addend: 0x0, symName: __ZNKSt3__111__wrap_iterIPN8nlohmann16json_abi_v3_11_210basic_jsonINS_3mapENS_6vectorENS_12basic_stringIcNS_11char_traitsIcEENS_9allocatorIcEEEEbxydS9_NS2_14adl_serializerENS5_IhNS9_IhEEEEvEEE4baseB7v160006Ev, symObjAddr: 0x33E4, symBinAddr: 0x1000051EC, symSize: 0x18 }
  - { offsetInCU: 0x1CC63, offset: 0x1CC63, size: 0x8, addend: 0x0, symName: __ZNSt3__18_IterOpsINS_17_ClassicAlgPolicyEE11__iter_moveB7v160006IRPN8nlohmann16json_abi_v3_11_210basic_jsonINS_3mapENS_6vectorENS_12basic_stringIcNS_11char_traitsIcEENS_9allocatorIcEEEEbxydSC_NS5_14adl_serializerENS8_IhNSC_IhEEEEvEEEENS_9enable_ifIXsr12is_referenceIDTdeclsr3stdE7declvalIRT_EEEEE5valueEDTclsr3stdE4movedeclsr3stdE7declvalISN_EEEEE4typeEOSM_, symObjAddr: 0x33FC, symBinAddr: 0x100005204, symSize: 0x28 }
  - { offsetInCU: 0x1CC8F, offset: 0x1CC8F, size: 0x8, addend: 0x0, symName: __ZNSt3__120back_insert_iteratorINS_6vectorIN8nlohmann16json_abi_v3_11_210basic_jsonINS_3mapES1_NS_12basic_stringIcNS_11char_traitsIcEENS_9allocatorIcEEEEbxydS9_NS3_14adl_serializerENS1_IhNS9_IhEEEEvEENS9_ISF_EEEEEdeB7v160006Ev, symObjAddr: 0x3424, symBinAddr: 0x10000522C, symSize: 0x14 }
  - { offsetInCU: 0x1CCB5, offset: 0x1CCB5, size: 0x8, addend: 0x0, symName: __ZNSt3__120back_insert_iteratorINS_6vectorIN8nlohmann16json_abi_v3_11_210basic_jsonINS_3mapES1_NS_12basic_stringIcNS_11char_traitsIcEENS_9allocatorIcEEEEbxydS9_NS3_14adl_serializerENS1_IhNS9_IhEEEEvEENS9_ISF_EEEEEaSB7v160006EOSF_, symObjAddr: 0x3438, symBinAddr: 0x100005240, symSize: 0x38 }
  - { offsetInCU: 0x1CCE9, offset: 0x1CCE9, size: 0x8, addend: 0x0, symName: __ZNSt3__120back_insert_iteratorINS_6vectorIN8nlohmann16json_abi_v3_11_210basic_jsonINS_3mapES1_NS_12basic_stringIcNS_11char_traitsIcEENS_9allocatorIcEEEEbxydS9_NS3_14adl_serializerENS1_IhNS9_IhEEEEvEENS9_ISF_EEEEEppB7v160006Ev, symObjAddr: 0x3470, symBinAddr: 0x100005278, symSize: 0x14 }
  - { offsetInCU: 0x1CD0F, offset: 0x1CD0F, size: 0x8, addend: 0x0, symName: __ZNSt3__18_IterOpsINS_17_ClassicAlgPolicyEE25__validate_iter_referenceB7v160006IRPN8nlohmann16json_abi_v3_11_210basic_jsonINS_3mapENS_6vectorENS_12basic_stringIcNS_11char_traitsIcEENS_9allocatorIcEEEEbxydSC_NS5_14adl_serializerENS8_IhNSC_IhEEEEvEEEEvv, symObjAddr: 0x34BC, symBinAddr: 0x1000052C4, symSize: 0x4 }
  - { offsetInCU: 0x1CD33, offset: 0x1CD33, size: 0x8, addend: 0x0, symName: __ZNSt3__14pairIPN8nlohmann16json_abi_v3_11_210basic_jsonINS_3mapENS_6vectorENS_12basic_stringIcNS_11char_traitsIcEENS_9allocatorIcEEEEbxydS9_NS2_14adl_serializerENS5_IhNS9_IhEEEEvEENS_20back_insert_iteratorINS5_ISF_NS9_ISF_EEEEEEEC1B7v160006ISG_SK_LPv0EEEOT_OT0_, symObjAddr: 0x34C0, symBinAddr: 0x1000052C8, symSize: 0x3C }
  - { offsetInCU: 0x1CD91, offset: 0x1CD91, size: 0x8, addend: 0x0, symName: __ZNSt3__14pairIPN8nlohmann16json_abi_v3_11_210basic_jsonINS_3mapENS_6vectorENS_12basic_stringIcNS_11char_traitsIcEENS_9allocatorIcEEEEbxydS9_NS2_14adl_serializerENS5_IhNS9_IhEEEEvEENS_20back_insert_iteratorINS5_ISF_NS9_ISF_EEEEEEEC2B7v160006ISG_SK_LPv0EEEOT_OT0_, symObjAddr: 0x34FC, symBinAddr: 0x100005304, symSize: 0x34 }
  - { offsetInCU: 0x1CDEF, offset: 0x1CDEF, size: 0x8, addend: 0x0, symName: __ZNSt3__118__unwrap_iter_implINS_20back_insert_iteratorINS_6vectorIN8nlohmann16json_abi_v3_11_210basic_jsonINS_3mapES2_NS_12basic_stringIcNS_11char_traitsIcEENS_9allocatorIcEEEEbxydSA_NS4_14adl_serializerENS2_IhNSA_IhEEEEvEENSA_ISG_EEEEEELb0EE8__unwrapB7v160006ESJ_, symObjAddr: 0x3530, symBinAddr: 0x100005338, symSize: 0x1C }
  - { offsetInCU: 0x1CE35, offset: 0x1CE35, size: 0x8, addend: 0x0, symName: __ZNSt3__14pairINS_11__wrap_iterIPN8nlohmann16json_abi_v3_11_210basic_jsonINS_3mapENS_6vectorENS_12basic_stringIcNS_11char_traitsIcEENS_9allocatorIcEEEEbxydSA_NS3_14adl_serializerENS6_IhNSA_IhEEEEvEEEENS_20back_insert_iteratorINS6_ISG_NSA_ISG_EEEEEEEC1B7v160006ISI_SM_LPv0EEEOT_OT0_, symObjAddr: 0x354C, symBinAddr: 0x100005354, symSize: 0x3C }
  - { offsetInCU: 0x1CE93, offset: 0x1CE93, size: 0x8, addend: 0x0, symName: __ZNSt3__14pairINS_11__wrap_iterIPN8nlohmann16json_abi_v3_11_210basic_jsonINS_3mapENS_6vectorENS_12basic_stringIcNS_11char_traitsIcEENS_9allocatorIcEEEEbxydSA_NS3_14adl_serializerENS6_IhNSA_IhEEEEvEEEENS_20back_insert_iteratorINS6_ISG_NSA_ISG_EEEEEEEC2B7v160006ISI_SM_LPv0EEEOT_OT0_, symObjAddr: 0x3588, symBinAddr: 0x100005390, symSize: 0x34 }
  - { offsetInCU: 0x1CEF1, offset: 0x1CEF1, size: 0x8, addend: 0x0, symName: __ZNSt3__118__unwrap_iter_implINS_11__wrap_iterIPN8nlohmann16json_abi_v3_11_210basic_jsonINS_3mapENS_6vectorENS_12basic_stringIcNS_11char_traitsIcEENS_9allocatorIcEEEEbxydSA_NS3_14adl_serializerENS6_IhNSA_IhEEEEvEEEELb1EE8__rewrapB7v160006ESI_SH_, symObjAddr: 0x3608, symBinAddr: 0x100005410, symSize: 0x5C }
  - { offsetInCU: 0x1CF22, offset: 0x1CF22, size: 0x8, addend: 0x0, symName: __ZNKSt3__111__wrap_iterIPN8nlohmann16json_abi_v3_11_210basic_jsonINS_3mapENS_6vectorENS_12basic_stringIcNS_11char_traitsIcEENS_9allocatorIcEEEEbxydS9_NS2_14adl_serializerENS5_IhNS9_IhEEEEvEEEplB7v160006El, symObjAddr: 0x3664, symBinAddr: 0x10000546C, symSize: 0x3C }
  - { offsetInCU: 0x1CF65, offset: 0x1CF65, size: 0x8, addend: 0x0, symName: __ZNSt3__111__wrap_iterIPN8nlohmann16json_abi_v3_11_210basic_jsonINS_3mapENS_6vectorENS_12basic_stringIcNS_11char_traitsIcEENS_9allocatorIcEEEEbxydS9_NS2_14adl_serializerENS5_IhNS9_IhEEEEvEEEpLB7v160006El, symObjAddr: 0x36A0, symBinAddr: 0x1000054A8, symSize: 0x28 }
  - { offsetInCU: 0x1CF99, offset: 0x1CF99, size: 0x8, addend: 0x0, symName: __ZNSt3__118__unwrap_iter_implINS_20back_insert_iteratorINS_6vectorIN8nlohmann16json_abi_v3_11_210basic_jsonINS_3mapES2_NS_12basic_stringIcNS_11char_traitsIcEENS_9allocatorIcEEEEbxydSA_NS4_14adl_serializerENS2_IhNSA_IhEEEEvEENSA_ISG_EEEEEELb0EE8__rewrapB7v160006ESJ_SJ_, symObjAddr: 0x36C8, symBinAddr: 0x1000054D0, symSize: 0x20 }
  - { offsetInCU: 0x1CFC7, offset: 0x1CFC7, size: 0x8, addend: 0x0, symName: __ZNSt3__16vectorIN8nlohmann16json_abi_v3_11_210basic_jsonINS_3mapES0_NS_12basic_stringIcNS_11char_traitsIcEENS_9allocatorIcEEEEbxydS8_NS2_14adl_serializerENS0_IhNS8_IhEEEEvEENS8_ISE_EEE11__make_iterB7v160006EPSE_, symObjAddr: 0x36E8, symBinAddr: 0x1000054F0, symSize: 0x34 }
  - { offsetInCU: 0x1CFFC, offset: 0x1CFFC, size: 0x8, addend: 0x0, symName: __ZNSt3__111__wrap_iterIPN8nlohmann16json_abi_v3_11_210basic_jsonINS_3mapENS_6vectorENS_12basic_stringIcNS_11char_traitsIcEENS_9allocatorIcEEEEbxydS9_NS2_14adl_serializerENS5_IhNS9_IhEEEEvEEEC1B7v160006EPKvSG_, symObjAddr: 0x371C, symBinAddr: 0x100005524, symSize: 0x3C }
  - { offsetInCU: 0x1D042, offset: 0x1D042, size: 0x8, addend: 0x0, symName: __ZNSt3__111__wrap_iterIPN8nlohmann16json_abi_v3_11_210basic_jsonINS_3mapENS_6vectorENS_12basic_stringIcNS_11char_traitsIcEENS_9allocatorIcEEEEbxydS9_NS2_14adl_serializerENS5_IhNS9_IhEEEEvEEEC2B7v160006EPKvSG_, symObjAddr: 0x3758, symBinAddr: 0x100005560, symSize: 0x24 }
  - { offsetInCU: 0x1D088, offset: 0x1D088, size: 0x8, addend: 0x0, symName: __ZNSt3__120back_insert_iteratorINS_6vectorIN8nlohmann16json_abi_v3_11_210basic_jsonINS_3mapES1_NS_12basic_stringIcNS_11char_traitsIcEENS_9allocatorIcEEEEbxydS9_NS3_14adl_serializerENS1_IhNS9_IhEEEEvEENS9_ISF_EEEEEC1B7v160006ERSH_, symObjAddr: 0x377C, symBinAddr: 0x100005584, symSize: 0x34 }
  - { offsetInCU: 0x1D0C0, offset: 0x1D0C0, size: 0x8, addend: 0x0, symName: __ZNSt3__120back_insert_iteratorINS_6vectorIN8nlohmann16json_abi_v3_11_210basic_jsonINS_3mapES1_NS_12basic_stringIcNS_11char_traitsIcEENS_9allocatorIcEEEEbxydS9_NS3_14adl_serializerENS1_IhNS9_IhEEEEvEENS9_ISF_EEEEEC2B7v160006ERSH_, symObjAddr: 0x37B0, symBinAddr: 0x1000055B8, symSize: 0x20 }
  - { offsetInCU: 0x1D0F8, offset: 0x1D0F8, size: 0x8, addend: 0x0, symName: __ZNKSt3__16__treeINS_12__value_typeINS_12basic_stringIcNS_11char_traitsIcEENS_9allocatorIcEEEEN8nlohmann16json_abi_v3_11_210basic_jsonINS_3mapENS_6vectorES7_bxydS5_NS9_14adl_serializerENSC_IhNS5_IhEEEEvEEEENS_19__map_value_compareIS7_SH_NS_4lessIvEELb1EEENS5_ISH_EEE4sizeB7v160006Ev, symObjAddr: 0x37D0, symBinAddr: 0x1000055D8, symSize: 0x28 }
  - { offsetInCU: 0x1D11E, offset: 0x1D11E, size: 0x8, addend: 0x0, symName: __ZNKSt3__117__compressed_pairImNS_19__map_value_compareINS_12basic_stringIcNS_11char_traitsIcEENS_9allocatorIcEEEENS_12__value_typeIS7_N8nlohmann16json_abi_v3_11_210basic_jsonINS_3mapENS_6vectorES7_bxydS5_NSA_14adl_serializerENSD_IhNS5_IhEEEEvEEEENS_4lessIvEELb1EEEE5firstB7v160006Ev, symObjAddr: 0x37F8, symBinAddr: 0x100005600, symSize: 0x24 }
  - { offsetInCU: 0x1D144, offset: 0x1D144, size: 0x8, addend: 0x0, symName: __ZNKSt3__122__compressed_pair_elemImLi0ELb0EE5__getB7v160006Ev, symObjAddr: 0x381C, symBinAddr: 0x100005624, symSize: 0x14 }
  - { offsetInCU: 0x1D16A, offset: 0x1D16A, size: 0x8, addend: 0x0, symName: __ZNSt3__16__treeINS_12__value_typeINS_12basic_stringIcNS_11char_traitsIcEENS_9allocatorIcEEEEN8nlohmann16json_abi_v3_11_210basic_jsonINS_3mapENS_6vectorES7_bxydS5_NS9_14adl_serializerENSC_IhNS5_IhEEEEvEEEENS_19__map_value_compareIS7_SH_NS_4lessIvEELb1EEENS5_ISH_EEE5beginB7v160006Ev, symObjAddr: 0x3830, symBinAddr: 0x100005638, symSize: 0x34 }
  - { offsetInCU: 0x1D190, offset: 0x1D190, size: 0x8, addend: 0x0, symName: __ZNSt3__114__map_iteratorINS_15__tree_iteratorINS_12__value_typeINS_12basic_stringIcNS_11char_traitsIcEENS_9allocatorIcEEEEN8nlohmann16json_abi_v3_11_210basic_jsonINS_3mapENS_6vectorES8_bxydS6_NSA_14adl_serializerENSD_IhNS6_IhEEEEvEEEEPNS_11__tree_nodeISI_PvEElEEEC1B7v160006ESN_, symObjAddr: 0x3864, symBinAddr: 0x10000566C, symSize: 0x34 }
  - { offsetInCU: 0x1D1C9, offset: 0x1D1C9, size: 0x8, addend: 0x0, symName: __ZNSt3__16__treeINS_12__value_typeINS_12basic_stringIcNS_11char_traitsIcEENS_9allocatorIcEEEEN8nlohmann16json_abi_v3_11_210basic_jsonINS_3mapENS_6vectorES7_bxydS5_NS9_14adl_serializerENSC_IhNS5_IhEEEEvEEEENS_19__map_value_compareIS7_SH_NS_4lessIvEELb1EEENS5_ISH_EEE12__begin_nodeB7v160006Ev, symObjAddr: 0x3898, symBinAddr: 0x1000056A0, symSize: 0x14 }
  - { offsetInCU: 0x1D1EF, offset: 0x1D1EF, size: 0x8, addend: 0x0, symName: __ZNSt3__115__tree_iteratorINS_12__value_typeINS_12basic_stringIcNS_11char_traitsIcEENS_9allocatorIcEEEEN8nlohmann16json_abi_v3_11_210basic_jsonINS_3mapENS_6vectorES7_bxydS5_NS9_14adl_serializerENSC_IhNS5_IhEEEEvEEEEPNS_11__tree_nodeISH_PvEElEC1B7v160006EPNS_15__tree_end_nodeIPNS_16__tree_node_baseISJ_EEEE, symObjAddr: 0x38AC, symBinAddr: 0x1000056B4, symSize: 0x34 }
  - { offsetInCU: 0x1D228, offset: 0x1D228, size: 0x8, addend: 0x0, symName: __ZNSt3__115__tree_iteratorINS_12__value_typeINS_12basic_stringIcNS_11char_traitsIcEENS_9allocatorIcEEEEN8nlohmann16json_abi_v3_11_210basic_jsonINS_3mapENS_6vectorES7_bxydS5_NS9_14adl_serializerENSC_IhNS5_IhEEEEvEEEEPNS_11__tree_nodeISH_PvEElEC2B7v160006EPNS_15__tree_end_nodeIPNS_16__tree_node_baseISJ_EEEE, symObjAddr: 0x38E0, symBinAddr: 0x1000056E8, symSize: 0x20 }
  - { offsetInCU: 0x1D261, offset: 0x1D261, size: 0x8, addend: 0x0, symName: __ZNSt3__114__map_iteratorINS_15__tree_iteratorINS_12__value_typeINS_12basic_stringIcNS_11char_traitsIcEENS_9allocatorIcEEEEN8nlohmann16json_abi_v3_11_210basic_jsonINS_3mapENS_6vectorES8_bxydS6_NSA_14adl_serializerENSD_IhNS6_IhEEEEvEEEEPNS_11__tree_nodeISI_PvEElEEEC2B7v160006ESN_, symObjAddr: 0x3900, symBinAddr: 0x100005708, symSize: 0x20 }
  - { offsetInCU: 0x1D29A, offset: 0x1D29A, size: 0x8, addend: 0x0, symName: __ZNSt3__16__treeINS_12__value_typeINS_12basic_stringIcNS_11char_traitsIcEENS_9allocatorIcEEEEN8nlohmann16json_abi_v3_11_210basic_jsonINS_3mapENS_6vectorES7_bxydS5_NS9_14adl_serializerENSC_IhNS5_IhEEEEvEEEENS_19__map_value_compareIS7_SH_NS_4lessIvEELb1EEENS5_ISH_EEE3endB7v160006Ev, symObjAddr: 0x3920, symBinAddr: 0x100005728, symSize: 0x34 }
  - { offsetInCU: 0x1D2C0, offset: 0x1D2C0, size: 0x8, addend: 0x0, symName: __ZNSt3__16__treeINS_12__value_typeINS_12basic_stringIcNS_11char_traitsIcEENS_9allocatorIcEEEEN8nlohmann16json_abi_v3_11_210basic_jsonINS_3mapENS_6vectorES7_bxydS5_NS9_14adl_serializerENSC_IhNS5_IhEEEEvEEEENS_19__map_value_compareIS7_SH_NS_4lessIvEELb1EEENS5_ISH_EEE10__end_nodeB7v160006Ev, symObjAddr: 0x3954, symBinAddr: 0x10000575C, symSize: 0x2C }
  - { offsetInCU: 0x1D2E6, offset: 0x1D2E6, size: 0x8, addend: 0x0, symName: __ZNSt3__114pointer_traitsIPNS_15__tree_end_nodeIPNS_16__tree_node_baseIPvEEEEE10pointer_toB7v160006ERS6_, symObjAddr: 0x3980, symBinAddr: 0x100005788, symSize: 0x14 }
  - { offsetInCU: 0x1D309, offset: 0x1D309, size: 0x8, addend: 0x0, symName: __ZNSt3__117__compressed_pairINS_15__tree_end_nodeIPNS_16__tree_node_baseIPvEEEENS_9allocatorINS_11__tree_nodeINS_12__value_typeINS_12basic_stringIcNS_11char_traitsIcEENS7_IcEEEEN8nlohmann16json_abi_v3_11_210basic_jsonINS_3mapENS_6vectorESE_bxydS7_NSG_14adl_serializerENSJ_IhNS7_IhEEEEvEEEES3_EEEEE5firstB7v160006Ev, symObjAddr: 0x3994, symBinAddr: 0x10000579C, symSize: 0x24 }
  - { offsetInCU: 0x1D32F, offset: 0x1D32F, size: 0x8, addend: 0x0, symName: __ZNSt3__122__compressed_pair_elemINS_15__tree_end_nodeIPNS_16__tree_node_baseIPvEEEELi0ELb0EE5__getB7v160006Ev, symObjAddr: 0x39B8, symBinAddr: 0x1000057C0, symSize: 0x14 }
  - { offsetInCU: 0x1D355, offset: 0x1D355, size: 0x8, addend: 0x0, symName: __ZNKSt3__115__tree_iteratorINS_12__value_typeINS_12basic_stringIcNS_11char_traitsIcEENS_9allocatorIcEEEEN8nlohmann16json_abi_v3_11_210basic_jsonINS_3mapENS_6vectorES7_bxydS5_NS9_14adl_serializerENSC_IhNS5_IhEEEEvEEEEPNS_11__tree_nodeISH_PvEElEptB7v160006Ev, symObjAddr: 0x3A30, symBinAddr: 0x100005838, symSize: 0x2C }
  - { offsetInCU: 0x1D37B, offset: 0x1D37B, size: 0x8, addend: 0x0, symName: __ZNSt3__112__value_typeINS_12basic_stringIcNS_11char_traitsIcEENS_9allocatorIcEEEEN8nlohmann16json_abi_v3_11_210basic_jsonINS_3mapENS_6vectorES6_bxydS4_NS8_14adl_serializerENSB_IhNS4_IhEEEEvEEE11__get_valueB7v160006Ev, symObjAddr: 0x3A5C, symBinAddr: 0x100005864, symSize: 0x24 }
  - { offsetInCU: 0x1D3A1, offset: 0x1D3A1, size: 0x8, addend: 0x0, symName: __ZNSt3__114pointer_traitsIPNS_12__value_typeINS_12basic_stringIcNS_11char_traitsIcEENS_9allocatorIcEEEEN8nlohmann16json_abi_v3_11_210basic_jsonINS_3mapENS_6vectorES7_bxydS5_NS9_14adl_serializerENSC_IhNS5_IhEEEEvEEEEE10pointer_toB7v160006ERSH_, symObjAddr: 0x3A80, symBinAddr: 0x100005888, symSize: 0x14 }
  - { offsetInCU: 0x1D3C4, offset: 0x1D3C4, size: 0x8, addend: 0x0, symName: __ZNKSt3__115__tree_iteratorINS_12__value_typeINS_12basic_stringIcNS_11char_traitsIcEENS_9allocatorIcEEEEN8nlohmann16json_abi_v3_11_210basic_jsonINS_3mapENS_6vectorES7_bxydS5_NS9_14adl_serializerENSC_IhNS5_IhEEEEvEEEEPNS_11__tree_nodeISH_PvEElE8__get_npB7v160006Ev, symObjAddr: 0x3A94, symBinAddr: 0x10000589C, symSize: 0x18 }
  - { offsetInCU: 0x1D3EA, offset: 0x1D3EA, size: 0x8, addend: 0x0, symName: __ZNSt3__16vectorIN8nlohmann16json_abi_v3_11_210basic_jsonINS_3mapES0_NS_12basic_stringIcNS_11char_traitsIcEENS_9allocatorIcEEEEbxydS8_NS2_14adl_serializerENS0_IhNS8_IhEEEEvEENS8_ISE_EEE22__construct_one_at_endB7v160006IJSE_EEEvDpOT_, symObjAddr: 0x3AE4, symBinAddr: 0x1000058EC, symSize: 0x90 }
  - { offsetInCU: 0x1D439, offset: 0x1D439, size: 0x8, addend: 0x0, symName: __ZNSt3__16vectorIN8nlohmann16json_abi_v3_11_210basic_jsonINS_3mapES0_NS_12basic_stringIcNS_11char_traitsIcEENS_9allocatorIcEEEEbxydS8_NS2_14adl_serializerENS0_IhNS8_IhEEEEvEENS8_ISE_EEE21__push_back_slow_pathISE_EEvOT_, symObjAddr: 0x3B74, symBinAddr: 0x10000597C, symSize: 0xD8 }
  - { offsetInCU: 0x1D4B3, offset: 0x1D4B3, size: 0x8, addend: 0x0, symName: __ZNSt3__16vectorIN8nlohmann16json_abi_v3_11_210basic_jsonINS_3mapES0_NS_12basic_stringIcNS_11char_traitsIcEENS_9allocatorIcEEEEbxydS8_NS2_14adl_serializerENS0_IhNS8_IhEEEEvEENS8_ISE_EEE21_ConstructTransactionC1B7v160006ERSG_m, symObjAddr: 0x3C4C, symBinAddr: 0x100005A54, symSize: 0x3C }
  - { offsetInCU: 0x1D4FB, offset: 0x1D4FB, size: 0x8, addend: 0x0, symName: __ZNSt3__16vectorIN8nlohmann16json_abi_v3_11_210basic_jsonINS_3mapES0_NS_12basic_stringIcNS_11char_traitsIcEENS_9allocatorIcEEEEbxydS8_NS2_14adl_serializerENS0_IhNS8_IhEEEEvEENS8_ISE_EEE21_ConstructTransactionD1B7v160006Ev, symObjAddr: 0x3C88, symBinAddr: 0x100005A90, symSize: 0x2C }
  - { offsetInCU: 0x1D525, offset: 0x1D525, size: 0x8, addend: 0x0, symName: __ZNSt3__16vectorIN8nlohmann16json_abi_v3_11_210basic_jsonINS_3mapES0_NS_12basic_stringIcNS_11char_traitsIcEENS_9allocatorIcEEEEbxydS8_NS2_14adl_serializerENS0_IhNS8_IhEEEEvEENS8_ISE_EEE21_ConstructTransactionC2B7v160006ERSG_m, symObjAddr: 0x3CB4, symBinAddr: 0x100005ABC, symSize: 0x44 }
  - { offsetInCU: 0x1D56D, offset: 0x1D56D, size: 0x8, addend: 0x0, symName: __ZNSt3__16vectorIN8nlohmann16json_abi_v3_11_210basic_jsonINS_3mapES0_NS_12basic_stringIcNS_11char_traitsIcEENS_9allocatorIcEEEEbxydS8_NS2_14adl_serializerENS0_IhNS8_IhEEEEvEENS8_ISE_EEE21_ConstructTransactionD2B7v160006Ev, symObjAddr: 0x3CF8, symBinAddr: 0x100005B00, symSize: 0x20 }
  - { offsetInCU: 0x1D597, offset: 0x1D597, size: 0x8, addend: 0x0, symName: __ZNKSt3__16vectorIN8nlohmann16json_abi_v3_11_210basic_jsonINS_3mapES0_NS_12basic_stringIcNS_11char_traitsIcEENS_9allocatorIcEEEEbxydS8_NS2_14adl_serializerENS0_IhNS8_IhEEEEvEENS8_ISE_EEE11__recommendB7v160006Em, symObjAddr: 0x3D18, symBinAddr: 0x100005B20, symSize: 0xB4 }
  - { offsetInCU: 0x1D5EC, offset: 0x1D5EC, size: 0x8, addend: 0x0, symName: __ZNSt3__115__tree_iteratorINS_12__value_typeINS_12basic_stringIcNS_11char_traitsIcEENS_9allocatorIcEEEEN8nlohmann16json_abi_v3_11_210basic_jsonINS_3mapENS_6vectorES7_bxydS5_NS9_14adl_serializerENSC_IhNS5_IhEEEEvEEEEPNS_11__tree_nodeISH_PvEElEppB7v160006Ev, symObjAddr: 0x3E4C, symBinAddr: 0x100005C54, symSize: 0x38 }
  - { offsetInCU: 0x1D612, offset: 0x1D612, size: 0x8, addend: 0x0, symName: __ZNKSt3__116__tree_node_baseIPvE15__parent_unsafeB7v160006Ev, symObjAddr: 0x3F80, symBinAddr: 0x100005D88, symSize: 0x18 }
  - { offsetInCU: 0x1D638, offset: 0x1D638, size: 0x8, addend: 0x0, symName: __ZN8nlohmann16json_abi_v3_11_210basic_jsonINSt3__13mapENS2_6vectorENS2_12basic_stringIcNS2_11char_traitsIcEENS2_9allocatorIcEEEEbxydS8_NS0_14adl_serializerENS4_IhNS8_IhEEEEvEC2EOSE_, symObjAddr: 0x3F98, symBinAddr: 0x100005DA0, symSize: 0x80 }
  - { offsetInCU: 0x1D671, offset: 0x1D671, size: 0x8, addend: 0x0, symName: __ZN8nlohmann16json_abi_v3_11_210basic_jsonINSt3__13mapENS2_6vectorENS2_12basic_stringIcNS2_11char_traitsIcEENS2_9allocatorIcEEEEbxydS8_NS0_14adl_serializerENS4_IhNS8_IhEEEEvE11set_parentsEv, symObjAddr: 0x4018, symBinAddr: 0x100005E20, symSize: 0x10 }
  - { offsetInCU: 0x1D697, offset: 0x1D697, size: 0x8, addend: 0x0, symName: __ZNSt3__16vectorIN8nlohmann16json_abi_v3_11_210basic_jsonINS_3mapES0_NS_12basic_stringIcNS_11char_traitsIcEENS_9allocatorIcEEEEbxydS8_NS2_14adl_serializerENS0_IhNS8_IhEEEEvEENS8_ISE_EEE17__destruct_at_endB7v160006EPSE_, symObjAddr: 0x4028, symBinAddr: 0x100005E30, symSize: 0x60 }
  - { offsetInCU: 0x1D6DB, offset: 0x1D6DB, size: 0x8, addend: 0x0, symName: __ZNSt3__16vectorIN8nlohmann16json_abi_v3_11_210basic_jsonINS_3mapES0_NS_12basic_stringIcNS_11char_traitsIcEENS_9allocatorIcEEEEbxydS8_NS2_14adl_serializerENS0_IhNS8_IhEEEEvEENS8_ISE_EEE27__invalidate_iterators_pastB7v160006EPSE_, symObjAddr: 0x4088, symBinAddr: 0x100005E90, symSize: 0x14 }
  - { offsetInCU: 0x1D712, offset: 0x1D712, size: 0x8, addend: 0x0, symName: __ZNSt3__16vectorIN8nlohmann16json_abi_v3_11_210basic_jsonINS_3mapES0_NS_12basic_stringIcNS_11char_traitsIcEENS_9allocatorIcEEEEbxydS8_NS2_14adl_serializerENS0_IhNS8_IhEEEEvEENS8_ISE_EEE22__base_destruct_at_endB7v160006EPSE_, symObjAddr: 0x409C, symBinAddr: 0x100005EA4, symSize: 0x8C }
  - { offsetInCU: 0x1D756, offset: 0x1D756, size: 0x8, addend: 0x0, symName: __ZNKSt3__16vectorIN8nlohmann16json_abi_v3_11_210basic_jsonINS_3mapES0_NS_12basic_stringIcNS_11char_traitsIcEENS_9allocatorIcEEEEbxydS8_NS2_14adl_serializerENS0_IhNS8_IhEEEEvEENS8_ISE_EEE17__annotate_shrinkB7v160006Em, symObjAddr: 0x4128, symBinAddr: 0x100005F30, symSize: 0xB4 }
  - { offsetInCU: 0x1D78B, offset: 0x1D78B, size: 0x8, addend: 0x0, symName: __ZNSt3__16vectorIN8nlohmann16json_abi_v3_11_210basic_jsonINS_3mapES0_NS_12basic_stringIcNS_11char_traitsIcEENS_9allocatorIcEEEEbxydS8_NS2_14adl_serializerENS0_IhNS8_IhEEEEvEENS8_ISE_EEE7__clearB7v160006Ev, symObjAddr: 0x41DC, symBinAddr: 0x100005FE4, symSize: 0x28 }
  - { offsetInCU: 0x1D7B1, offset: 0x1D7B1, size: 0x8, addend: 0x0, symName: __ZNSt3__16__treeINS_12__value_typeINS_12basic_stringIcNS_11char_traitsIcEENS_9allocatorIcEEEEN8nlohmann16json_abi_v3_11_210basic_jsonINS_3mapENS_6vectorES7_bxydS5_NS9_14adl_serializerENSC_IhNS5_IhEEEEvEEEENS_19__map_value_compareIS7_SH_NS_4lessIvEELb1EEENS5_ISH_EEE5clearEv, symObjAddr: 0x4204, symBinAddr: 0x10000600C, symSize: 0x74 }
  - { offsetInCU: 0x1D7D9, offset: 0x1D7D9, size: 0x8, addend: 0x0, symName: __ZNSt3__16__treeINS_12__value_typeINS_12basic_stringIcNS_11char_traitsIcEENS_9allocatorIcEEEEN8nlohmann16json_abi_v3_11_210basic_jsonINS_3mapENS_6vectorES7_bxydS5_NS9_14adl_serializerENSC_IhNS5_IhEEEEvEEEENS_19__map_value_compareIS7_SH_NS_4lessIvEELb1EEENS5_ISH_EEE7destroyEPNS_11__tree_nodeISH_PvEE, symObjAddr: 0x4278, symBinAddr: 0x100006080, symSize: 0xAC }
  - { offsetInCU: 0x1D825, offset: 0x1D825, size: 0x8, addend: 0x0, symName: __ZNKSt3__16__treeINS_12__value_typeINS_12basic_stringIcNS_11char_traitsIcEENS_9allocatorIcEEEEN8nlohmann16json_abi_v3_11_210basic_jsonINS_3mapENS_6vectorES7_bxydS5_NS9_14adl_serializerENSC_IhNS5_IhEEEEvEEEENS_19__map_value_compareIS7_SH_NS_4lessIvEELb1EEENS5_ISH_EEE6__rootB7v160006Ev, symObjAddr: 0x4324, symBinAddr: 0x10000612C, symSize: 0x28 }
  - { offsetInCU: 0x1D84B, offset: 0x1D84B, size: 0x8, addend: 0x0, symName: __ZNSt3__16__treeINS_12__value_typeINS_12basic_stringIcNS_11char_traitsIcEENS_9allocatorIcEEEEN8nlohmann16json_abi_v3_11_210basic_jsonINS_3mapENS_6vectorES7_bxydS5_NS9_14adl_serializerENSC_IhNS5_IhEEEEvEEEENS_19__map_value_compareIS7_SH_NS_4lessIvEELb1EEENS5_ISH_EEE4sizeB7v160006Ev, symObjAddr: 0x434C, symBinAddr: 0x100006154, symSize: 0x28 }
  - { offsetInCU: 0x1D871, offset: 0x1D871, size: 0x8, addend: 0x0, symName: __ZNSt3__16__treeINS_12__value_typeINS_12basic_stringIcNS_11char_traitsIcEENS_9allocatorIcEEEEN8nlohmann16json_abi_v3_11_210basic_jsonINS_3mapENS_6vectorES7_bxydS5_NS9_14adl_serializerENSC_IhNS5_IhEEEEvEEEENS_19__map_value_compareIS7_SH_NS_4lessIvEELb1EEENS5_ISH_EEE12__node_allocB7v160006Ev, symObjAddr: 0x4374, symBinAddr: 0x10000617C, symSize: 0x28 }
  - { offsetInCU: 0x1D897, offset: 0x1D897, size: 0x8, addend: 0x0, symName: __ZNSt3__116allocator_traitsINS_9allocatorINS_11__tree_nodeINS_12__value_typeINS_12basic_stringIcNS_11char_traitsIcEENS1_IcEEEEN8nlohmann16json_abi_v3_11_210basic_jsonINS_3mapENS_6vectorES8_bxydS1_NSA_14adl_serializerENSD_IhNS1_IhEEEEvEEEEPvEEEEE7destroyB7v160006INS_4pairIKS8_SH_EEvvEEvRSL_PT_, symObjAddr: 0x439C, symBinAddr: 0x1000061A4, symSize: 0x28 }
  - { offsetInCU: 0x1D8D1, offset: 0x1D8D1, size: 0x8, addend: 0x0, symName: __ZNSt3__122__tree_key_value_typesINS_12__value_typeINS_12basic_stringIcNS_11char_traitsIcEENS_9allocatorIcEEEEN8nlohmann16json_abi_v3_11_210basic_jsonINS_3mapENS_6vectorES7_bxydS5_NS9_14adl_serializerENSC_IhNS5_IhEEEEvEEEEE9__get_ptrB7v160006ERSH_, symObjAddr: 0x43C4, symBinAddr: 0x1000061CC, symSize: 0x24 }
  - { offsetInCU: 0x1D8F5, offset: 0x1D8F5, size: 0x8, addend: 0x0, symName: __ZNSt3__116allocator_traitsINS_9allocatorINS_11__tree_nodeINS_12__value_typeINS_12basic_stringIcNS_11char_traitsIcEENS1_IcEEEEN8nlohmann16json_abi_v3_11_210basic_jsonINS_3mapENS_6vectorES8_bxydS1_NSA_14adl_serializerENSD_IhNS1_IhEEEEvEEEEPvEEEEE10deallocateB7v160006ERSL_PSK_m, symObjAddr: 0x43E8, symBinAddr: 0x1000061F0, symSize: 0x34 }
  - { offsetInCU: 0x1D937, offset: 0x1D937, size: 0x8, addend: 0x0, symName: __ZNSt3__117__compressed_pairINS_15__tree_end_nodeIPNS_16__tree_node_baseIPvEEEENS_9allocatorINS_11__tree_nodeINS_12__value_typeINS_12basic_stringIcNS_11char_traitsIcEENS7_IcEEEEN8nlohmann16json_abi_v3_11_210basic_jsonINS_3mapENS_6vectorESE_bxydS7_NSG_14adl_serializerENSJ_IhNS7_IhEEEEvEEEES3_EEEEE6secondB7v160006Ev, symObjAddr: 0x441C, symBinAddr: 0x100006224, symSize: 0x24 }
  - { offsetInCU: 0x1D95D, offset: 0x1D95D, size: 0x8, addend: 0x0, symName: __ZNSt3__122__compressed_pair_elemINS_9allocatorINS_11__tree_nodeINS_12__value_typeINS_12basic_stringIcNS_11char_traitsIcEENS1_IcEEEEN8nlohmann16json_abi_v3_11_210basic_jsonINS_3mapENS_6vectorES8_bxydS1_NSA_14adl_serializerENSD_IhNS1_IhEEEEvEEEEPvEEEELi1ELb1EE5__getB7v160006Ev, symObjAddr: 0x4440, symBinAddr: 0x100006248, symSize: 0x14 }
  - { offsetInCU: 0x1D983, offset: 0x1D983, size: 0x8, addend: 0x0, symName: __ZNSt3__14pairIKNS_12basic_stringIcNS_11char_traitsIcEENS_9allocatorIcEEEEN8nlohmann16json_abi_v3_11_210basic_jsonINS_3mapENS_6vectorES6_bxydS4_NS9_14adl_serializerENSC_IhNS4_IhEEEEvEEED1Ev, symObjAddr: 0x4454, symBinAddr: 0x10000625C, symSize: 0x2C }
  - { offsetInCU: 0x1D9AF, offset: 0x1D9AF, size: 0x8, addend: 0x0, symName: __ZNSt3__14pairIKNS_12basic_stringIcNS_11char_traitsIcEENS_9allocatorIcEEEEN8nlohmann16json_abi_v3_11_210basic_jsonINS_3mapENS_6vectorES6_bxydS4_NS9_14adl_serializerENSC_IhNS4_IhEEEEvEEED2Ev, symObjAddr: 0x4480, symBinAddr: 0x100006288, symSize: 0x38 }
  - { offsetInCU: 0x1D9DB, offset: 0x1D9DB, size: 0x8, addend: 0x0, symName: __ZNSt3__19allocatorINS_11__tree_nodeINS_12__value_typeINS_12basic_stringIcNS_11char_traitsIcEENS0_IcEEEEN8nlohmann16json_abi_v3_11_210basic_jsonINS_3mapENS_6vectorES7_bxydS0_NS9_14adl_serializerENSC_IhNS0_IhEEEEvEEEEPvEEE10deallocateB7v160006EPSJ_m, symObjAddr: 0x44B8, symBinAddr: 0x1000062C0, symSize: 0x44 }
  - { offsetInCU: 0x1DA1D, offset: 0x1DA1D, size: 0x8, addend: 0x0, symName: __ZNKSt3__16__treeINS_12__value_typeINS_12basic_stringIcNS_11char_traitsIcEENS_9allocatorIcEEEEN8nlohmann16json_abi_v3_11_210basic_jsonINS_3mapENS_6vectorES7_bxydS5_NS9_14adl_serializerENSC_IhNS5_IhEEEEvEEEENS_19__map_value_compareIS7_SH_NS_4lessIvEELb1EEENS5_ISH_EEE10__end_nodeB7v160006Ev, symObjAddr: 0x44FC, symBinAddr: 0x100006304, symSize: 0x2C }
  - { offsetInCU: 0x1DA43, offset: 0x1DA43, size: 0x8, addend: 0x0, symName: __ZNKSt3__117__compressed_pairINS_15__tree_end_nodeIPNS_16__tree_node_baseIPvEEEENS_9allocatorINS_11__tree_nodeINS_12__value_typeINS_12basic_stringIcNS_11char_traitsIcEENS7_IcEEEEN8nlohmann16json_abi_v3_11_210basic_jsonINS_3mapENS_6vectorESE_bxydS7_NSG_14adl_serializerENSJ_IhNS7_IhEEEEvEEEES3_EEEEE5firstB7v160006Ev, symObjAddr: 0x4528, symBinAddr: 0x100006330, symSize: 0x24 }
  - { offsetInCU: 0x1DA69, offset: 0x1DA69, size: 0x8, addend: 0x0, symName: __ZNKSt3__122__compressed_pair_elemINS_15__tree_end_nodeIPNS_16__tree_node_baseIPvEEEELi0ELb0EE5__getB7v160006Ev, symObjAddr: 0x454C, symBinAddr: 0x100006354, symSize: 0x14 }
  - { offsetInCU: 0x1DA8F, offset: 0x1DA8F, size: 0x8, addend: 0x0, symName: __ZNSt3__117__compressed_pairImNS_19__map_value_compareINS_12basic_stringIcNS_11char_traitsIcEENS_9allocatorIcEEEENS_12__value_typeIS7_N8nlohmann16json_abi_v3_11_210basic_jsonINS_3mapENS_6vectorES7_bxydS5_NSA_14adl_serializerENSD_IhNS5_IhEEEEvEEEENS_4lessIvEELb1EEEE5firstB7v160006Ev, symObjAddr: 0x4560, symBinAddr: 0x100006368, symSize: 0x24 }
  - { offsetInCU: 0x1DAB5, offset: 0x1DAB5, size: 0x8, addend: 0x0, symName: __ZNSt3__122__compressed_pair_elemImLi0ELb0EE5__getB7v160006Ev, symObjAddr: 0x4584, symBinAddr: 0x10000638C, symSize: 0x14 }
  - { offsetInCU: 0x1DADB, offset: 0x1DADB, size: 0x8, addend: 0x0, symName: __ZNSt3__16vectorIN8nlohmann16json_abi_v3_11_210basic_jsonINS_3mapES0_NS_12basic_stringIcNS_11char_traitsIcEENS_9allocatorIcEEEEbxydS8_NS2_14adl_serializerENS0_IhNS8_IhEEEEvEENS8_ISE_EEED2B7v160006Ev, symObjAddr: 0x4598, symBinAddr: 0x1000063A0, symSize: 0x44 }
  - { offsetInCU: 0x1DB05, offset: 0x1DB05, size: 0x8, addend: 0x0, symName: __ZNSt3__16vectorIN8nlohmann16json_abi_v3_11_210basic_jsonINS_3mapES0_NS_12basic_stringIcNS_11char_traitsIcEENS_9allocatorIcEEEEbxydS8_NS2_14adl_serializerENS0_IhNS8_IhEEEEvEENS8_ISE_EEE16__destroy_vectorC1ERSG_, symObjAddr: 0x45DC, symBinAddr: 0x1000063E4, symSize: 0x34 }
  - { offsetInCU: 0x1DB3E, offset: 0x1DB3E, size: 0x8, addend: 0x0, symName: __ZNSt3__16vectorIN8nlohmann16json_abi_v3_11_210basic_jsonINS_3mapES0_NS_12basic_stringIcNS_11char_traitsIcEENS_9allocatorIcEEEEbxydS8_NS2_14adl_serializerENS0_IhNS8_IhEEEEvEENS8_ISE_EEE16__destroy_vectorclB7v160006Ev, symObjAddr: 0x4610, symBinAddr: 0x100006418, symSize: 0x9C }
  - { offsetInCU: 0x1DB64, offset: 0x1DB64, size: 0x8, addend: 0x0, symName: __ZNSt3__16vectorIN8nlohmann16json_abi_v3_11_210basic_jsonINS_3mapES0_NS_12basic_stringIcNS_11char_traitsIcEENS_9allocatorIcEEEEbxydS8_NS2_14adl_serializerENS0_IhNS8_IhEEEEvEENS8_ISE_EEE16__destroy_vectorC2ERSG_, symObjAddr: 0x46AC, symBinAddr: 0x1000064B4, symSize: 0x20 }
  - { offsetInCU: 0x1DB9D, offset: 0x1DB9D, size: 0x8, addend: 0x0, symName: __ZNSt3__19allocatorINS_3mapINS_12basic_stringIcNS_11char_traitsIcEENS0_IcEEEEN8nlohmann16json_abi_v3_11_210basic_jsonIS1_NS_6vectorES6_bxydS0_NS8_14adl_serializerENSA_IhNS0_IhEEEEvEENS_4lessIvEENS0_INS_4pairIKS6_SE_EEEEEEEC2B7v160006Ev, symObjAddr: 0x46DC, symBinAddr: 0x1000064E4, symSize: 0x2C }
  - { offsetInCU: 0x1DBC7, offset: 0x1DBC7, size: 0x8, addend: 0x0, symName: __ZNSt3__116__non_trivial_ifILb1ENS_9allocatorINS_3mapINS_12basic_stringIcNS_11char_traitsIcEENS1_IcEEEEN8nlohmann16json_abi_v3_11_210basic_jsonIS2_NS_6vectorES7_bxydS1_NS9_14adl_serializerENSB_IhNS1_IhEEEEvEENS_4lessIvEENS1_INS_4pairIKS7_SF_EEEEEEEEEC2B7v160006Ev, symObjAddr: 0x4708, symBinAddr: 0x100006510, symSize: 0x14 }
  - { offsetInCU: 0x1DBF1, offset: 0x1DBF1, size: 0x8, addend: 0x0, symName: __ZNSt3__19allocatorINS_3mapINS_12basic_stringIcNS_11char_traitsIcEENS0_IcEEEEN8nlohmann16json_abi_v3_11_210basic_jsonIS1_NS_6vectorES6_bxydS0_NS8_14adl_serializerENSA_IhNS0_IhEEEEvEENS_4lessIvEENS0_INS_4pairIKS6_SE_EEEEEEE7destroyB7v160006EPSL_, symObjAddr: 0x471C, symBinAddr: 0x100006524, symSize: 0x28 }
  - { offsetInCU: 0x1DC25, offset: 0x1DC25, size: 0x8, addend: 0x0, symName: __ZNSt3__13mapINS_12basic_stringIcNS_11char_traitsIcEENS_9allocatorIcEEEEN8nlohmann16json_abi_v3_11_210basic_jsonIS0_NS_6vectorES6_bxydS4_NS8_14adl_serializerENSA_IhNS4_IhEEEEvEENS_4lessIvEENS4_INS_4pairIKS6_SE_EEEEED1B7v160006Ev, symObjAddr: 0x4744, symBinAddr: 0x10000654C, symSize: 0x2C }
  - { offsetInCU: 0x1DC4F, offset: 0x1DC4F, size: 0x8, addend: 0x0, symName: __ZNSt3__13mapINS_12basic_stringIcNS_11char_traitsIcEENS_9allocatorIcEEEEN8nlohmann16json_abi_v3_11_210basic_jsonIS0_NS_6vectorES6_bxydS4_NS8_14adl_serializerENSA_IhNS4_IhEEEEvEENS_4lessIvEENS4_INS_4pairIKS6_SE_EEEEED2B7v160006Ev, symObjAddr: 0x4770, symBinAddr: 0x100006578, symSize: 0x2C }
  - { offsetInCU: 0x1DC79, offset: 0x1DC79, size: 0x8, addend: 0x0, symName: __ZNSt3__16__treeINS_12__value_typeINS_12basic_stringIcNS_11char_traitsIcEENS_9allocatorIcEEEEN8nlohmann16json_abi_v3_11_210basic_jsonINS_3mapENS_6vectorES7_bxydS5_NS9_14adl_serializerENSC_IhNS5_IhEEEEvEEEENS_19__map_value_compareIS7_SH_NS_4lessIvEELb1EEENS5_ISH_EEED1Ev, symObjAddr: 0x479C, symBinAddr: 0x1000065A4, symSize: 0x2C }
  - { offsetInCU: 0x1DCA5, offset: 0x1DCA5, size: 0x8, addend: 0x0, symName: __ZNSt3__16__treeINS_12__value_typeINS_12basic_stringIcNS_11char_traitsIcEENS_9allocatorIcEEEEN8nlohmann16json_abi_v3_11_210basic_jsonINS_3mapENS_6vectorES7_bxydS5_NS9_14adl_serializerENSC_IhNS5_IhEEEEvEEEENS_19__map_value_compareIS7_SH_NS_4lessIvEELb1EEENS5_ISH_EEED2Ev, symObjAddr: 0x47C8, symBinAddr: 0x1000065D0, symSize: 0x38 }
  - { offsetInCU: 0x1DCD1, offset: 0x1DCD1, size: 0x8, addend: 0x0, symName: __ZNSt3__19allocatorINS_3mapINS_12basic_stringIcNS_11char_traitsIcEENS0_IcEEEEN8nlohmann16json_abi_v3_11_210basic_jsonIS1_NS_6vectorES6_bxydS0_NS8_14adl_serializerENSA_IhNS0_IhEEEEvEENS_4lessIvEENS0_INS_4pairIKS6_SE_EEEEEEE10deallocateB7v160006EPSL_m, symObjAddr: 0x4800, symBinAddr: 0x100006608, symSize: 0x44 }
  - { offsetInCU: 0x1DD13, offset: 0x1DD13, size: 0x8, addend: 0x0, symName: __ZNSt3__19allocatorINS_6vectorIN8nlohmann16json_abi_v3_11_210basic_jsonINS_3mapES1_NS_12basic_stringIcNS_11char_traitsIcEENS0_IcEEEEbxydS0_NS3_14adl_serializerENS1_IhNS0_IhEEEEvEENS0_ISE_EEEEEC2B7v160006Ev, symObjAddr: 0x4844, symBinAddr: 0x10000664C, symSize: 0x2C }
  - { offsetInCU: 0x1DD3D, offset: 0x1DD3D, size: 0x8, addend: 0x0, symName: __ZNSt3__116__non_trivial_ifILb1ENS_9allocatorINS_6vectorIN8nlohmann16json_abi_v3_11_210basic_jsonINS_3mapES2_NS_12basic_stringIcNS_11char_traitsIcEENS1_IcEEEEbxydS1_NS4_14adl_serializerENS2_IhNS1_IhEEEEvEENS1_ISF_EEEEEEEC2B7v160006Ev, symObjAddr: 0x4870, symBinAddr: 0x100006678, symSize: 0x14 }
  - { offsetInCU: 0x1DD67, offset: 0x1DD67, size: 0x8, addend: 0x0, symName: __ZNSt3__19allocatorINS_6vectorIN8nlohmann16json_abi_v3_11_210basic_jsonINS_3mapES1_NS_12basic_stringIcNS_11char_traitsIcEENS0_IcEEEEbxydS0_NS3_14adl_serializerENS1_IhNS0_IhEEEEvEENS0_ISE_EEEEE7destroyB7v160006EPSG_, symObjAddr: 0x4884, symBinAddr: 0x10000668C, symSize: 0x28 }
  - { offsetInCU: 0x1DD9B, offset: 0x1DD9B, size: 0x8, addend: 0x0, symName: __ZNSt3__19allocatorINS_6vectorIN8nlohmann16json_abi_v3_11_210basic_jsonINS_3mapES1_NS_12basic_stringIcNS_11char_traitsIcEENS0_IcEEEEbxydS0_NS3_14adl_serializerENS1_IhNS0_IhEEEEvEENS0_ISE_EEEEE10deallocateB7v160006EPSG_m, symObjAddr: 0x48AC, symBinAddr: 0x1000066B4, symSize: 0x44 }
  - { offsetInCU: 0x1DDDD, offset: 0x1DDDD, size: 0x8, addend: 0x0, symName: __ZNSt3__19allocatorINS_12basic_stringIcNS_11char_traitsIcEENS0_IcEEEEEC2B7v160006Ev, symObjAddr: 0x48F0, symBinAddr: 0x1000066F8, symSize: 0x2C }
  - { offsetInCU: 0x1DE07, offset: 0x1DE07, size: 0x8, addend: 0x0, symName: __ZNSt3__116__non_trivial_ifILb1ENS_9allocatorINS_12basic_stringIcNS_11char_traitsIcEENS1_IcEEEEEEEC2B7v160006Ev, symObjAddr: 0x491C, symBinAddr: 0x100006724, symSize: 0x14 }
  - { offsetInCU: 0x1DE31, offset: 0x1DE31, size: 0x8, addend: 0x0, symName: __ZNSt3__19allocatorINS_12basic_stringIcNS_11char_traitsIcEENS0_IcEEEEE7destroyB7v160006EPS5_, symObjAddr: 0x4930, symBinAddr: 0x100006738, symSize: 0x28 }
  - { offsetInCU: 0x1DE65, offset: 0x1DE65, size: 0x8, addend: 0x0, symName: __ZNSt3__19allocatorINS_12basic_stringIcNS_11char_traitsIcEENS0_IcEEEEE10deallocateB7v160006EPS5_m, symObjAddr: 0x4958, symBinAddr: 0x100006760, symSize: 0x44 }
  - { offsetInCU: 0x1DEA7, offset: 0x1DEA7, size: 0x8, addend: 0x0, symName: __ZNSt3__19allocatorIN8nlohmann16json_abi_v3_11_227byte_container_with_subtypeINS_6vectorIhNS0_IhEEEEEEEC2B7v160006Ev, symObjAddr: 0x499C, symBinAddr: 0x1000067A4, symSize: 0x2C }
  - { offsetInCU: 0x1DED1, offset: 0x1DED1, size: 0x8, addend: 0x0, symName: __ZNSt3__116__non_trivial_ifILb1ENS_9allocatorIN8nlohmann16json_abi_v3_11_227byte_container_with_subtypeINS_6vectorIhNS1_IhEEEEEEEEEC2B7v160006Ev, symObjAddr: 0x49C8, symBinAddr: 0x1000067D0, symSize: 0x14 }
  - { offsetInCU: 0x1DEFB, offset: 0x1DEFB, size: 0x8, addend: 0x0, symName: __ZNSt3__19allocatorIN8nlohmann16json_abi_v3_11_227byte_container_with_subtypeINS_6vectorIhNS0_IhEEEEEEE7destroyB7v160006EPS7_, symObjAddr: 0x49DC, symBinAddr: 0x1000067E4, symSize: 0x28 }
  - { offsetInCU: 0x1DF2F, offset: 0x1DF2F, size: 0x8, addend: 0x0, symName: __ZN8nlohmann16json_abi_v3_11_227byte_container_with_subtypeINSt3__16vectorIhNS2_9allocatorIhEEEEED1Ev, symObjAddr: 0x4A04, symBinAddr: 0x10000680C, symSize: 0x2C }
  - { offsetInCU: 0x1DF5C, offset: 0x1DF5C, size: 0x8, addend: 0x0, symName: __ZN8nlohmann16json_abi_v3_11_227byte_container_with_subtypeINSt3__16vectorIhNS2_9allocatorIhEEEEED2Ev, symObjAddr: 0x4A30, symBinAddr: 0x100006838, symSize: 0x2C }
  - { offsetInCU: 0x1DF89, offset: 0x1DF89, size: 0x8, addend: 0x0, symName: __ZNSt3__16vectorIhNS_9allocatorIhEEED2B7v160006Ev, symObjAddr: 0x4A5C, symBinAddr: 0x100006864, symSize: 0x44 }
  - { offsetInCU: 0x1DFB3, offset: 0x1DFB3, size: 0x8, addend: 0x0, symName: __ZNSt3__16vectorIhNS_9allocatorIhEEE16__destroy_vectorC1ERS3_, symObjAddr: 0x4AA0, symBinAddr: 0x1000068A8, symSize: 0x34 }
  - { offsetInCU: 0x1DFEC, offset: 0x1DFEC, size: 0x8, addend: 0x0, symName: __ZNSt3__16vectorIhNS_9allocatorIhEEE16__destroy_vectorclB7v160006Ev, symObjAddr: 0x4AD4, symBinAddr: 0x1000068DC, symSize: 0x9C }
  - { offsetInCU: 0x1E012, offset: 0x1E012, size: 0x8, addend: 0x0, symName: __ZNSt3__16vectorIhNS_9allocatorIhEEE16__destroy_vectorC2ERS3_, symObjAddr: 0x4B70, symBinAddr: 0x100006978, symSize: 0x20 }
  - { offsetInCU: 0x1E04B, offset: 0x1E04B, size: 0x8, addend: 0x0, symName: __ZNKSt3__16vectorIhNS_9allocatorIhEEE17__annotate_deleteB7v160006Ev, symObjAddr: 0x4B90, symBinAddr: 0x100006998, symSize: 0xB8 }
  - { offsetInCU: 0x1E071, offset: 0x1E071, size: 0x8, addend: 0x0, symName: __ZNSt3__16vectorIhNS_9allocatorIhEEE7__clearB7v160006Ev, symObjAddr: 0x4C58, symBinAddr: 0x100006A60, symSize: 0x28 }
  - { offsetInCU: 0x1E097, offset: 0x1E097, size: 0x8, addend: 0x0, symName: __ZNSt3__116allocator_traitsINS_9allocatorIhEEE10deallocateB7v160006ERS2_Phm, symObjAddr: 0x4C80, symBinAddr: 0x100006A88, symSize: 0x34 }
  - { offsetInCU: 0x1E0D9, offset: 0x1E0D9, size: 0x8, addend: 0x0, symName: __ZNSt3__16vectorIhNS_9allocatorIhEEE7__allocB7v160006Ev, symObjAddr: 0x4CB4, symBinAddr: 0x100006ABC, symSize: 0x28 }
  - { offsetInCU: 0x1E0FF, offset: 0x1E0FF, size: 0x8, addend: 0x0, symName: __ZNKSt3__16vectorIhNS_9allocatorIhEEE8capacityB7v160006Ev, symObjAddr: 0x4CDC, symBinAddr: 0x100006AE4, symSize: 0x38 }
  - { offsetInCU: 0x1E125, offset: 0x1E125, size: 0x8, addend: 0x0, symName: __ZNKSt3__16vectorIhNS_9allocatorIhEEE31__annotate_contiguous_containerB7v160006EPKvS5_S5_S5_, symObjAddr: 0x4D14, symBinAddr: 0x100006B1C, symSize: 0x20 }
  - { offsetInCU: 0x1E177, offset: 0x1E177, size: 0x8, addend: 0x0, symName: __ZNKSt3__16vectorIhNS_9allocatorIhEEE4dataB7v160006Ev, symObjAddr: 0x4D34, symBinAddr: 0x100006B3C, symSize: 0x28 }
  - { offsetInCU: 0x1E19D, offset: 0x1E19D, size: 0x8, addend: 0x0, symName: __ZNKSt3__16vectorIhNS_9allocatorIhEEE4sizeB7v160006Ev, symObjAddr: 0x4D5C, symBinAddr: 0x100006B64, symSize: 0x20 }
  - { offsetInCU: 0x1E1C3, offset: 0x1E1C3, size: 0x8, addend: 0x0, symName: __ZNSt3__16vectorIhNS_9allocatorIhEEE22__base_destruct_at_endB7v160006EPh, symObjAddr: 0x4D90, symBinAddr: 0x100006B98, symSize: 0x8C }
  - { offsetInCU: 0x1E207, offset: 0x1E207, size: 0x8, addend: 0x0, symName: __ZNSt3__116allocator_traitsINS_9allocatorIhEEE7destroyB7v160006IhvEEvRS2_PT_, symObjAddr: 0x4E1C, symBinAddr: 0x100006C24, symSize: 0x2C }
  - { offsetInCU: 0x1E244, offset: 0x1E244, size: 0x8, addend: 0x0, symName: __ZNSt3__19allocatorIhE7destroyB7v160006EPh, symObjAddr: 0x4E48, symBinAddr: 0x100006C50, symSize: 0x14 }
  - { offsetInCU: 0x1E278, offset: 0x1E278, size: 0x8, addend: 0x0, symName: __ZNSt3__19allocatorIhE10deallocateB7v160006EPhm, symObjAddr: 0x4E5C, symBinAddr: 0x100006C64, symSize: 0x40 }
  - { offsetInCU: 0x1E2BA, offset: 0x1E2BA, size: 0x8, addend: 0x0, symName: __ZNSt3__117__compressed_pairIPhNS_9allocatorIhEEE6secondB7v160006Ev, symObjAddr: 0x4E9C, symBinAddr: 0x100006CA4, symSize: 0x24 }
  - { offsetInCU: 0x1E2E0, offset: 0x1E2E0, size: 0x8, addend: 0x0, symName: __ZNSt3__122__compressed_pair_elemINS_9allocatorIhEELi1ELb1EE5__getB7v160006Ev, symObjAddr: 0x4EC0, symBinAddr: 0x100006CC8, symSize: 0x14 }
  - { offsetInCU: 0x1E306, offset: 0x1E306, size: 0x8, addend: 0x0, symName: __ZNKSt3__16vectorIhNS_9allocatorIhEEE9__end_capB7v160006Ev, symObjAddr: 0x4ED4, symBinAddr: 0x100006CDC, symSize: 0x28 }
  - { offsetInCU: 0x1E32C, offset: 0x1E32C, size: 0x8, addend: 0x0, symName: __ZNKSt3__117__compressed_pairIPhNS_9allocatorIhEEE5firstB7v160006Ev, symObjAddr: 0x4EFC, symBinAddr: 0x100006D04, symSize: 0x24 }
  - { offsetInCU: 0x1E352, offset: 0x1E352, size: 0x8, addend: 0x0, symName: __ZNKSt3__122__compressed_pair_elemIPhLi0ELb0EE5__getB7v160006Ev, symObjAddr: 0x4F20, symBinAddr: 0x100006D28, symSize: 0x14 }
  - { offsetInCU: 0x1E378, offset: 0x1E378, size: 0x8, addend: 0x0, symName: __ZNSt3__19allocatorIN8nlohmann16json_abi_v3_11_227byte_container_with_subtypeINS_6vectorIhNS0_IhEEEEEEE10deallocateB7v160006EPS7_m, symObjAddr: 0x4F34, symBinAddr: 0x100006D3C, symSize: 0x44 }
  - { offsetInCU: 0x1E3BA, offset: 0x1E3BA, size: 0x8, addend: 0x0, symName: __ZNSt3__13mapINS_12basic_stringIcNS_11char_traitsIcEENS_9allocatorIcEEEENS_6vectorI5ErrorNS4_IS8_EEEENS_4lessIS6_EENS4_INS_4pairIKS6_SA_EEEEED2B7v160006Ev, symObjAddr: 0x4F78, symBinAddr: 0x100006D80, symSize: 0x2C }
  - { offsetInCU: 0x1E3E4, offset: 0x1E3E4, size: 0x8, addend: 0x0, symName: __ZNSt3__16__treeINS_12__value_typeINS_12basic_stringIcNS_11char_traitsIcEENS_9allocatorIcEEEENS_6vectorI5ErrorNS5_IS9_EEEEEENS_19__map_value_compareIS7_SC_NS_4lessIS7_EELb1EEENS5_ISC_EEED1Ev, symObjAddr: 0x4FA4, symBinAddr: 0x100006DAC, symSize: 0x2C }
  - { offsetInCU: 0x1E410, offset: 0x1E410, size: 0x8, addend: 0x0, symName: __ZNSt3__16__treeINS_12__value_typeINS_12basic_stringIcNS_11char_traitsIcEENS_9allocatorIcEEEENS_6vectorI5ErrorNS5_IS9_EEEEEENS_19__map_value_compareIS7_SC_NS_4lessIS7_EELb1EEENS5_ISC_EEED2Ev, symObjAddr: 0x4FD0, symBinAddr: 0x100006DD8, symSize: 0x38 }
  - { offsetInCU: 0x1E43C, offset: 0x1E43C, size: 0x8, addend: 0x0, symName: __ZNSt3__16__treeINS_12__value_typeINS_12basic_stringIcNS_11char_traitsIcEENS_9allocatorIcEEEENS_6vectorI5ErrorNS5_IS9_EEEEEENS_19__map_value_compareIS7_SC_NS_4lessIS7_EELb1EEENS5_ISC_EEE7destroyEPNS_11__tree_nodeISC_PvEE, symObjAddr: 0x5008, symBinAddr: 0x100006E10, symSize: 0xAC }
  - { offsetInCU: 0x1E488, offset: 0x1E488, size: 0x8, addend: 0x0, symName: __ZNKSt3__16__treeINS_12__value_typeINS_12basic_stringIcNS_11char_traitsIcEENS_9allocatorIcEEEENS_6vectorI5ErrorNS5_IS9_EEEEEENS_19__map_value_compareIS7_SC_NS_4lessIS7_EELb1EEENS5_ISC_EEE6__rootB7v160006Ev, symObjAddr: 0x50B4, symBinAddr: 0x100006EBC, symSize: 0x28 }
  - { offsetInCU: 0x1E4AE, offset: 0x1E4AE, size: 0x8, addend: 0x0, symName: __ZNSt3__16__treeINS_12__value_typeINS_12basic_stringIcNS_11char_traitsIcEENS_9allocatorIcEEEENS_6vectorI5ErrorNS5_IS9_EEEEEENS_19__map_value_compareIS7_SC_NS_4lessIS7_EELb1EEENS5_ISC_EEE12__node_allocB7v160006Ev, symObjAddr: 0x50DC, symBinAddr: 0x100006EE4, symSize: 0x28 }
  - { offsetInCU: 0x1E4DA, offset: 0x1E4DA, size: 0x8, addend: 0x0, symName: __ZNSt3__116allocator_traitsINS_9allocatorINS_11__tree_nodeINS_12__value_typeINS_12basic_stringIcNS_11char_traitsIcEENS1_IcEEEENS_6vectorI5ErrorNS1_ISA_EEEEEEPvEEEEE7destroyB7v160006INS_4pairIKS8_SC_EEvvEEvRSG_PT_, symObjAddr: 0x5104, symBinAddr: 0x100006F0C, symSize: 0x28 }
  - { offsetInCU: 0x1E514, offset: 0x1E514, size: 0x8, addend: 0x0, symName: __ZNSt3__122__tree_key_value_typesINS_12__value_typeINS_12basic_stringIcNS_11char_traitsIcEENS_9allocatorIcEEEENS_6vectorI5ErrorNS5_IS9_EEEEEEE9__get_ptrB7v160006ERSC_, symObjAddr: 0x512C, symBinAddr: 0x100006F34, symSize: 0x24 }
  - { offsetInCU: 0x1E538, offset: 0x1E538, size: 0x8, addend: 0x0, symName: __ZNSt3__116allocator_traitsINS_9allocatorINS_11__tree_nodeINS_12__value_typeINS_12basic_stringIcNS_11char_traitsIcEENS1_IcEEEENS_6vectorI5ErrorNS1_ISA_EEEEEEPvEEEEE10deallocateB7v160006ERSG_PSF_m, symObjAddr: 0x5150, symBinAddr: 0x100006F58, symSize: 0x34 }
  - { offsetInCU: 0x1E57A, offset: 0x1E57A, size: 0x8, addend: 0x0, symName: __ZNSt3__117__compressed_pairINS_15__tree_end_nodeIPNS_16__tree_node_baseIPvEEEENS_9allocatorINS_11__tree_nodeINS_12__value_typeINS_12basic_stringIcNS_11char_traitsIcEENS7_IcEEEENS_6vectorI5ErrorNS7_ISG_EEEEEES3_EEEEE6secondB7v160006Ev, symObjAddr: 0x5184, symBinAddr: 0x100006F8C, symSize: 0x24 }
  - { offsetInCU: 0x1E5A0, offset: 0x1E5A0, size: 0x8, addend: 0x0, symName: __ZNSt3__122__compressed_pair_elemINS_9allocatorINS_11__tree_nodeINS_12__value_typeINS_12basic_stringIcNS_11char_traitsIcEENS1_IcEEEENS_6vectorI5ErrorNS1_ISA_EEEEEEPvEEEELi1ELb1EE5__getB7v160006Ev, symObjAddr: 0x51A8, symBinAddr: 0x100006FB0, symSize: 0x14 }
  - { offsetInCU: 0x1E5C6, offset: 0x1E5C6, size: 0x8, addend: 0x0, symName: __ZNSt3__14pairIKNS_12basic_stringIcNS_11char_traitsIcEENS_9allocatorIcEEEENS_6vectorI5ErrorNS4_IS9_EEEEED1Ev, symObjAddr: 0x51BC, symBinAddr: 0x100006FC4, symSize: 0x2C }
  - { offsetInCU: 0x1E5F2, offset: 0x1E5F2, size: 0x8, addend: 0x0, symName: __ZNSt3__14pairIKNS_12basic_stringIcNS_11char_traitsIcEENS_9allocatorIcEEEENS_6vectorI5ErrorNS4_IS9_EEEEED2Ev, symObjAddr: 0x51E8, symBinAddr: 0x100006FF0, symSize: 0x38 }
  - { offsetInCU: 0x1E61E, offset: 0x1E61E, size: 0x8, addend: 0x0, symName: __ZNSt3__16vectorI5ErrorNS_9allocatorIS1_EEED1B7v160006Ev, symObjAddr: 0x5220, symBinAddr: 0x100007028, symSize: 0x2C }
  - { offsetInCU: 0x1E648, offset: 0x1E648, size: 0x8, addend: 0x0, symName: __ZNSt3__16vectorI5ErrorNS_9allocatorIS1_EEED2B7v160006Ev, symObjAddr: 0x524C, symBinAddr: 0x100007054, symSize: 0x44 }
  - { offsetInCU: 0x1E672, offset: 0x1E672, size: 0x8, addend: 0x0, symName: __ZNSt3__16vectorI5ErrorNS_9allocatorIS1_EEE16__destroy_vectorC1ERS4_, symObjAddr: 0x5290, symBinAddr: 0x100007098, symSize: 0x34 }
  - { offsetInCU: 0x1E6AB, offset: 0x1E6AB, size: 0x8, addend: 0x0, symName: __ZNSt3__16vectorI5ErrorNS_9allocatorIS1_EEE16__destroy_vectorclB7v160006Ev, symObjAddr: 0x52C4, symBinAddr: 0x1000070CC, symSize: 0x9C }
  - { offsetInCU: 0x1E6D1, offset: 0x1E6D1, size: 0x8, addend: 0x0, symName: __ZNSt3__16vectorI5ErrorNS_9allocatorIS1_EEE16__destroy_vectorC2ERS4_, symObjAddr: 0x5360, symBinAddr: 0x100007168, symSize: 0x20 }
  - { offsetInCU: 0x1E70A, offset: 0x1E70A, size: 0x8, addend: 0x0, symName: __ZNKSt3__16vectorI5ErrorNS_9allocatorIS1_EEE17__annotate_deleteB7v160006Ev, symObjAddr: 0x5380, symBinAddr: 0x100007188, symSize: 0xD4 }
  - { offsetInCU: 0x1E730, offset: 0x1E730, size: 0x8, addend: 0x0, symName: __ZNSt3__16vectorI5ErrorNS_9allocatorIS1_EEE7__clearB7v160006Ev, symObjAddr: 0x5464, symBinAddr: 0x10000726C, symSize: 0x28 }
  - { offsetInCU: 0x1E756, offset: 0x1E756, size: 0x8, addend: 0x0, symName: __ZNSt3__116allocator_traitsINS_9allocatorI5ErrorEEE10deallocateB7v160006ERS3_PS2_m, symObjAddr: 0x548C, symBinAddr: 0x100007294, symSize: 0x34 }
  - { offsetInCU: 0x1E798, offset: 0x1E798, size: 0x8, addend: 0x0, symName: __ZNSt3__16vectorI5ErrorNS_9allocatorIS1_EEE7__allocB7v160006Ev, symObjAddr: 0x54C0, symBinAddr: 0x1000072C8, symSize: 0x28 }
  - { offsetInCU: 0x1E7BE, offset: 0x1E7BE, size: 0x8, addend: 0x0, symName: __ZNKSt3__16vectorI5ErrorNS_9allocatorIS1_EEE8capacityB7v160006Ev, symObjAddr: 0x54E8, symBinAddr: 0x1000072F0, symSize: 0x40 }
  - { offsetInCU: 0x1E7E4, offset: 0x1E7E4, size: 0x8, addend: 0x0, symName: __ZNKSt3__16vectorI5ErrorNS_9allocatorIS1_EEE31__annotate_contiguous_containerB7v160006EPKvS6_S6_S6_, symObjAddr: 0x5528, symBinAddr: 0x100007330, symSize: 0x20 }
  - { offsetInCU: 0x1E836, offset: 0x1E836, size: 0x8, addend: 0x0, symName: __ZNKSt3__16vectorI5ErrorNS_9allocatorIS1_EEE4dataB7v160006Ev, symObjAddr: 0x5548, symBinAddr: 0x100007350, symSize: 0x28 }
  - { offsetInCU: 0x1E85C, offset: 0x1E85C, size: 0x8, addend: 0x0, symName: __ZNKSt3__16vectorI5ErrorNS_9allocatorIS1_EEE4sizeB7v160006Ev, symObjAddr: 0x5570, symBinAddr: 0x100007378, symSize: 0x28 }
  - { offsetInCU: 0x1E882, offset: 0x1E882, size: 0x8, addend: 0x0, symName: __ZNSt3__16vectorI5ErrorNS_9allocatorIS1_EEE22__base_destruct_at_endB7v160006EPS1_, symObjAddr: 0x55AC, symBinAddr: 0x1000073B4, symSize: 0x8C }
  - { offsetInCU: 0x1E8C6, offset: 0x1E8C6, size: 0x8, addend: 0x0, symName: __ZNSt3__116allocator_traitsINS_9allocatorI5ErrorEEE7destroyB7v160006IS2_vEEvRS3_PT_, symObjAddr: 0x5638, symBinAddr: 0x100007440, symSize: 0x2C }
  - { offsetInCU: 0x1E903, offset: 0x1E903, size: 0x8, addend: 0x0, symName: __ZNSt3__19allocatorI5ErrorE7destroyB7v160006EPS1_, symObjAddr: 0x5664, symBinAddr: 0x10000746C, symSize: 0x28 }
  - { offsetInCU: 0x1E93D, offset: 0x1E93D, size: 0x8, addend: 0x0, symName: __ZN5ErrorD1Ev, symObjAddr: 0x568C, symBinAddr: 0x100007494, symSize: 0x2C }
  - { offsetInCU: 0x1E969, offset: 0x1E969, size: 0x8, addend: 0x0, symName: __ZN5ErrorD2Ev, symObjAddr: 0x56B8, symBinAddr: 0x1000074C0, symSize: 0x44 }
  - { offsetInCU: 0x1E995, offset: 0x1E995, size: 0x8, addend: 0x0, symName: __ZNSt3__19allocatorI5ErrorE10deallocateB7v160006EPS1_m, symObjAddr: 0x56FC, symBinAddr: 0x100007504, symSize: 0x44 }
  - { offsetInCU: 0x1E9D7, offset: 0x1E9D7, size: 0x8, addend: 0x0, symName: __ZNSt3__117__compressed_pairIP5ErrorNS_9allocatorIS1_EEE6secondB7v160006Ev, symObjAddr: 0x5740, symBinAddr: 0x100007548, symSize: 0x24 }
  - { offsetInCU: 0x1E9FD, offset: 0x1E9FD, size: 0x8, addend: 0x0, symName: __ZNSt3__122__compressed_pair_elemINS_9allocatorI5ErrorEELi1ELb1EE5__getB7v160006Ev, symObjAddr: 0x5764, symBinAddr: 0x10000756C, symSize: 0x14 }
  - { offsetInCU: 0x1EA23, offset: 0x1EA23, size: 0x8, addend: 0x0, symName: __ZNKSt3__16vectorI5ErrorNS_9allocatorIS1_EEE9__end_capB7v160006Ev, symObjAddr: 0x5778, symBinAddr: 0x100007580, symSize: 0x28 }
  - { offsetInCU: 0x1EA49, offset: 0x1EA49, size: 0x8, addend: 0x0, symName: __ZNKSt3__117__compressed_pairIP5ErrorNS_9allocatorIS1_EEE5firstB7v160006Ev, symObjAddr: 0x57A0, symBinAddr: 0x1000075A8, symSize: 0x24 }
  - { offsetInCU: 0x1EA6F, offset: 0x1EA6F, size: 0x8, addend: 0x0, symName: __ZNKSt3__122__compressed_pair_elemIP5ErrorLi0ELb0EE5__getB7v160006Ev, symObjAddr: 0x57C4, symBinAddr: 0x1000075CC, symSize: 0x14 }
  - { offsetInCU: 0x1EA95, offset: 0x1EA95, size: 0x8, addend: 0x0, symName: __ZNSt3__112__value_typeINS_12basic_stringIcNS_11char_traitsIcEENS_9allocatorIcEEEENS_6vectorI5ErrorNS4_IS8_EEEEE11__get_valueB7v160006Ev, symObjAddr: 0x57D8, symBinAddr: 0x1000075E0, symSize: 0x24 }
  - { offsetInCU: 0x1EABB, offset: 0x1EABB, size: 0x8, addend: 0x0, symName: __ZNSt3__19allocatorINS_11__tree_nodeINS_12__value_typeINS_12basic_stringIcNS_11char_traitsIcEENS0_IcEEEENS_6vectorI5ErrorNS0_IS9_EEEEEEPvEEE10deallocateB7v160006EPSE_m, symObjAddr: 0x5834, symBinAddr: 0x10000763C, symSize: 0x44 }
  - { offsetInCU: 0x1EAFD, offset: 0x1EAFD, size: 0x8, addend: 0x0, symName: __ZNKSt3__16__treeINS_12__value_typeINS_12basic_stringIcNS_11char_traitsIcEENS_9allocatorIcEEEENS_6vectorI5ErrorNS5_IS9_EEEEEENS_19__map_value_compareIS7_SC_NS_4lessIS7_EELb1EEENS5_ISC_EEE10__end_nodeB7v160006Ev, symObjAddr: 0x5878, symBinAddr: 0x100007680, symSize: 0x2C }
  - { offsetInCU: 0x1EB23, offset: 0x1EB23, size: 0x8, addend: 0x0, symName: __ZNKSt3__117__compressed_pairINS_15__tree_end_nodeIPNS_16__tree_node_baseIPvEEEENS_9allocatorINS_11__tree_nodeINS_12__value_typeINS_12basic_stringIcNS_11char_traitsIcEENS7_IcEEEENS_6vectorI5ErrorNS7_ISG_EEEEEES3_EEEEE5firstB7v160006Ev, symObjAddr: 0x58A4, symBinAddr: 0x1000076AC, symSize: 0x24 }
  - { offsetInCU: 0x1EB49, offset: 0x1EB49, size: 0x8, addend: 0x0, symName: __ZN8nlohmann16json_abi_v3_11_210basic_jsonINSt3__13mapENS2_6vectorENS2_12basic_stringIcNS2_11char_traitsIcEENS2_9allocatorIcEEEEbxydS8_NS0_14adl_serializerENS4_IhNS8_IhEEEEvEixESA_, symObjAddr: 0x58C8, symBinAddr: 0x1000076D0, symSize: 0x18C }
  - { offsetInCU: 0x1EBA3, offset: 0x1EBA3, size: 0x8, addend: 0x0, symName: __ZNSt3__112basic_stringIcNS_11char_traitsIcEENS_9allocatorIcEEEC1B7v160006IDnEEPKc, symObjAddr: 0x5A54, symBinAddr: 0x10000785C, symSize: 0x34 }
  - { offsetInCU: 0x1EBE1, offset: 0x1EBE1, size: 0x8, addend: 0x0, symName: __ZNK8nlohmann16json_abi_v3_11_210basic_jsonINSt3__13mapENS2_6vectorENS2_12basic_stringIcNS2_11char_traitsIcEENS2_9allocatorIcEEEEbxydS8_NS0_14adl_serializerENS4_IhNS8_IhEEEEvE7is_nullEv, symObjAddr: 0x5A88, symBinAddr: 0x100007890, symSize: 0x24 }
  - { offsetInCU: 0x1EC07, offset: 0x1EC07, size: 0x8, addend: 0x0, symName: __ZN8nlohmann16json_abi_v3_11_210basic_jsonINSt3__13mapENS2_6vectorENS2_12basic_stringIcNS2_11char_traitsIcEENS2_9allocatorIcEEEEbxydS8_NS0_14adl_serializerENS4_IhNS8_IhEEEEvE6createINS3_ISA_SE_NS2_4lessIvEENS8_INS2_4pairIKSA_SE_EEEEEEJEEEPT_DpOT0_, symObjAddr: 0x5AAC, symBinAddr: 0x1000078B4, symSize: 0xEC }
  - { offsetInCU: 0x1EC86, offset: 0x1EC86, size: 0x8, addend: 0x0, symName: __ZNSt3__13mapINS_12basic_stringIcNS_11char_traitsIcEENS_9allocatorIcEEEEN8nlohmann16json_abi_v3_11_210basic_jsonIS0_NS_6vectorES6_bxydS4_NS8_14adl_serializerENSA_IhNS4_IhEEEEvEENS_4lessIvEENS4_INS_4pairIKS6_SE_EEEEE7emplaceB7v160006IJS6_DnEEENSH_INS_14__map_iteratorINS_15__tree_iteratorINS_12__value_typeIS6_SE_EEPNS_11__tree_nodeISQ_PvEElEEEEbEEDpOT_, symObjAddr: 0x5B98, symBinAddr: 0x1000079A0, symSize: 0x54 }
  - { offsetInCU: 0x1ECDA, offset: 0x1ECDA, size: 0x8, addend: 0x0, symName: __ZN8nlohmann16json_abi_v3_11_210basic_jsonINSt3__13mapENS2_6vectorENS2_12basic_stringIcNS2_11char_traitsIcEENS2_9allocatorIcEEEEbxydS8_NS0_14adl_serializerENS4_IhNS8_IhEEEEvE10set_parentERSE_m, symObjAddr: 0x5BEC, symBinAddr: 0x1000079F4, symSize: 0x1C }
  - { offsetInCU: 0x1ED1E, offset: 0x1ED1E, size: 0x8, addend: 0x0, symName: __ZNKSt3__114__map_iteratorINS_15__tree_iteratorINS_12__value_typeINS_12basic_stringIcNS_11char_traitsIcEENS_9allocatorIcEEEEN8nlohmann16json_abi_v3_11_210basic_jsonINS_3mapENS_6vectorES8_bxydS6_NSA_14adl_serializerENSD_IhNS6_IhEEEEvEEEEPNS_11__tree_nodeISI_PvEElEEEptB7v160006Ev, symObjAddr: 0x5C08, symBinAddr: 0x100007A10, symSize: 0x2C }
  - { offsetInCU: 0x1ED78, offset: 0x1ED78, size: 0x8, addend: 0x0, symName: __ZN8nlohmann16json_abi_v3_11_26detail10type_error6createIPNS0_10basic_jsonINSt3__13mapENS5_6vectorENS5_12basic_stringIcNS5_11char_traitsIcEENS5_9allocatorIcEEEEbxydSB_NS0_14adl_serializerENS7_IhNSB_IhEEEEvEELi0EEES2_iRKSD_T_, symObjAddr: 0x5C34, symBinAddr: 0x100007A3C, symSize: 0x130 }
  - { offsetInCU: 0x1EDD8, offset: 0x1EDD8, size: 0x8, addend: 0x0, symName: __ZNK8nlohmann16json_abi_v3_11_210basic_jsonINSt3__13mapENS2_6vectorENS2_12basic_stringIcNS2_11char_traitsIcEENS2_9allocatorIcEEEEbxydS8_NS0_14adl_serializerENS4_IhNS8_IhEEEEvE9type_nameEv, symObjAddr: 0x5E30, symBinAddr: 0x100007C38, symSize: 0xD8 }
  - { offsetInCU: 0x1EDFE, offset: 0x1EDFE, size: 0x8, addend: 0x0, symName: __ZN8nlohmann16json_abi_v3_11_26detail10type_errorD1Ev, symObjAddr: 0x5F30, symBinAddr: 0x100007D38, symSize: 0x2C }
  - { offsetInCU: 0x1EE2B, offset: 0x1EE2B, size: 0x8, addend: 0x0, symName: __ZNSt3__116allocator_traitsINS_9allocatorINS_3mapINS_12basic_stringIcNS_11char_traitsIcEENS1_IcEEEEN8nlohmann16json_abi_v3_11_210basic_jsonIS2_NS_6vectorES7_bxydS1_NS9_14adl_serializerENSB_IhNS1_IhEEEEvEENS_4lessIvEENS1_INS_4pairIKS7_SF_EEEEEEEEE8allocateB7v160006ERSN_m, symObjAddr: 0x5F5C, symBinAddr: 0x100007D64, symSize: 0x2C }
  - { offsetInCU: 0x1EEFF, offset: 0x1EEFF, size: 0x8, addend: 0x0, symName: __ZNSt3__110unique_ptrINS_3mapINS_12basic_stringIcNS_11char_traitsIcEENS_9allocatorIcEEEEN8nlohmann16json_abi_v3_11_210basic_jsonIS1_NS_6vectorES7_bxydS5_NS9_14adl_serializerENSB_IhNS5_IhEEEEvEENS_4lessIvEENS5_INS_4pairIKS7_SF_EEEEEEZNSF_6createISM_JEEEPT_DpOT0_EUlPSM_E_EC1B7v160006ILb1EvEEST_NS_16__dependent_typeINS_27__unique_ptr_deleter_sfinaeISU_EEXT_EE15__lval_ref_typeE, symObjAddr: 0x5F88, symBinAddr: 0x100007D90, symSize: 0x3C }
  - { offsetInCU: 0x1EF50, offset: 0x1EF50, size: 0x8, addend: 0x0, symName: __ZNSt3__116allocator_traitsINS_9allocatorINS_3mapINS_12basic_stringIcNS_11char_traitsIcEENS1_IcEEEEN8nlohmann16json_abi_v3_11_210basic_jsonIS2_NS_6vectorES7_bxydS1_NS9_14adl_serializerENSB_IhNS1_IhEEEEvEENS_4lessIvEENS1_INS_4pairIKS7_SF_EEEEEEEEE9constructB7v160006ISM_JEvEEvRSN_PT_DpOT0_, symObjAddr: 0x5FC4, symBinAddr: 0x100007DCC, symSize: 0x2C }
  - { offsetInCU: 0x1EF92, offset: 0x1EF92, size: 0x8, addend: 0x0, symName: __ZNKSt3__110unique_ptrINS_3mapINS_12basic_stringIcNS_11char_traitsIcEENS_9allocatorIcEEEEN8nlohmann16json_abi_v3_11_210basic_jsonIS1_NS_6vectorES7_bxydS5_NS9_14adl_serializerENSB_IhNS5_IhEEEEvEENS_4lessIvEENS5_INS_4pairIKS7_SF_EEEEEEZNSF_6createISM_JEEEPT_DpOT0_EUlPSM_E_E3getB7v160006Ev, symObjAddr: 0x5FF0, symBinAddr: 0x100007DF8, symSize: 0x28 }
  - { offsetInCU: 0x1EFB8, offset: 0x1EFB8, size: 0x8, addend: 0x0, symName: __ZNSt3__110unique_ptrINS_3mapINS_12basic_stringIcNS_11char_traitsIcEENS_9allocatorIcEEEEN8nlohmann16json_abi_v3_11_210basic_jsonIS1_NS_6vectorES7_bxydS5_NS9_14adl_serializerENSB_IhNS5_IhEEEEvEENS_4lessIvEENS5_INS_4pairIKS7_SF_EEEEEEZNSF_6createISM_JEEEPT_DpOT0_EUlPSM_E_E7releaseB7v160006Ev, symObjAddr: 0x6044, symBinAddr: 0x100007E4C, symSize: 0x44 }
  - { offsetInCU: 0x1EFED, offset: 0x1EFED, size: 0x8, addend: 0x0, symName: __ZNSt3__110unique_ptrINS_3mapINS_12basic_stringIcNS_11char_traitsIcEENS_9allocatorIcEEEEN8nlohmann16json_abi_v3_11_210basic_jsonIS1_NS_6vectorES7_bxydS5_NS9_14adl_serializerENSB_IhNS5_IhEEEEvEENS_4lessIvEENS5_INS_4pairIKS7_SF_EEEEEEZNSF_6createISM_JEEEPT_DpOT0_EUlPSM_E_ED1B7v160006Ev, symObjAddr: 0x6088, symBinAddr: 0x100007E90, symSize: 0x2C }
  - { offsetInCU: 0x1F017, offset: 0x1F017, size: 0x8, addend: 0x0, symName: __ZNSt3__19allocatorINS_3mapINS_12basic_stringIcNS_11char_traitsIcEENS0_IcEEEEN8nlohmann16json_abi_v3_11_210basic_jsonIS1_NS_6vectorES6_bxydS0_NS8_14adl_serializerENSA_IhNS0_IhEEEEvEENS_4lessIvEENS0_INS_4pairIKS6_SE_EEEEEEE8allocateB7v160006Em, symObjAddr: 0x60B4, symBinAddr: 0x100007EBC, symSize: 0x5C }
  - { offsetInCU: 0x1F056, offset: 0x1F056, size: 0x8, addend: 0x0, symName: __ZNSt3__116allocator_traitsINS_9allocatorINS_3mapINS_12basic_stringIcNS_11char_traitsIcEENS1_IcEEEEN8nlohmann16json_abi_v3_11_210basic_jsonIS2_NS_6vectorES7_bxydS1_NS9_14adl_serializerENSB_IhNS1_IhEEEEvEENS_4lessIvEENS1_INS_4pairIKS7_SF_EEEEEEEEE8max_sizeB7v160006ISN_vEEmRKSN_, symObjAddr: 0x6110, symBinAddr: 0x100007F18, symSize: 0x24 }
  - { offsetInCU: 0x1F084, offset: 0x1F084, size: 0x8, addend: 0x0, symName: __ZNKSt3__19allocatorINS_3mapINS_12basic_stringIcNS_11char_traitsIcEENS0_IcEEEEN8nlohmann16json_abi_v3_11_210basic_jsonIS1_NS_6vectorES6_bxydS0_NS8_14adl_serializerENSA_IhNS0_IhEEEEvEENS_4lessIvEENS0_INS_4pairIKS6_SE_EEEEEEE8max_sizeB7v160006Ev, symObjAddr: 0x6134, symBinAddr: 0x100007F3C, symSize: 0x18 }
  - { offsetInCU: 0x1F0AA, offset: 0x1F0AA, size: 0x8, addend: 0x0, symName: __ZNSt3__110unique_ptrINS_3mapINS_12basic_stringIcNS_11char_traitsIcEENS_9allocatorIcEEEEN8nlohmann16json_abi_v3_11_210basic_jsonIS1_NS_6vectorES7_bxydS5_NS9_14adl_serializerENSB_IhNS5_IhEEEEvEENS_4lessIvEENS5_INS_4pairIKS7_SF_EEEEEEZNSF_6createISM_JEEEPT_DpOT0_EUlPSM_E_EC2B7v160006ILb1EvEEST_NS_16__dependent_typeINS_27__unique_ptr_deleter_sfinaeISU_EEXT_EE15__lval_ref_typeE, symObjAddr: 0x614C, symBinAddr: 0x100007F54, symSize: 0x48 }
  - { offsetInCU: 0x1F0FB, offset: 0x1F0FB, size: 0x8, addend: 0x0, symName: __ZNSt3__117__compressed_pairIPNS_3mapINS_12basic_stringIcNS_11char_traitsIcEENS_9allocatorIcEEEEN8nlohmann16json_abi_v3_11_210basic_jsonIS1_NS_6vectorES7_bxydS5_NS9_14adl_serializerENSB_IhNS5_IhEEEEvEENS_4lessIvEENS5_INS_4pairIKS7_SF_EEEEEEZNSF_6createISM_JEEEPT_DpOT0_EUlSN_E_EC1B7v160006IRSN_RKSU_EEOSP_OT0_, symObjAddr: 0x6194, symBinAddr: 0x100007F9C, symSize: 0x3C }
  - { offsetInCU: 0x1F153, offset: 0x1F153, size: 0x8, addend: 0x0, symName: __ZNSt3__117__compressed_pairIPNS_3mapINS_12basic_stringIcNS_11char_traitsIcEENS_9allocatorIcEEEEN8nlohmann16json_abi_v3_11_210basic_jsonIS1_NS_6vectorES7_bxydS5_NS9_14adl_serializerENSB_IhNS5_IhEEEEvEENS_4lessIvEENS5_INS_4pairIKS7_SF_EEEEEEZNSF_6createISM_JEEEPT_DpOT0_EUlSN_E_EC2B7v160006IRSN_RKSU_EEOSP_OT0_, symObjAddr: 0x61D0, symBinAddr: 0x100007FD8, symSize: 0x48 }
  - { offsetInCU: 0x1F1AB, offset: 0x1F1AB, size: 0x8, addend: 0x0, symName: __ZNSt3__122__compressed_pair_elemIPNS_3mapINS_12basic_stringIcNS_11char_traitsIcEENS_9allocatorIcEEEEN8nlohmann16json_abi_v3_11_210basic_jsonIS1_NS_6vectorES7_bxydS5_NS9_14adl_serializerENSB_IhNS5_IhEEEEvEENS_4lessIvEENS5_INS_4pairIKS7_SF_EEEEEELi0ELb0EEC2B7v160006IRSN_vEEOT_, symObjAddr: 0x6218, symBinAddr: 0x100008020, symSize: 0x24 }
  - { offsetInCU: 0x1F1ED, offset: 0x1F1ED, size: 0x8, addend: 0x0, symName: __ZNSt3__122__compressed_pair_elemIZN8nlohmann16json_abi_v3_11_210basic_jsonINS_3mapENS_6vectorENS_12basic_stringIcNS_11char_traitsIcEENS_9allocatorIcEEEEbxydS9_NS2_14adl_serializerENS5_IhNS9_IhEEEEvE6createINS4_ISB_SF_NS_4lessIvEENS9_INS_4pairIKSB_SF_EEEEEEJEEEPT_DpOT0_EUlPSN_E_Li1ELb0EEC2B7v160006IRKSU_vEEOSO_, symObjAddr: 0x623C, symBinAddr: 0x100008044, symSize: 0x24 }
  - { offsetInCU: 0x1F22F, offset: 0x1F22F, size: 0x8, addend: 0x0, symName: __ZNSt3__19allocatorINS_3mapINS_12basic_stringIcNS_11char_traitsIcEENS0_IcEEEEN8nlohmann16json_abi_v3_11_210basic_jsonIS1_NS_6vectorES6_bxydS0_NS8_14adl_serializerENSA_IhNS0_IhEEEEvEENS_4lessIvEENS0_INS_4pairIKS6_SE_EEEEEEE9constructB7v160006ISL_JEEEvPT_DpOT0_, symObjAddr: 0x6260, symBinAddr: 0x100008068, symSize: 0x28 }
  - { offsetInCU: 0x1F271, offset: 0x1F271, size: 0x8, addend: 0x0, symName: __ZNSt3__13mapINS_12basic_stringIcNS_11char_traitsIcEENS_9allocatorIcEEEEN8nlohmann16json_abi_v3_11_210basic_jsonIS0_NS_6vectorES6_bxydS4_NS8_14adl_serializerENSA_IhNS4_IhEEEEvEENS_4lessIvEENS4_INS_4pairIKS6_SE_EEEEEC1B7v160006Ev, symObjAddr: 0x6288, symBinAddr: 0x100008090, symSize: 0x2C }
  - { offsetInCU: 0x1F29B, offset: 0x1F29B, size: 0x8, addend: 0x0, symName: __ZNSt3__13mapINS_12basic_stringIcNS_11char_traitsIcEENS_9allocatorIcEEEEN8nlohmann16json_abi_v3_11_210basic_jsonIS0_NS_6vectorES6_bxydS4_NS8_14adl_serializerENSA_IhNS4_IhEEEEvEENS_4lessIvEENS4_INS_4pairIKS6_SE_EEEEEC2B7v160006Ev, symObjAddr: 0x62B4, symBinAddr: 0x1000080BC, symSize: 0x40 }
  - { offsetInCU: 0x1F2C5, offset: 0x1F2C5, size: 0x8, addend: 0x0, symName: __ZNSt3__119__map_value_compareINS_12basic_stringIcNS_11char_traitsIcEENS_9allocatorIcEEEENS_12__value_typeIS6_N8nlohmann16json_abi_v3_11_210basic_jsonINS_3mapENS_6vectorES6_bxydS4_NS9_14adl_serializerENSC_IhNS4_IhEEEEvEEEENS_4lessIvEELb1EEC1B7v160006ESJ_, symObjAddr: 0x62F4, symBinAddr: 0x1000080FC, symSize: 0x2C }
  - { offsetInCU: 0x1F2FE, offset: 0x1F2FE, size: 0x8, addend: 0x0, symName: __ZNSt3__16__treeINS_12__value_typeINS_12basic_stringIcNS_11char_traitsIcEENS_9allocatorIcEEEEN8nlohmann16json_abi_v3_11_210basic_jsonINS_3mapENS_6vectorES7_bxydS5_NS9_14adl_serializerENSC_IhNS5_IhEEEEvEEEENS_19__map_value_compareIS7_SH_NS_4lessIvEELb1EEENS5_ISH_EEEC1ERKSL_, symObjAddr: 0x6320, symBinAddr: 0x100008128, symSize: 0x34 }
  - { offsetInCU: 0x1F339, offset: 0x1F339, size: 0x8, addend: 0x0, symName: __ZNSt3__119__map_value_compareINS_12basic_stringIcNS_11char_traitsIcEENS_9allocatorIcEEEENS_12__value_typeIS6_N8nlohmann16json_abi_v3_11_210basic_jsonINS_3mapENS_6vectorES6_bxydS4_NS9_14adl_serializerENSC_IhNS4_IhEEEEvEEEENS_4lessIvEELb1EEC2B7v160006ESJ_, symObjAddr: 0x6354, symBinAddr: 0x10000815C, symSize: 0x14 }
  - { offsetInCU: 0x1F372, offset: 0x1F372, size: 0x8, addend: 0x0, symName: __ZNSt3__16__treeINS_12__value_typeINS_12basic_stringIcNS_11char_traitsIcEENS_9allocatorIcEEEEN8nlohmann16json_abi_v3_11_210basic_jsonINS_3mapENS_6vectorES7_bxydS5_NS9_14adl_serializerENSC_IhNS5_IhEEEEvEEEENS_19__map_value_compareIS7_SH_NS_4lessIvEELb1EEENS5_ISH_EEEC2ERKSL_, symObjAddr: 0x6368, symBinAddr: 0x100008170, symSize: 0x7C }
  - { offsetInCU: 0x1F3AD, offset: 0x1F3AD, size: 0x8, addend: 0x0, symName: __ZNSt3__117__compressed_pairINS_15__tree_end_nodeIPNS_16__tree_node_baseIPvEEEENS_9allocatorINS_11__tree_nodeINS_12__value_typeINS_12basic_stringIcNS_11char_traitsIcEENS7_IcEEEEN8nlohmann16json_abi_v3_11_210basic_jsonINS_3mapENS_6vectorESE_bxydS7_NSG_14adl_serializerENSJ_IhNS7_IhEEEEvEEEES3_EEEEEC1B7v160006ILb1EvEEv, symObjAddr: 0x63E4, symBinAddr: 0x1000081EC, symSize: 0x2C }
  - { offsetInCU: 0x1F3E2, offset: 0x1F3E2, size: 0x8, addend: 0x0, symName: __ZNSt3__117__compressed_pairImNS_19__map_value_compareINS_12basic_stringIcNS_11char_traitsIcEENS_9allocatorIcEEEENS_12__value_typeIS7_N8nlohmann16json_abi_v3_11_210basic_jsonINS_3mapENS_6vectorES7_bxydS5_NSA_14adl_serializerENSD_IhNS5_IhEEEEvEEEENS_4lessIvEELb1EEEEC1B7v160006IiRKSL_EEOT_OT0_, symObjAddr: 0x6410, symBinAddr: 0x100008218, symSize: 0x3C }
  - { offsetInCU: 0x1F43A, offset: 0x1F43A, size: 0x8, addend: 0x0, symName: __ZNSt3__117__compressed_pairINS_15__tree_end_nodeIPNS_16__tree_node_baseIPvEEEENS_9allocatorINS_11__tree_nodeINS_12__value_typeINS_12basic_stringIcNS_11char_traitsIcEENS7_IcEEEEN8nlohmann16json_abi_v3_11_210basic_jsonINS_3mapENS_6vectorESE_bxydS7_NSG_14adl_serializerENSJ_IhNS7_IhEEEEvEEEES3_EEEEEC2B7v160006ILb1EvEEv, symObjAddr: 0x644C, symBinAddr: 0x100008254, symSize: 0x34 }
  - { offsetInCU: 0x1F46F, offset: 0x1F46F, size: 0x8, addend: 0x0, symName: __ZNSt3__122__compressed_pair_elemINS_15__tree_end_nodeIPNS_16__tree_node_baseIPvEEEELi0ELb0EEC2B7v160006ENS_16__value_init_tagE, symObjAddr: 0x6480, symBinAddr: 0x100008288, symSize: 0x2C }
  - { offsetInCU: 0x1F4A4, offset: 0x1F4A4, size: 0x8, addend: 0x0, symName: __ZNSt3__122__compressed_pair_elemINS_9allocatorINS_11__tree_nodeINS_12__value_typeINS_12basic_stringIcNS_11char_traitsIcEENS1_IcEEEEN8nlohmann16json_abi_v3_11_210basic_jsonINS_3mapENS_6vectorES8_bxydS1_NSA_14adl_serializerENSD_IhNS1_IhEEEEvEEEEPvEEEELi1ELb1EEC2B7v160006ENS_16__value_init_tagE, symObjAddr: 0x64AC, symBinAddr: 0x1000082B4, symSize: 0x2C }
  - { offsetInCU: 0x1F4D9, offset: 0x1F4D9, size: 0x8, addend: 0x0, symName: __ZNSt3__115__tree_end_nodeIPNS_16__tree_node_baseIPvEEEC1B7v160006Ev, symObjAddr: 0x64D8, symBinAddr: 0x1000082E0, symSize: 0x2C }
  - { offsetInCU: 0x1F503, offset: 0x1F503, size: 0x8, addend: 0x0, symName: __ZNSt3__115__tree_end_nodeIPNS_16__tree_node_baseIPvEEEC2B7v160006Ev, symObjAddr: 0x6504, symBinAddr: 0x10000830C, symSize: 0x18 }
  - { offsetInCU: 0x1F52D, offset: 0x1F52D, size: 0x8, addend: 0x0, symName: __ZNSt3__19allocatorINS_11__tree_nodeINS_12__value_typeINS_12basic_stringIcNS_11char_traitsIcEENS0_IcEEEEN8nlohmann16json_abi_v3_11_210basic_jsonINS_3mapENS_6vectorES7_bxydS0_NS9_14adl_serializerENSC_IhNS0_IhEEEEvEEEEPvEEEC2B7v160006Ev, symObjAddr: 0x651C, symBinAddr: 0x100008324, symSize: 0x2C }
  - { offsetInCU: 0x1F557, offset: 0x1F557, size: 0x8, addend: 0x0, symName: __ZNSt3__116__non_trivial_ifILb1ENS_9allocatorINS_11__tree_nodeINS_12__value_typeINS_12basic_stringIcNS_11char_traitsIcEENS1_IcEEEEN8nlohmann16json_abi_v3_11_210basic_jsonINS_3mapENS_6vectorES8_bxydS1_NSA_14adl_serializerENSD_IhNS1_IhEEEEvEEEEPvEEEEEC2B7v160006Ev, symObjAddr: 0x6548, symBinAddr: 0x100008350, symSize: 0x14 }
  - { offsetInCU: 0x1F581, offset: 0x1F581, size: 0x8, addend: 0x0, symName: __ZNSt3__117__compressed_pairImNS_19__map_value_compareINS_12basic_stringIcNS_11char_traitsIcEENS_9allocatorIcEEEENS_12__value_typeIS7_N8nlohmann16json_abi_v3_11_210basic_jsonINS_3mapENS_6vectorES7_bxydS5_NSA_14adl_serializerENSD_IhNS5_IhEEEEvEEEENS_4lessIvEELb1EEEEC2B7v160006IiRKSL_EEOT_OT0_, symObjAddr: 0x655C, symBinAddr: 0x100008364, symSize: 0x44 }
  - { offsetInCU: 0x1F5D9, offset: 0x1F5D9, size: 0x8, addend: 0x0, symName: __ZNSt3__122__compressed_pair_elemImLi0ELb0EEC2B7v160006IivEEOT_, symObjAddr: 0x65A0, symBinAddr: 0x1000083A8, symSize: 0x24 }
  - { offsetInCU: 0x1F61B, offset: 0x1F61B, size: 0x8, addend: 0x0, symName: __ZNSt3__122__compressed_pair_elemINS_19__map_value_compareINS_12basic_stringIcNS_11char_traitsIcEENS_9allocatorIcEEEENS_12__value_typeIS7_N8nlohmann16json_abi_v3_11_210basic_jsonINS_3mapENS_6vectorES7_bxydS5_NSA_14adl_serializerENSD_IhNS5_IhEEEEvEEEENS_4lessIvEELb1EEELi1ELb1EEC2B7v160006IRKSL_vEEOT_, symObjAddr: 0x65C4, symBinAddr: 0x1000083CC, symSize: 0x18 }
  - { offsetInCU: 0x1F65D, offset: 0x1F65D, size: 0x8, addend: 0x0, symName: __ZNKSt3__117__compressed_pairIPNS_3mapINS_12basic_stringIcNS_11char_traitsIcEENS_9allocatorIcEEEEN8nlohmann16json_abi_v3_11_210basic_jsonIS1_NS_6vectorES7_bxydS5_NS9_14adl_serializerENSB_IhNS5_IhEEEEvEENS_4lessIvEENS5_INS_4pairIKS7_SF_EEEEEEZNSF_6createISM_JEEEPT_DpOT0_EUlSN_E_E5firstB7v160006Ev, symObjAddr: 0x65DC, symBinAddr: 0x1000083E4, symSize: 0x24 }
  - { offsetInCU: 0x1F683, offset: 0x1F683, size: 0x8, addend: 0x0, symName: __ZNKSt3__122__compressed_pair_elemIPNS_3mapINS_12basic_stringIcNS_11char_traitsIcEENS_9allocatorIcEEEEN8nlohmann16json_abi_v3_11_210basic_jsonIS1_NS_6vectorES7_bxydS5_NS9_14adl_serializerENSB_IhNS5_IhEEEEvEENS_4lessIvEENS5_INS_4pairIKS7_SF_EEEEEELi0ELb0EE5__getB7v160006Ev, symObjAddr: 0x6600, symBinAddr: 0x100008408, symSize: 0x14 }
  - { offsetInCU: 0x1F6A9, offset: 0x1F6A9, size: 0x8, addend: 0x0, symName: __ZNKSt3__110unique_ptrINS_3mapINS_12basic_stringIcNS_11char_traitsIcEENS_9allocatorIcEEEEN8nlohmann16json_abi_v3_11_210basic_jsonIS1_NS_6vectorES7_bxydS5_NS9_14adl_serializerENSB_IhNS5_IhEEEEvEENS_4lessIvEENS5_INS_4pairIKS7_SF_EEEEEEZNSF_6createISM_JEEEPT_DpOT0_EUlPSM_E_EcvbB7v160006Ev, symObjAddr: 0x6614, symBinAddr: 0x10000841C, symSize: 0x34 }
  - { offsetInCU: 0x1F6CF, offset: 0x1F6CF, size: 0x8, addend: 0x0, symName: __ZNSt3__117__compressed_pairIPNS_3mapINS_12basic_stringIcNS_11char_traitsIcEENS_9allocatorIcEEEEN8nlohmann16json_abi_v3_11_210basic_jsonIS1_NS_6vectorES7_bxydS5_NS9_14adl_serializerENSB_IhNS5_IhEEEEvEENS_4lessIvEENS5_INS_4pairIKS7_SF_EEEEEEZNSF_6createISM_JEEEPT_DpOT0_EUlSN_E_E5firstB7v160006Ev, symObjAddr: 0x6648, symBinAddr: 0x100008450, symSize: 0x24 }
  - { offsetInCU: 0x1F6F5, offset: 0x1F6F5, size: 0x8, addend: 0x0, symName: __ZNSt3__122__compressed_pair_elemIPNS_3mapINS_12basic_stringIcNS_11char_traitsIcEENS_9allocatorIcEEEEN8nlohmann16json_abi_v3_11_210basic_jsonIS1_NS_6vectorES7_bxydS5_NS9_14adl_serializerENSB_IhNS5_IhEEEEvEENS_4lessIvEENS5_INS_4pairIKS7_SF_EEEEEELi0ELb0EE5__getB7v160006Ev, symObjAddr: 0x666C, symBinAddr: 0x100008474, symSize: 0x14 }
  - { offsetInCU: 0x1F71B, offset: 0x1F71B, size: 0x8, addend: 0x0, symName: __ZNSt3__110unique_ptrINS_3mapINS_12basic_stringIcNS_11char_traitsIcEENS_9allocatorIcEEEEN8nlohmann16json_abi_v3_11_210basic_jsonIS1_NS_6vectorES7_bxydS5_NS9_14adl_serializerENSB_IhNS5_IhEEEEvEENS_4lessIvEENS5_INS_4pairIKS7_SF_EEEEEEZNSF_6createISM_JEEEPT_DpOT0_EUlPSM_E_ED2B7v160006Ev, symObjAddr: 0x6680, symBinAddr: 0x100008488, symSize: 0x30 }
  - { offsetInCU: 0x1F745, offset: 0x1F745, size: 0x8, addend: 0x0, symName: __ZNSt3__110unique_ptrINS_3mapINS_12basic_stringIcNS_11char_traitsIcEENS_9allocatorIcEEEEN8nlohmann16json_abi_v3_11_210basic_jsonIS1_NS_6vectorES7_bxydS5_NS9_14adl_serializerENSB_IhNS5_IhEEEEvEENS_4lessIvEENS5_INS_4pairIKS7_SF_EEEEEEZNSF_6createISM_JEEEPT_DpOT0_EUlPSM_E_E5resetB7v160006EST_, symObjAddr: 0x66B0, symBinAddr: 0x1000084B8, symSize: 0x80 }
  - { offsetInCU: 0x1F789, offset: 0x1F789, size: 0x8, addend: 0x0, symName: __ZNSt3__117__compressed_pairIPNS_3mapINS_12basic_stringIcNS_11char_traitsIcEENS_9allocatorIcEEEEN8nlohmann16json_abi_v3_11_210basic_jsonIS1_NS_6vectorES7_bxydS5_NS9_14adl_serializerENSB_IhNS5_IhEEEEvEENS_4lessIvEENS5_INS_4pairIKS7_SF_EEEEEEZNSF_6createISM_JEEEPT_DpOT0_EUlSN_E_E6secondB7v160006Ev, symObjAddr: 0x6730, symBinAddr: 0x100008538, symSize: 0x28 }
  - { offsetInCU: 0x1F7B5, offset: 0x1F7B5, size: 0x8, addend: 0x0, symName: __ZZN8nlohmann16json_abi_v3_11_210basic_jsonINSt3__13mapENS2_6vectorENS2_12basic_stringIcNS2_11char_traitsIcEENS2_9allocatorIcEEEEbxydS8_NS0_14adl_serializerENS4_IhNS8_IhEEEEvE6createINS3_ISA_SE_NS2_4lessIvEENS8_INS2_4pairIKSA_SE_EEEEEEJEEEPT_DpOT0_ENKUlPSM_E_clESS_, symObjAddr: 0x6758, symBinAddr: 0x100008560, symSize: 0x34 }
  - { offsetInCU: 0x1F7EE, offset: 0x1F7EE, size: 0x8, addend: 0x0, symName: __ZNSt3__122__compressed_pair_elemIZN8nlohmann16json_abi_v3_11_210basic_jsonINS_3mapENS_6vectorENS_12basic_stringIcNS_11char_traitsIcEENS_9allocatorIcEEEEbxydS9_NS2_14adl_serializerENS5_IhNS9_IhEEEEvE6createINS4_ISB_SF_NS_4lessIvEENS9_INS_4pairIKSB_SF_EEEEEEJEEEPT_DpOT0_EUlPSN_E_Li1ELb0EE5__getB7v160006Ev, symObjAddr: 0x678C, symBinAddr: 0x100008594, symSize: 0x14 }
  - { offsetInCU: 0x1F814, offset: 0x1F814, size: 0x8, addend: 0x0, symName: __ZNSt3__16__treeINS_12__value_typeINS_12basic_stringIcNS_11char_traitsIcEENS_9allocatorIcEEEEN8nlohmann16json_abi_v3_11_210basic_jsonINS_3mapENS_6vectorES7_bxydS5_NS9_14adl_serializerENSC_IhNS5_IhEEEEvEEEENS_19__map_value_compareIS7_SH_NS_4lessIvEELb1EEENS5_ISH_EEE16__emplace_uniqueB7v160006IS7_DnEENS_9enable_ifIXsr21__can_extract_map_keyIT_S7_NS_4pairIKS7_SG_EEEE5valueENSR_INS_15__tree_iteratorISH_PNS_11__tree_nodeISH_PvEElEEbEEE4typeEOSQ_OT0_, symObjAddr: 0x67A0, symBinAddr: 0x1000085A8, symSize: 0x48 }
  - { offsetInCU: 0x1F86A, offset: 0x1F86A, size: 0x8, addend: 0x0, symName: __ZNSt3__14pairINS_14__map_iteratorINS_15__tree_iteratorINS_12__value_typeINS_12basic_stringIcNS_11char_traitsIcEENS_9allocatorIcEEEEN8nlohmann16json_abi_v3_11_210basic_jsonINS_3mapENS_6vectorES9_bxydS7_NSB_14adl_serializerENSE_IhNS7_IhEEEEvEEEEPNS_11__tree_nodeISJ_PvEElEEEEbEC1B7v160006ISO_bLSL_0EEEONS0_IT_T0_EE, symObjAddr: 0x67E8, symBinAddr: 0x1000085F0, symSize: 0x34 }
  - { offsetInCU: 0x1F8BB, offset: 0x1F8BB, size: 0x8, addend: 0x0, symName: __ZNSt3__16__treeINS_12__value_typeINS_12basic_stringIcNS_11char_traitsIcEENS_9allocatorIcEEEEN8nlohmann16json_abi_v3_11_210basic_jsonINS_3mapENS_6vectorES7_bxydS5_NS9_14adl_serializerENSC_IhNS5_IhEEEEvEEEENS_19__map_value_compareIS7_SH_NS_4lessIvEELb1EEENS5_ISH_EEE25__emplace_unique_key_argsIS7_JS7_DnEEENS_4pairINS_15__tree_iteratorISH_PNS_11__tree_nodeISH_PvEElEEbEERKT_DpOT0_, symObjAddr: 0x681C, symBinAddr: 0x100008624, symSize: 0xF8 }
  - { offsetInCU: 0x1F97C, offset: 0x1F97C, size: 0x8, addend: 0x0, symName: __ZNSt3__16__treeINS_12__value_typeINS_12basic_stringIcNS_11char_traitsIcEENS_9allocatorIcEEEEN8nlohmann16json_abi_v3_11_210basic_jsonINS_3mapENS_6vectorES7_bxydS5_NS9_14adl_serializerENSC_IhNS5_IhEEEEvEEEENS_19__map_value_compareIS7_SH_NS_4lessIvEELb1EEENS5_ISH_EEE12__find_equalIS7_EERPNS_16__tree_node_baseIPvEERPNS_15__tree_end_nodeISS_EERKT_, symObjAddr: 0x6914, symBinAddr: 0x10000871C, symSize: 0x184 }
  - { offsetInCU: 0x1F9E9, offset: 0x1F9E9, size: 0x8, addend: 0x0, symName: __ZNSt3__16__treeINS_12__value_typeINS_12basic_stringIcNS_11char_traitsIcEENS_9allocatorIcEEEEN8nlohmann16json_abi_v3_11_210basic_jsonINS_3mapENS_6vectorES7_bxydS5_NS9_14adl_serializerENSC_IhNS5_IhEEEEvEEEENS_19__map_value_compareIS7_SH_NS_4lessIvEELb1EEENS5_ISH_EEE16__construct_nodeIJS7_DnEEENS_10unique_ptrINS_11__tree_nodeISH_PvEENS_22__tree_node_destructorINS5_ISS_EEEEEEDpOT_, symObjAddr: 0x6A98, symBinAddr: 0x1000088A0, symSize: 0x110 }
  - { offsetInCU: 0x1FA5E, offset: 0x1FA5E, size: 0x8, addend: 0x0, symName: __ZNSt3__16__treeINS_12__value_typeINS_12basic_stringIcNS_11char_traitsIcEENS_9allocatorIcEEEEN8nlohmann16json_abi_v3_11_210basic_jsonINS_3mapENS_6vectorES7_bxydS5_NS9_14adl_serializerENSC_IhNS5_IhEEEEvEEEENS_19__map_value_compareIS7_SH_NS_4lessIvEELb1EEENS5_ISH_EEE16__insert_node_atEPNS_15__tree_end_nodeIPNS_16__tree_node_baseIPvEEEERSS_SS_, symObjAddr: 0x6BA8, symBinAddr: 0x1000089B0, symSize: 0xCC }
  - { offsetInCU: 0x1FAB3, offset: 0x1FAB3, size: 0x8, addend: 0x0, symName: __ZNKSt3__110unique_ptrINS_11__tree_nodeINS_12__value_typeINS_12basic_stringIcNS_11char_traitsIcEENS_9allocatorIcEEEEN8nlohmann16json_abi_v3_11_210basic_jsonINS_3mapENS_6vectorES8_bxydS6_NSA_14adl_serializerENSD_IhNS6_IhEEEEvEEEEPvEENS_22__tree_node_destructorINS6_ISK_EEEEE3getB7v160006Ev, symObjAddr: 0x6C74, symBinAddr: 0x100008A7C, symSize: 0x28 }
  - { offsetInCU: 0x1FAD9, offset: 0x1FAD9, size: 0x8, addend: 0x0, symName: __ZNSt3__110unique_ptrINS_11__tree_nodeINS_12__value_typeINS_12basic_stringIcNS_11char_traitsIcEENS_9allocatorIcEEEEN8nlohmann16json_abi_v3_11_210basic_jsonINS_3mapENS_6vectorES8_bxydS6_NSA_14adl_serializerENSD_IhNS6_IhEEEEvEEEEPvEENS_22__tree_node_destructorINS6_ISK_EEEEE7releaseB7v160006Ev, symObjAddr: 0x6C9C, symBinAddr: 0x100008AA4, symSize: 0x44 }
  - { offsetInCU: 0x1FB0E, offset: 0x1FB0E, size: 0x8, addend: 0x0, symName: __ZNSt3__110unique_ptrINS_11__tree_nodeINS_12__value_typeINS_12basic_stringIcNS_11char_traitsIcEENS_9allocatorIcEEEEN8nlohmann16json_abi_v3_11_210basic_jsonINS_3mapENS_6vectorES8_bxydS6_NSA_14adl_serializerENSD_IhNS6_IhEEEEvEEEEPvEENS_22__tree_node_destructorINS6_ISK_EEEEED1B7v160006Ev, symObjAddr: 0x6CE0, symBinAddr: 0x100008AE8, symSize: 0x2C }
  - { offsetInCU: 0x1FB38, offset: 0x1FB38, size: 0x8, addend: 0x0, symName: __ZNSt3__115__tree_iteratorINS_12__value_typeINS_12basic_stringIcNS_11char_traitsIcEENS_9allocatorIcEEEEN8nlohmann16json_abi_v3_11_210basic_jsonINS_3mapENS_6vectorES7_bxydS5_NS9_14adl_serializerENSC_IhNS5_IhEEEEvEEEEPNS_11__tree_nodeISH_PvEElEC1B7v160006ESL_, symObjAddr: 0x6D0C, symBinAddr: 0x100008B14, symSize: 0x34 }
  - { offsetInCU: 0x1FB7D, offset: 0x1FB7D, size: 0x8, addend: 0x0, symName: __ZNSt3__14pairINS_15__tree_iteratorINS_12__value_typeINS_12basic_stringIcNS_11char_traitsIcEENS_9allocatorIcEEEEN8nlohmann16json_abi_v3_11_210basic_jsonINS_3mapENS_6vectorES8_bxydS6_NSA_14adl_serializerENSD_IhNS6_IhEEEEvEEEEPNS_11__tree_nodeISI_PvEElEEbEC1B7v160006ISN_RbLSK_0EEEOT_OT0_, symObjAddr: 0x6D40, symBinAddr: 0x100008B48, symSize: 0x3C }
  - { offsetInCU: 0x1FBDB, offset: 0x1FBDB, size: 0x8, addend: 0x0, symName: __ZNKSt3__16__treeINS_12__value_typeINS_12basic_stringIcNS_11char_traitsIcEENS_9allocatorIcEEEEN8nlohmann16json_abi_v3_11_210basic_jsonINS_3mapENS_6vectorES7_bxydS5_NS9_14adl_serializerENSC_IhNS5_IhEEEEvEEEENS_19__map_value_compareIS7_SH_NS_4lessIvEELb1EEENS5_ISH_EEE10__root_ptrEv, symObjAddr: 0x6D7C, symBinAddr: 0x100008B84, symSize: 0x24 }
  - { offsetInCU: 0x1FC01, offset: 0x1FC01, size: 0x8, addend: 0x0, symName: __ZNSt3__16__treeINS_12__value_typeINS_12basic_stringIcNS_11char_traitsIcEENS_9allocatorIcEEEEN8nlohmann16json_abi_v3_11_210basic_jsonINS_3mapENS_6vectorES7_bxydS5_NS9_14adl_serializerENSC_IhNS5_IhEEEEvEEEENS_19__map_value_compareIS7_SH_NS_4lessIvEELb1EEENS5_ISH_EEE10value_compB7v160006Ev, symObjAddr: 0x6DA0, symBinAddr: 0x100008BA8, symSize: 0x28 }
  - { offsetInCU: 0x1FC27, offset: 0x1FC27, size: 0x8, addend: 0x0, symName: __ZNKSt3__119__map_value_compareINS_12basic_stringIcNS_11char_traitsIcEENS_9allocatorIcEEEENS_12__value_typeIS6_N8nlohmann16json_abi_v3_11_210basic_jsonINS_3mapENS_6vectorES6_bxydS4_NS9_14adl_serializerENSC_IhNS4_IhEEEEvEEEENS_4lessIvEELb1EEclB7v160006ERKS6_RKSH_, symObjAddr: 0x6DC8, symBinAddr: 0x100008BD0, symSize: 0x50 }
  - { offsetInCU: 0x1FC6B, offset: 0x1FC6B, size: 0x8, addend: 0x0, symName: __ZNKSt3__119__map_value_compareINS_12basic_stringIcNS_11char_traitsIcEENS_9allocatorIcEEEENS_12__value_typeIS6_N8nlohmann16json_abi_v3_11_210basic_jsonINS_3mapENS_6vectorES6_bxydS4_NS9_14adl_serializerENSC_IhNS4_IhEEEEvEEEENS_4lessIvEELb1EEclB7v160006ERKSH_RKS6_, symObjAddr: 0x6E18, symBinAddr: 0x100008C20, symSize: 0x48 }
  - { offsetInCU: 0x1FCAF, offset: 0x1FCAF, size: 0x8, addend: 0x0, symName: __ZNSt3__117__compressed_pairImNS_19__map_value_compareINS_12basic_stringIcNS_11char_traitsIcEENS_9allocatorIcEEEENS_12__value_typeIS7_N8nlohmann16json_abi_v3_11_210basic_jsonINS_3mapENS_6vectorES7_bxydS5_NSA_14adl_serializerENSD_IhNS5_IhEEEEvEEEENS_4lessIvEELb1EEEE6secondB7v160006Ev, symObjAddr: 0x6E60, symBinAddr: 0x100008C68, symSize: 0x24 }
  - { offsetInCU: 0x1FCD5, offset: 0x1FCD5, size: 0x8, addend: 0x0, symName: __ZNSt3__122__compressed_pair_elemINS_19__map_value_compareINS_12basic_stringIcNS_11char_traitsIcEENS_9allocatorIcEEEENS_12__value_typeIS7_N8nlohmann16json_abi_v3_11_210basic_jsonINS_3mapENS_6vectorES7_bxydS5_NSA_14adl_serializerENSD_IhNS5_IhEEEEvEEEENS_4lessIvEELb1EEELi1ELb1EE5__getB7v160006Ev, symObjAddr: 0x6E84, symBinAddr: 0x100008C8C, symSize: 0x14 }
  - { offsetInCU: 0x1FD01, offset: 0x1FD01, size: 0x8, addend: 0x0, symName: __ZNKSt3__14lessIvEclB7v160006IRKNS_12basic_stringIcNS_11char_traitsIcEENS_9allocatorIcEEEESA_EEDTltclsr3stdE7forwardIT_Efp_Eclsr3stdE7forwardIT0_Efp0_EEOSB_OSC_, symObjAddr: 0x6E98, symBinAddr: 0x100008CA0, symSize: 0x34 }
  - { offsetInCU: 0x1FD57, offset: 0x1FD57, size: 0x8, addend: 0x0, symName: __ZNKSt3__112__value_typeINS_12basic_stringIcNS_11char_traitsIcEENS_9allocatorIcEEEEN8nlohmann16json_abi_v3_11_210basic_jsonINS_3mapENS_6vectorES6_bxydS4_NS8_14adl_serializerENSB_IhNS4_IhEEEEvEEE11__get_valueB7v160006Ev, symObjAddr: 0x6ECC, symBinAddr: 0x100008CD4, symSize: 0x24 }
  - { offsetInCU: 0x1FD7D, offset: 0x1FD7D, size: 0x8, addend: 0x0, symName: __ZNKSt3__112basic_stringIcNS_11char_traitsIcEENS_9allocatorIcEEE7compareB7v160006ERKS5_, symObjAddr: 0x6F28, symBinAddr: 0x100008D30, symSize: 0x4C }
  - { offsetInCU: 0x1FDB4, offset: 0x1FDB4, size: 0x8, addend: 0x0, symName: __ZNKSt3__112basic_stringIcNS_11char_traitsIcEENS_9allocatorIcEEE7compareINS_17basic_string_viewIcS2_EEEENS_9enable_ifIXsr33__can_be_converted_to_string_viewIcS2_T_EE5valueEiE4typeERKSA_, symObjAddr: 0x6F74, symBinAddr: 0x100008D7C, symSize: 0x12C }
  - { offsetInCU: 0x1FE31, offset: 0x1FE31, size: 0x8, addend: 0x0, symName: __ZNKSt3__112basic_stringIcNS_11char_traitsIcEENS_9allocatorIcEEEcvNS_17basic_string_viewIcS2_EEB7v160006Ev, symObjAddr: 0x70A0, symBinAddr: 0x100008EA8, symSize: 0x50 }
  - { offsetInCU: 0x1FE57, offset: 0x1FE57, size: 0x8, addend: 0x0, symName: __ZNKSt3__112basic_stringIcNS_11char_traitsIcEENS_9allocatorIcEEE4sizeB7v160006Ev, symObjAddr: 0x70F0, symBinAddr: 0x100008EF8, symSize: 0x54 }
  - { offsetInCU: 0x1FE7D, offset: 0x1FE7D, size: 0x8, addend: 0x0, symName: __ZNKSt3__117basic_string_viewIcNS_11char_traitsIcEEE4sizeB7v160006Ev, symObjAddr: 0x7144, symBinAddr: 0x100008F4C, symSize: 0x18 }
  - { offsetInCU: 0x1FEA3, offset: 0x1FEA3, size: 0x8, addend: 0x0, symName: __ZNSt3__111char_traitsIcE7compareEPKcS3_m, symObjAddr: 0x715C, symBinAddr: 0x100008F64, symSize: 0x6C }
  - { offsetInCU: 0x1FEE2, offset: 0x1FEE2, size: 0x8, addend: 0x0, symName: __ZNKSt3__112basic_stringIcNS_11char_traitsIcEENS_9allocatorIcEEE4dataB7v160006Ev, symObjAddr: 0x71C8, symBinAddr: 0x100008FD0, symSize: 0x28 }
  - { offsetInCU: 0x1FF08, offset: 0x1FF08, size: 0x8, addend: 0x0, symName: __ZNKSt3__117basic_string_viewIcNS_11char_traitsIcEEE4dataB7v160006Ev, symObjAddr: 0x71F0, symBinAddr: 0x100008FF8, symSize: 0x18 }
  - { offsetInCU: 0x1FF2E, offset: 0x1FF2E, size: 0x8, addend: 0x0, symName: __ZNKSt3__112basic_stringIcNS_11char_traitsIcEENS_9allocatorIcEEE9__is_longB7v160006Ev, symObjAddr: 0x7208, symBinAddr: 0x100009010, symSize: 0x38 }
  - { offsetInCU: 0x1FF54, offset: 0x1FF54, size: 0x8, addend: 0x0, symName: __ZNKSt3__112basic_stringIcNS_11char_traitsIcEENS_9allocatorIcEEE15__get_long_sizeB7v160006Ev, symObjAddr: 0x7240, symBinAddr: 0x100009048, symSize: 0x28 }
  - { offsetInCU: 0x1FF7A, offset: 0x1FF7A, size: 0x8, addend: 0x0, symName: __ZNKSt3__112basic_stringIcNS_11char_traitsIcEENS_9allocatorIcEEE16__get_short_sizeB7v160006Ev, symObjAddr: 0x7268, symBinAddr: 0x100009070, symSize: 0x34 }
  - { offsetInCU: 0x1FFA0, offset: 0x1FFA0, size: 0x8, addend: 0x0, symName: __ZNKSt3__117__compressed_pairINS_12basic_stringIcNS_11char_traitsIcEENS_9allocatorIcEEE5__repES5_E5firstB7v160006Ev, symObjAddr: 0x729C, symBinAddr: 0x1000090A4, symSize: 0x24 }
  - { offsetInCU: 0x1FFC6, offset: 0x1FFC6, size: 0x8, addend: 0x0, symName: __ZNKSt3__122__compressed_pair_elemINS_12basic_stringIcNS_11char_traitsIcEENS_9allocatorIcEEE5__repELi0ELb0EE5__getB7v160006Ev, symObjAddr: 0x72C0, symBinAddr: 0x1000090C8, symSize: 0x14 }
  - { offsetInCU: 0x1FFEC, offset: 0x1FFEC, size: 0x8, addend: 0x0, symName: __ZNKSt3__112basic_stringIcNS_11char_traitsIcEENS_9allocatorIcEEE13__get_pointerB7v160006Ev, symObjAddr: 0x731C, symBinAddr: 0x100009124, symSize: 0x54 }
  - { offsetInCU: 0x20012, offset: 0x20012, size: 0x8, addend: 0x0, symName: __ZNKSt3__112basic_stringIcNS_11char_traitsIcEENS_9allocatorIcEEE18__get_long_pointerB7v160006Ev, symObjAddr: 0x7370, symBinAddr: 0x100009178, symSize: 0x28 }
  - { offsetInCU: 0x20038, offset: 0x20038, size: 0x8, addend: 0x0, symName: __ZNKSt3__112basic_stringIcNS_11char_traitsIcEENS_9allocatorIcEEE19__get_short_pointerB7v160006Ev, symObjAddr: 0x7398, symBinAddr: 0x1000091A0, symSize: 0x28 }
  - { offsetInCU: 0x2005E, offset: 0x2005E, size: 0x8, addend: 0x0, symName: __ZNSt3__114pointer_traitsIPKcE10pointer_toB7v160006ERS1_, symObjAddr: 0x73C0, symBinAddr: 0x1000091C8, symSize: 0x14 }
  - { offsetInCU: 0x20081, offset: 0x20081, size: 0x8, addend: 0x0, symName: __ZNSt3__117basic_string_viewIcNS_11char_traitsIcEEEC1B7v160006EPKcm, symObjAddr: 0x73D4, symBinAddr: 0x1000091DC, symSize: 0x3C }
  - { offsetInCU: 0x200C9, offset: 0x200C9, size: 0x8, addend: 0x0, symName: __ZNSt3__117basic_string_viewIcNS_11char_traitsIcEEEC2B7v160006EPKcm, symObjAddr: 0x7410, symBinAddr: 0x100009218, symSize: 0x50 }
  - { offsetInCU: 0x20111, offset: 0x20111, size: 0x8, addend: 0x0, symName: __ZNSt3__116allocator_traitsINS_9allocatorINS_11__tree_nodeINS_12__value_typeINS_12basic_stringIcNS_11char_traitsIcEENS1_IcEEEEN8nlohmann16json_abi_v3_11_210basic_jsonINS_3mapENS_6vectorES8_bxydS1_NSA_14adl_serializerENSD_IhNS1_IhEEEEvEEEEPvEEEEE8allocateB7v160006ERSL_m, symObjAddr: 0x7498, symBinAddr: 0x1000092A0, symSize: 0x2C }
  - { offsetInCU: 0x20144, offset: 0x20144, size: 0x8, addend: 0x0, symName: __ZNSt3__122__tree_node_destructorINS_9allocatorINS_11__tree_nodeINS_12__value_typeINS_12basic_stringIcNS_11char_traitsIcEENS1_IcEEEEN8nlohmann16json_abi_v3_11_210basic_jsonINS_3mapENS_6vectorES8_bxydS1_NSA_14adl_serializerENSD_IhNS1_IhEEEEvEEEEPvEEEEEC1B7v160006ERSL_b, symObjAddr: 0x74C4, symBinAddr: 0x1000092CC, symSize: 0x48 }
  - { offsetInCU: 0x20192, offset: 0x20192, size: 0x8, addend: 0x0, symName: __ZNSt3__110unique_ptrINS_11__tree_nodeINS_12__value_typeINS_12basic_stringIcNS_11char_traitsIcEENS_9allocatorIcEEEEN8nlohmann16json_abi_v3_11_210basic_jsonINS_3mapENS_6vectorES8_bxydS6_NSA_14adl_serializerENSD_IhNS6_IhEEEEvEEEEPvEENS_22__tree_node_destructorINS6_ISK_EEEEEC1B7v160006ILb1EvEEPSK_NS_16__dependent_typeINS_27__unique_ptr_deleter_sfinaeISN_EEXT_EE20__good_rval_ref_typeE, symObjAddr: 0x750C, symBinAddr: 0x100009314, symSize: 0x3C }
  - { offsetInCU: 0x201E3, offset: 0x201E3, size: 0x8, addend: 0x0, symName: __ZNSt3__116allocator_traitsINS_9allocatorINS_11__tree_nodeINS_12__value_typeINS_12basic_stringIcNS_11char_traitsIcEENS1_IcEEEEN8nlohmann16json_abi_v3_11_210basic_jsonINS_3mapENS_6vectorES8_bxydS1_NSA_14adl_serializerENSD_IhNS1_IhEEEEvEEEEPvEEEEE9constructB7v160006INS_4pairIKS8_SH_EEJS8_DnEvEEvRSL_PT_DpOT0_, symObjAddr: 0x7548, symBinAddr: 0x100009350, symSize: 0x3C }
  - { offsetInCU: 0x2024E, offset: 0x2024E, size: 0x8, addend: 0x0, symName: __ZNKSt3__110unique_ptrINS_11__tree_nodeINS_12__value_typeINS_12basic_stringIcNS_11char_traitsIcEENS_9allocatorIcEEEEN8nlohmann16json_abi_v3_11_210basic_jsonINS_3mapENS_6vectorES8_bxydS6_NSA_14adl_serializerENSD_IhNS6_IhEEEEvEEEEPvEENS_22__tree_node_destructorINS6_ISK_EEEEEptB7v160006Ev, symObjAddr: 0x7584, symBinAddr: 0x10000938C, symSize: 0x28 }
  - { offsetInCU: 0x20274, offset: 0x20274, size: 0x8, addend: 0x0, symName: __ZNSt3__110unique_ptrINS_11__tree_nodeINS_12__value_typeINS_12basic_stringIcNS_11char_traitsIcEENS_9allocatorIcEEEEN8nlohmann16json_abi_v3_11_210basic_jsonINS_3mapENS_6vectorES8_bxydS6_NSA_14adl_serializerENSD_IhNS6_IhEEEEvEEEEPvEENS_22__tree_node_destructorINS6_ISK_EEEEE11get_deleterB7v160006Ev, symObjAddr: 0x75AC, symBinAddr: 0x1000093B4, symSize: 0x24 }
  - { offsetInCU: 0x2029A, offset: 0x2029A, size: 0x8, addend: 0x0, symName: __ZNSt3__19allocatorINS_11__tree_nodeINS_12__value_typeINS_12basic_stringIcNS_11char_traitsIcEENS0_IcEEEEN8nlohmann16json_abi_v3_11_210basic_jsonINS_3mapENS_6vectorES7_bxydS0_NS9_14adl_serializerENSC_IhNS0_IhEEEEvEEEEPvEEE8allocateB7v160006Em, symObjAddr: 0x75D0, symBinAddr: 0x1000093D8, symSize: 0x5C }
  - { offsetInCU: 0x202D9, offset: 0x202D9, size: 0x8, addend: 0x0, symName: __ZNSt3__116allocator_traitsINS_9allocatorINS_11__tree_nodeINS_12__value_typeINS_12basic_stringIcNS_11char_traitsIcEENS1_IcEEEEN8nlohmann16json_abi_v3_11_210basic_jsonINS_3mapENS_6vectorES8_bxydS1_NSA_14adl_serializerENSD_IhNS1_IhEEEEvEEEEPvEEEEE8max_sizeB7v160006ISL_vEEmRKSL_, symObjAddr: 0x762C, symBinAddr: 0x100009434, symSize: 0x24 }
  - { offsetInCU: 0x20307, offset: 0x20307, size: 0x8, addend: 0x0, symName: __ZNKSt3__19allocatorINS_11__tree_nodeINS_12__value_typeINS_12basic_stringIcNS_11char_traitsIcEENS0_IcEEEEN8nlohmann16json_abi_v3_11_210basic_jsonINS_3mapENS_6vectorES7_bxydS0_NS9_14adl_serializerENSC_IhNS0_IhEEEEvEEEEPvEEE8max_sizeB7v160006Ev, symObjAddr: 0x7650, symBinAddr: 0x100009458, symSize: 0x20 }
  - { offsetInCU: 0x2032D, offset: 0x2032D, size: 0x8, addend: 0x0, symName: __ZNSt3__122__tree_node_destructorINS_9allocatorINS_11__tree_nodeINS_12__value_typeINS_12basic_stringIcNS_11char_traitsIcEENS1_IcEEEEN8nlohmann16json_abi_v3_11_210basic_jsonINS_3mapENS_6vectorES8_bxydS1_NSA_14adl_serializerENSD_IhNS1_IhEEEEvEEEEPvEEEEEC2B7v160006ERSL_b, symObjAddr: 0x7670, symBinAddr: 0x100009478, symSize: 0x38 }
  - { offsetInCU: 0x20375, offset: 0x20375, size: 0x8, addend: 0x0, symName: __ZNSt3__110unique_ptrINS_11__tree_nodeINS_12__value_typeINS_12basic_stringIcNS_11char_traitsIcEENS_9allocatorIcEEEEN8nlohmann16json_abi_v3_11_210basic_jsonINS_3mapENS_6vectorES8_bxydS6_NSA_14adl_serializerENSD_IhNS6_IhEEEEvEEEEPvEENS_22__tree_node_destructorINS6_ISK_EEEEEC2B7v160006ILb1EvEEPSK_NS_16__dependent_typeINS_27__unique_ptr_deleter_sfinaeISN_EEXT_EE20__good_rval_ref_typeE, symObjAddr: 0x76A8, symBinAddr: 0x1000094B0, symSize: 0x48 }
  - { offsetInCU: 0x203C6, offset: 0x203C6, size: 0x8, addend: 0x0, symName: __ZNSt3__117__compressed_pairIPNS_11__tree_nodeINS_12__value_typeINS_12basic_stringIcNS_11char_traitsIcEENS_9allocatorIcEEEEN8nlohmann16json_abi_v3_11_210basic_jsonINS_3mapENS_6vectorES8_bxydS6_NSA_14adl_serializerENSD_IhNS6_IhEEEEvEEEEPvEENS_22__tree_node_destructorINS6_ISK_EEEEEC1B7v160006IRSL_SO_EEOT_OT0_, symObjAddr: 0x76F0, symBinAddr: 0x1000094F8, symSize: 0x3C }
  - { offsetInCU: 0x2041E, offset: 0x2041E, size: 0x8, addend: 0x0, symName: __ZNSt3__117__compressed_pairIPNS_11__tree_nodeINS_12__value_typeINS_12basic_stringIcNS_11char_traitsIcEENS_9allocatorIcEEEEN8nlohmann16json_abi_v3_11_210basic_jsonINS_3mapENS_6vectorES8_bxydS6_NSA_14adl_serializerENSD_IhNS6_IhEEEEvEEEEPvEENS_22__tree_node_destructorINS6_ISK_EEEEEC2B7v160006IRSL_SO_EEOT_OT0_, symObjAddr: 0x772C, symBinAddr: 0x100009534, symSize: 0x48 }
  - { offsetInCU: 0x20476, offset: 0x20476, size: 0x8, addend: 0x0, symName: __ZNSt3__122__compressed_pair_elemIPNS_11__tree_nodeINS_12__value_typeINS_12basic_stringIcNS_11char_traitsIcEENS_9allocatorIcEEEEN8nlohmann16json_abi_v3_11_210basic_jsonINS_3mapENS_6vectorES8_bxydS6_NSA_14adl_serializerENSD_IhNS6_IhEEEEvEEEEPvEELi0ELb0EEC2B7v160006IRSL_vEEOT_, symObjAddr: 0x7774, symBinAddr: 0x10000957C, symSize: 0x24 }
  - { offsetInCU: 0x204B8, offset: 0x204B8, size: 0x8, addend: 0x0, symName: __ZNSt3__122__compressed_pair_elemINS_22__tree_node_destructorINS_9allocatorINS_11__tree_nodeINS_12__value_typeINS_12basic_stringIcNS_11char_traitsIcEENS2_IcEEEEN8nlohmann16json_abi_v3_11_210basic_jsonINS_3mapENS_6vectorES9_bxydS2_NSB_14adl_serializerENSE_IhNS2_IhEEEEvEEEEPvEEEEEELi1ELb0EEC2B7v160006ISN_vEEOT_, symObjAddr: 0x7798, symBinAddr: 0x1000095A0, symSize: 0x24 }
  - { offsetInCU: 0x204FA, offset: 0x204FA, size: 0x8, addend: 0x0, symName: __ZNSt3__19allocatorINS_11__tree_nodeINS_12__value_typeINS_12basic_stringIcNS_11char_traitsIcEENS0_IcEEEEN8nlohmann16json_abi_v3_11_210basic_jsonINS_3mapENS_6vectorES7_bxydS0_NS9_14adl_serializerENSC_IhNS0_IhEEEEvEEEEPvEEE9constructB7v160006INS_4pairIKS7_SG_EEJS7_DnEEEvPT_DpOT0_, symObjAddr: 0x77BC, symBinAddr: 0x1000095C4, symSize: 0x38 }
  - { offsetInCU: 0x20563, offset: 0x20563, size: 0x8, addend: 0x0, symName: __ZNSt3__14pairIKNS_12basic_stringIcNS_11char_traitsIcEENS_9allocatorIcEEEEN8nlohmann16json_abi_v3_11_210basic_jsonINS_3mapENS_6vectorES6_bxydS4_NS9_14adl_serializerENSC_IhNS4_IhEEEEvEEEC1B7v160006IS6_DnLPv0EEEOT_OT0_, symObjAddr: 0x77F4, symBinAddr: 0x1000095FC, symSize: 0x3C }
  - { offsetInCU: 0x205C1, offset: 0x205C1, size: 0x8, addend: 0x0, symName: __ZNSt3__14pairIKNS_12basic_stringIcNS_11char_traitsIcEENS_9allocatorIcEEEEN8nlohmann16json_abi_v3_11_210basic_jsonINS_3mapENS_6vectorES6_bxydS4_NS9_14adl_serializerENSC_IhNS4_IhEEEEvEEEC2B7v160006IS6_DnLPv0EEEOT_OT0_, symObjAddr: 0x7830, symBinAddr: 0x100009638, symSize: 0x48 }
  - { offsetInCU: 0x2061F, offset: 0x2061F, size: 0x8, addend: 0x0, symName: __ZNSt3__112basic_stringIcNS_11char_traitsIcEENS_9allocatorIcEEEC1B7v160006EOS5_, symObjAddr: 0x7878, symBinAddr: 0x100009680, symSize: 0x34 }
  - { offsetInCU: 0x20658, offset: 0x20658, size: 0x8, addend: 0x0, symName: __ZN8nlohmann16json_abi_v3_11_210basic_jsonINSt3__13mapENS2_6vectorENS2_12basic_stringIcNS2_11char_traitsIcEENS2_9allocatorIcEEEEbxydS8_NS0_14adl_serializerENS4_IhNS8_IhEEEEvEC1EDn, symObjAddr: 0x78AC, symBinAddr: 0x1000096B4, symSize: 0x4C }
  - { offsetInCU: 0x2068D, offset: 0x2068D, size: 0x8, addend: 0x0, symName: __ZNSt3__112basic_stringIcNS_11char_traitsIcEENS_9allocatorIcEEEC2B7v160006EOS5_, symObjAddr: 0x78F8, symBinAddr: 0x100009700, symSize: 0x88 }
  - { offsetInCU: 0x206C6, offset: 0x206C6, size: 0x8, addend: 0x0, symName: __ZNSt3__112basic_stringIcNS_11char_traitsIcEENS_9allocatorIcEEE14__default_initB7v160006Ev, symObjAddr: 0x7980, symBinAddr: 0x100009788, symSize: 0x40 }
  - { offsetInCU: 0x206EC, offset: 0x206EC, size: 0x8, addend: 0x0, symName: __ZNSt3__117__compressed_pairINS_12basic_stringIcNS_11char_traitsIcEENS_9allocatorIcEEE5__repES5_E5firstB7v160006Ev, symObjAddr: 0x79E4, symBinAddr: 0x1000097EC, symSize: 0x24 }
  - { offsetInCU: 0x20712, offset: 0x20712, size: 0x8, addend: 0x0, symName: __ZNSt3__122__compressed_pair_elemINS_12basic_stringIcNS_11char_traitsIcEENS_9allocatorIcEEE5__repELi0ELb0EE5__getB7v160006Ev, symObjAddr: 0x7A08, symBinAddr: 0x100009810, symSize: 0x14 }
  - { offsetInCU: 0x20738, offset: 0x20738, size: 0x8, addend: 0x0, symName: __ZN8nlohmann16json_abi_v3_11_210basic_jsonINSt3__13mapENS2_6vectorENS2_12basic_stringIcNS2_11char_traitsIcEENS2_9allocatorIcEEEEbxydS8_NS0_14adl_serializerENS4_IhNS8_IhEEEEvEC1ENS0_6detail7value_tE, symObjAddr: 0x7A1C, symBinAddr: 0x100009824, symSize: 0x34 }
  - { offsetInCU: 0x20771, offset: 0x20771, size: 0x8, addend: 0x0, symName: __ZN8nlohmann16json_abi_v3_11_210basic_jsonINSt3__13mapENS2_6vectorENS2_12basic_stringIcNS2_11char_traitsIcEENS2_9allocatorIcEEEEbxydS8_NS0_14adl_serializerENS4_IhNS8_IhEEEEvEC2ENS0_6detail7value_tE, symObjAddr: 0x7A50, symBinAddr: 0x100009858, symSize: 0x44 }
  - { offsetInCU: 0x207AA, offset: 0x207AA, size: 0x8, addend: 0x0, symName: __ZN8nlohmann16json_abi_v3_11_210basic_jsonINSt3__13mapENS2_6vectorENS2_12basic_stringIcNS2_11char_traitsIcEENS2_9allocatorIcEEEEbxydS8_NS0_14adl_serializerENS4_IhNS8_IhEEEEvE4dataC1ENS0_6detail7value_tE, symObjAddr: 0x7A94, symBinAddr: 0x10000989C, symSize: 0x34 }
  - { offsetInCU: 0x207E3, offset: 0x207E3, size: 0x8, addend: 0x0, symName: __ZN8nlohmann16json_abi_v3_11_210basic_jsonINSt3__13mapENS2_6vectorENS2_12basic_stringIcNS2_11char_traitsIcEENS2_9allocatorIcEEEEbxydS8_NS0_14adl_serializerENS4_IhNS8_IhEEEEvE4dataC2ENS0_6detail7value_tE, symObjAddr: 0x7AC8, symBinAddr: 0x1000098D0, symSize: 0x40 }
  - { offsetInCU: 0x2081C, offset: 0x2081C, size: 0x8, addend: 0x0, symName: __ZN8nlohmann16json_abi_v3_11_210basic_jsonINSt3__13mapENS2_6vectorENS2_12basic_stringIcNS2_11char_traitsIcEENS2_9allocatorIcEEEEbxydS8_NS0_14adl_serializerENS4_IhNS8_IhEEEEvE10json_valueC1ENS0_6detail7value_tE, symObjAddr: 0x7B08, symBinAddr: 0x100009910, symSize: 0x34 }
  - { offsetInCU: 0x20855, offset: 0x20855, size: 0x8, addend: 0x0, symName: __ZN8nlohmann16json_abi_v3_11_210basic_jsonINSt3__13mapENS2_6vectorENS2_12basic_stringIcNS2_11char_traitsIcEENS2_9allocatorIcEEEEbxydS8_NS0_14adl_serializerENS4_IhNS8_IhEEEEvE10json_valueC2ENS0_6detail7value_tE, symObjAddr: 0x7B3C, symBinAddr: 0x100009944, symSize: 0x1DC }
  - { offsetInCU: 0x2088E, offset: 0x2088E, size: 0x8, addend: 0x0, symName: __ZN8nlohmann16json_abi_v3_11_210basic_jsonINSt3__13mapENS2_6vectorENS2_12basic_stringIcNS2_11char_traitsIcEENS2_9allocatorIcEEEEbxydS8_NS0_14adl_serializerENS4_IhNS8_IhEEEEvE6createINS4_ISE_NS8_ISE_EEEEJEEEPT_DpOT0_, symObjAddr: 0x7D40, symBinAddr: 0x100009B48, symSize: 0xEC }
  - { offsetInCU: 0x20920, offset: 0x20920, size: 0x8, addend: 0x0, symName: __ZN8nlohmann16json_abi_v3_11_210basic_jsonINSt3__13mapENS2_6vectorENS2_12basic_stringIcNS2_11char_traitsIcEENS2_9allocatorIcEEEEbxydS8_NS0_14adl_serializerENS4_IhNS8_IhEEEEvE6createISA_JRA1_KcEEEPT_DpOT0_, symObjAddr: 0x7E2C, symBinAddr: 0x100009C34, symSize: 0xF4 }
  - { offsetInCU: 0x209AE, offset: 0x209AE, size: 0x8, addend: 0x0, symName: __ZN8nlohmann16json_abi_v3_11_210basic_jsonINSt3__13mapENS2_6vectorENS2_12basic_stringIcNS2_11char_traitsIcEENS2_9allocatorIcEEEEbxydS8_NS0_14adl_serializerENS4_IhNS8_IhEEEEvE6createINS0_27byte_container_with_subtypeISD_EEJEEEPT_DpOT0_, symObjAddr: 0x7F20, symBinAddr: 0x100009D28, symSize: 0xEC }
  - { offsetInCU: 0x20A2D, offset: 0x20A2D, size: 0x8, addend: 0x0, symName: __ZN8nlohmann16json_abi_v3_11_26detail11other_error6createIDnLi0EEES2_iRKNSt3__112basic_stringIcNS4_11char_traitsIcEENS4_9allocatorIcEEEET_, symObjAddr: 0x800C, symBinAddr: 0x100009E14, symSize: 0x130 }
  - { offsetInCU: 0x20A8D, offset: 0x20A8D, size: 0x8, addend: 0x0, symName: __ZN8nlohmann16json_abi_v3_11_26detail11other_errorD1Ev, symObjAddr: 0x813C, symBinAddr: 0x100009F44, symSize: 0x2C }
  - { offsetInCU: 0x20ABA, offset: 0x20ABA, size: 0x8, addend: 0x0, symName: __ZNSt3__116allocator_traitsINS_9allocatorINS_6vectorIN8nlohmann16json_abi_v3_11_210basic_jsonINS_3mapES2_NS_12basic_stringIcNS_11char_traitsIcEENS1_IcEEEEbxydS1_NS4_14adl_serializerENS2_IhNS1_IhEEEEvEENS1_ISF_EEEEEEE8allocateB7v160006ERSI_m, symObjAddr: 0x8168, symBinAddr: 0x100009F70, symSize: 0x2C }
  - { offsetInCU: 0x20B8E, offset: 0x20B8E, size: 0x8, addend: 0x0, symName: __ZNSt3__110unique_ptrINS_6vectorIN8nlohmann16json_abi_v3_11_210basic_jsonINS_3mapES1_NS_12basic_stringIcNS_11char_traitsIcEENS_9allocatorIcEEEEbxydS9_NS3_14adl_serializerENS1_IhNS9_IhEEEEvEENS9_ISF_EEEEZNSF_6createISH_JEEEPT_DpOT0_EUlPSH_E_EC1B7v160006ILb1EvEESO_NS_16__dependent_typeINS_27__unique_ptr_deleter_sfinaeISP_EEXT_EE15__lval_ref_typeE, symObjAddr: 0x8194, symBinAddr: 0x100009F9C, symSize: 0x3C }
  - { offsetInCU: 0x20BDF, offset: 0x20BDF, size: 0x8, addend: 0x0, symName: __ZNSt3__116allocator_traitsINS_9allocatorINS_6vectorIN8nlohmann16json_abi_v3_11_210basic_jsonINS_3mapES2_NS_12basic_stringIcNS_11char_traitsIcEENS1_IcEEEEbxydS1_NS4_14adl_serializerENS2_IhNS1_IhEEEEvEENS1_ISF_EEEEEEE9constructB7v160006ISH_JEvEEvRSI_PT_DpOT0_, symObjAddr: 0x81D0, symBinAddr: 0x100009FD8, symSize: 0x2C }
  - { offsetInCU: 0x20C21, offset: 0x20C21, size: 0x8, addend: 0x0, symName: __ZNKSt3__110unique_ptrINS_6vectorIN8nlohmann16json_abi_v3_11_210basic_jsonINS_3mapES1_NS_12basic_stringIcNS_11char_traitsIcEENS_9allocatorIcEEEEbxydS9_NS3_14adl_serializerENS1_IhNS9_IhEEEEvEENS9_ISF_EEEEZNSF_6createISH_JEEEPT_DpOT0_EUlPSH_E_E3getB7v160006Ev, symObjAddr: 0x81FC, symBinAddr: 0x10000A004, symSize: 0x28 }
  - { offsetInCU: 0x20C47, offset: 0x20C47, size: 0x8, addend: 0x0, symName: __ZNSt3__110unique_ptrINS_6vectorIN8nlohmann16json_abi_v3_11_210basic_jsonINS_3mapES1_NS_12basic_stringIcNS_11char_traitsIcEENS_9allocatorIcEEEEbxydS9_NS3_14adl_serializerENS1_IhNS9_IhEEEEvEENS9_ISF_EEEEZNSF_6createISH_JEEEPT_DpOT0_EUlPSH_E_E7releaseB7v160006Ev, symObjAddr: 0x8250, symBinAddr: 0x10000A058, symSize: 0x44 }
  - { offsetInCU: 0x20C7C, offset: 0x20C7C, size: 0x8, addend: 0x0, symName: __ZNSt3__110unique_ptrINS_6vectorIN8nlohmann16json_abi_v3_11_210basic_jsonINS_3mapES1_NS_12basic_stringIcNS_11char_traitsIcEENS_9allocatorIcEEEEbxydS9_NS3_14adl_serializerENS1_IhNS9_IhEEEEvEENS9_ISF_EEEEZNSF_6createISH_JEEEPT_DpOT0_EUlPSH_E_ED1B7v160006Ev, symObjAddr: 0x8294, symBinAddr: 0x10000A09C, symSize: 0x2C }
  - { offsetInCU: 0x20CA6, offset: 0x20CA6, size: 0x8, addend: 0x0, symName: __ZNSt3__19allocatorINS_6vectorIN8nlohmann16json_abi_v3_11_210basic_jsonINS_3mapES1_NS_12basic_stringIcNS_11char_traitsIcEENS0_IcEEEEbxydS0_NS3_14adl_serializerENS1_IhNS0_IhEEEEvEENS0_ISE_EEEEE8allocateB7v160006Em, symObjAddr: 0x82C0, symBinAddr: 0x10000A0C8, symSize: 0x5C }
  - { offsetInCU: 0x20CE5, offset: 0x20CE5, size: 0x8, addend: 0x0, symName: __ZNSt3__116allocator_traitsINS_9allocatorINS_6vectorIN8nlohmann16json_abi_v3_11_210basic_jsonINS_3mapES2_NS_12basic_stringIcNS_11char_traitsIcEENS1_IcEEEEbxydS1_NS4_14adl_serializerENS2_IhNS1_IhEEEEvEENS1_ISF_EEEEEEE8max_sizeB7v160006ISI_vEEmRKSI_, symObjAddr: 0x831C, symBinAddr: 0x10000A124, symSize: 0x24 }
  - { offsetInCU: 0x20D13, offset: 0x20D13, size: 0x8, addend: 0x0, symName: __ZNKSt3__19allocatorINS_6vectorIN8nlohmann16json_abi_v3_11_210basic_jsonINS_3mapES1_NS_12basic_stringIcNS_11char_traitsIcEENS0_IcEEEEbxydS0_NS3_14adl_serializerENS1_IhNS0_IhEEEEvEENS0_ISE_EEEEE8max_sizeB7v160006Ev, symObjAddr: 0x8340, symBinAddr: 0x10000A148, symSize: 0x18 }
  - { offsetInCU: 0x20D39, offset: 0x20D39, size: 0x8, addend: 0x0, symName: __ZNSt3__110unique_ptrINS_6vectorIN8nlohmann16json_abi_v3_11_210basic_jsonINS_3mapES1_NS_12basic_stringIcNS_11char_traitsIcEENS_9allocatorIcEEEEbxydS9_NS3_14adl_serializerENS1_IhNS9_IhEEEEvEENS9_ISF_EEEEZNSF_6createISH_JEEEPT_DpOT0_EUlPSH_E_EC2B7v160006ILb1EvEESO_NS_16__dependent_typeINS_27__unique_ptr_deleter_sfinaeISP_EEXT_EE15__lval_ref_typeE, symObjAddr: 0x8358, symBinAddr: 0x10000A160, symSize: 0x48 }
  - { offsetInCU: 0x20D8A, offset: 0x20D8A, size: 0x8, addend: 0x0, symName: __ZNSt3__117__compressed_pairIPNS_6vectorIN8nlohmann16json_abi_v3_11_210basic_jsonINS_3mapES1_NS_12basic_stringIcNS_11char_traitsIcEENS_9allocatorIcEEEEbxydS9_NS3_14adl_serializerENS1_IhNS9_IhEEEEvEENS9_ISF_EEEEZNSF_6createISH_JEEEPT_DpOT0_EUlSI_E_EC1B7v160006IRSI_RKSP_EEOSK_OT0_, symObjAddr: 0x83A0, symBinAddr: 0x10000A1A8, symSize: 0x3C }
  - { offsetInCU: 0x20DE2, offset: 0x20DE2, size: 0x8, addend: 0x0, symName: __ZNSt3__117__compressed_pairIPNS_6vectorIN8nlohmann16json_abi_v3_11_210basic_jsonINS_3mapES1_NS_12basic_stringIcNS_11char_traitsIcEENS_9allocatorIcEEEEbxydS9_NS3_14adl_serializerENS1_IhNS9_IhEEEEvEENS9_ISF_EEEEZNSF_6createISH_JEEEPT_DpOT0_EUlSI_E_EC2B7v160006IRSI_RKSP_EEOSK_OT0_, symObjAddr: 0x83DC, symBinAddr: 0x10000A1E4, symSize: 0x48 }
  - { offsetInCU: 0x20E3A, offset: 0x20E3A, size: 0x8, addend: 0x0, symName: __ZNSt3__122__compressed_pair_elemIPNS_6vectorIN8nlohmann16json_abi_v3_11_210basic_jsonINS_3mapES1_NS_12basic_stringIcNS_11char_traitsIcEENS_9allocatorIcEEEEbxydS9_NS3_14adl_serializerENS1_IhNS9_IhEEEEvEENS9_ISF_EEEELi0ELb0EEC2B7v160006IRSI_vEEOT_, symObjAddr: 0x8424, symBinAddr: 0x10000A22C, symSize: 0x24 }
  - { offsetInCU: 0x20E7C, offset: 0x20E7C, size: 0x8, addend: 0x0, symName: __ZNSt3__122__compressed_pair_elemIZN8nlohmann16json_abi_v3_11_210basic_jsonINS_3mapENS_6vectorENS_12basic_stringIcNS_11char_traitsIcEENS_9allocatorIcEEEEbxydS9_NS2_14adl_serializerENS5_IhNS9_IhEEEEvE6createINS5_ISF_NS9_ISF_EEEEJEEEPT_DpOT0_EUlPSI_E_Li1ELb0EEC2B7v160006IRKSP_vEEOSJ_, symObjAddr: 0x8448, symBinAddr: 0x10000A250, symSize: 0x24 }
  - { offsetInCU: 0x20EBE, offset: 0x20EBE, size: 0x8, addend: 0x0, symName: __ZNSt3__19allocatorINS_6vectorIN8nlohmann16json_abi_v3_11_210basic_jsonINS_3mapES1_NS_12basic_stringIcNS_11char_traitsIcEENS0_IcEEEEbxydS0_NS3_14adl_serializerENS1_IhNS0_IhEEEEvEENS0_ISE_EEEEE9constructB7v160006ISG_JEEEvPT_DpOT0_, symObjAddr: 0x846C, symBinAddr: 0x10000A274, symSize: 0x28 }
  - { offsetInCU: 0x20F00, offset: 0x20F00, size: 0x8, addend: 0x0, symName: __ZNKSt3__117__compressed_pairIPNS_6vectorIN8nlohmann16json_abi_v3_11_210basic_jsonINS_3mapES1_NS_12basic_stringIcNS_11char_traitsIcEENS_9allocatorIcEEEEbxydS9_NS3_14adl_serializerENS1_IhNS9_IhEEEEvEENS9_ISF_EEEEZNSF_6createISH_JEEEPT_DpOT0_EUlSI_E_E5firstB7v160006Ev, symObjAddr: 0x8494, symBinAddr: 0x10000A29C, symSize: 0x24 }
  - { offsetInCU: 0x20F26, offset: 0x20F26, size: 0x8, addend: 0x0, symName: __ZNKSt3__122__compressed_pair_elemIPNS_6vectorIN8nlohmann16json_abi_v3_11_210basic_jsonINS_3mapES1_NS_12basic_stringIcNS_11char_traitsIcEENS_9allocatorIcEEEEbxydS9_NS3_14adl_serializerENS1_IhNS9_IhEEEEvEENS9_ISF_EEEELi0ELb0EE5__getB7v160006Ev, symObjAddr: 0x84B8, symBinAddr: 0x10000A2C0, symSize: 0x14 }
  - { offsetInCU: 0x20F4C, offset: 0x20F4C, size: 0x8, addend: 0x0, symName: __ZNKSt3__110unique_ptrINS_6vectorIN8nlohmann16json_abi_v3_11_210basic_jsonINS_3mapES1_NS_12basic_stringIcNS_11char_traitsIcEENS_9allocatorIcEEEEbxydS9_NS3_14adl_serializerENS1_IhNS9_IhEEEEvEENS9_ISF_EEEEZNSF_6createISH_JEEEPT_DpOT0_EUlPSH_E_EcvbB7v160006Ev, symObjAddr: 0x84CC, symBinAddr: 0x10000A2D4, symSize: 0x34 }
  - { offsetInCU: 0x20F72, offset: 0x20F72, size: 0x8, addend: 0x0, symName: __ZNSt3__117__compressed_pairIPNS_6vectorIN8nlohmann16json_abi_v3_11_210basic_jsonINS_3mapES1_NS_12basic_stringIcNS_11char_traitsIcEENS_9allocatorIcEEEEbxydS9_NS3_14adl_serializerENS1_IhNS9_IhEEEEvEENS9_ISF_EEEEZNSF_6createISH_JEEEPT_DpOT0_EUlSI_E_E5firstB7v160006Ev, symObjAddr: 0x8500, symBinAddr: 0x10000A308, symSize: 0x24 }
  - { offsetInCU: 0x20F98, offset: 0x20F98, size: 0x8, addend: 0x0, symName: __ZNSt3__122__compressed_pair_elemIPNS_6vectorIN8nlohmann16json_abi_v3_11_210basic_jsonINS_3mapES1_NS_12basic_stringIcNS_11char_traitsIcEENS_9allocatorIcEEEEbxydS9_NS3_14adl_serializerENS1_IhNS9_IhEEEEvEENS9_ISF_EEEELi0ELb0EE5__getB7v160006Ev, symObjAddr: 0x8524, symBinAddr: 0x10000A32C, symSize: 0x14 }
  - { offsetInCU: 0x20FBE, offset: 0x20FBE, size: 0x8, addend: 0x0, symName: __ZNSt3__110unique_ptrINS_6vectorIN8nlohmann16json_abi_v3_11_210basic_jsonINS_3mapES1_NS_12basic_stringIcNS_11char_traitsIcEENS_9allocatorIcEEEEbxydS9_NS3_14adl_serializerENS1_IhNS9_IhEEEEvEENS9_ISF_EEEEZNSF_6createISH_JEEEPT_DpOT0_EUlPSH_E_ED2B7v160006Ev, symObjAddr: 0x8538, symBinAddr: 0x10000A340, symSize: 0x30 }
  - { offsetInCU: 0x20FE8, offset: 0x20FE8, size: 0x8, addend: 0x0, symName: __ZNSt3__110unique_ptrINS_6vectorIN8nlohmann16json_abi_v3_11_210basic_jsonINS_3mapES1_NS_12basic_stringIcNS_11char_traitsIcEENS_9allocatorIcEEEEbxydS9_NS3_14adl_serializerENS1_IhNS9_IhEEEEvEENS9_ISF_EEEEZNSF_6createISH_JEEEPT_DpOT0_EUlPSH_E_E5resetB7v160006ESO_, symObjAddr: 0x8568, symBinAddr: 0x10000A370, symSize: 0x80 }
  - { offsetInCU: 0x2102C, offset: 0x2102C, size: 0x8, addend: 0x0, symName: __ZNSt3__117__compressed_pairIPNS_6vectorIN8nlohmann16json_abi_v3_11_210basic_jsonINS_3mapES1_NS_12basic_stringIcNS_11char_traitsIcEENS_9allocatorIcEEEEbxydS9_NS3_14adl_serializerENS1_IhNS9_IhEEEEvEENS9_ISF_EEEEZNSF_6createISH_JEEEPT_DpOT0_EUlSI_E_E6secondB7v160006Ev, symObjAddr: 0x85E8, symBinAddr: 0x10000A3F0, symSize: 0x28 }
  - { offsetInCU: 0x21058, offset: 0x21058, size: 0x8, addend: 0x0, symName: __ZZN8nlohmann16json_abi_v3_11_210basic_jsonINSt3__13mapENS2_6vectorENS2_12basic_stringIcNS2_11char_traitsIcEENS2_9allocatorIcEEEEbxydS8_NS0_14adl_serializerENS4_IhNS8_IhEEEEvE6createINS4_ISE_NS8_ISE_EEEEJEEEPT_DpOT0_ENKUlPSH_E_clESN_, symObjAddr: 0x8610, symBinAddr: 0x10000A418, symSize: 0x34 }
  - { offsetInCU: 0x21091, offset: 0x21091, size: 0x8, addend: 0x0, symName: __ZNSt3__122__compressed_pair_elemIZN8nlohmann16json_abi_v3_11_210basic_jsonINS_3mapENS_6vectorENS_12basic_stringIcNS_11char_traitsIcEENS_9allocatorIcEEEEbxydS9_NS2_14adl_serializerENS5_IhNS9_IhEEEEvE6createINS5_ISF_NS9_ISF_EEEEJEEEPT_DpOT0_EUlPSI_E_Li1ELb0EE5__getB7v160006Ev, symObjAddr: 0x8644, symBinAddr: 0x10000A44C, symSize: 0x14 }
  - { offsetInCU: 0x210B7, offset: 0x210B7, size: 0x8, addend: 0x0, symName: __ZNSt3__116allocator_traitsINS_9allocatorINS_12basic_stringIcNS_11char_traitsIcEENS1_IcEEEEEEE8allocateB7v160006ERS7_m, symObjAddr: 0x8658, symBinAddr: 0x10000A460, symSize: 0x2C }
  - { offsetInCU: 0x2115D, offset: 0x2115D, size: 0x8, addend: 0x0, symName: __ZNSt3__110unique_ptrINS_12basic_stringIcNS_11char_traitsIcEENS_9allocatorIcEEEEZN8nlohmann16json_abi_v3_11_210basic_jsonINS_3mapENS_6vectorES6_bxydS4_NS8_14adl_serializerENSB_IhNS4_IhEEEEvE6createIS6_JRA1_KcEEEPT_DpOT0_EUlPS6_E_EC1B7v160006ILb1EvEESP_NS_16__dependent_typeINS_27__unique_ptr_deleter_sfinaeISQ_EEXT_EE15__lval_ref_typeE, symObjAddr: 0x8684, symBinAddr: 0x10000A48C, symSize: 0x3C }
  - { offsetInCU: 0x211AE, offset: 0x211AE, size: 0x8, addend: 0x0, symName: __ZNSt3__116allocator_traitsINS_9allocatorINS_12basic_stringIcNS_11char_traitsIcEENS1_IcEEEEEEE9constructB7v160006IS6_JRA1_KcEvEEvRS7_PT_DpOT0_, symObjAddr: 0x86C0, symBinAddr: 0x10000A4C8, symSize: 0x34 }
  - { offsetInCU: 0x21205, offset: 0x21205, size: 0x8, addend: 0x0, symName: __ZNKSt3__110unique_ptrINS_12basic_stringIcNS_11char_traitsIcEENS_9allocatorIcEEEEZN8nlohmann16json_abi_v3_11_210basic_jsonINS_3mapENS_6vectorES6_bxydS4_NS8_14adl_serializerENSB_IhNS4_IhEEEEvE6createIS6_JRA1_KcEEEPT_DpOT0_EUlPS6_E_E3getB7v160006Ev, symObjAddr: 0x86F4, symBinAddr: 0x10000A4FC, symSize: 0x28 }
  - { offsetInCU: 0x2122B, offset: 0x2122B, size: 0x8, addend: 0x0, symName: __ZNSt3__110unique_ptrINS_12basic_stringIcNS_11char_traitsIcEENS_9allocatorIcEEEEZN8nlohmann16json_abi_v3_11_210basic_jsonINS_3mapENS_6vectorES6_bxydS4_NS8_14adl_serializerENSB_IhNS4_IhEEEEvE6createIS6_JRA1_KcEEEPT_DpOT0_EUlPS6_E_E7releaseB7v160006Ev, symObjAddr: 0x8748, symBinAddr: 0x10000A550, symSize: 0x44 }
  - { offsetInCU: 0x21260, offset: 0x21260, size: 0x8, addend: 0x0, symName: __ZNSt3__110unique_ptrINS_12basic_stringIcNS_11char_traitsIcEENS_9allocatorIcEEEEZN8nlohmann16json_abi_v3_11_210basic_jsonINS_3mapENS_6vectorES6_bxydS4_NS8_14adl_serializerENSB_IhNS4_IhEEEEvE6createIS6_JRA1_KcEEEPT_DpOT0_EUlPS6_E_ED1B7v160006Ev, symObjAddr: 0x878C, symBinAddr: 0x10000A594, symSize: 0x2C }
  - { offsetInCU: 0x2128A, offset: 0x2128A, size: 0x8, addend: 0x0, symName: __ZNSt3__19allocatorINS_12basic_stringIcNS_11char_traitsIcEENS0_IcEEEEE8allocateB7v160006Em, symObjAddr: 0x87B8, symBinAddr: 0x10000A5C0, symSize: 0x5C }
  - { offsetInCU: 0x212C9, offset: 0x212C9, size: 0x8, addend: 0x0, symName: __ZNSt3__116allocator_traitsINS_9allocatorINS_12basic_stringIcNS_11char_traitsIcEENS1_IcEEEEEEE8max_sizeB7v160006IS7_vEEmRKS7_, symObjAddr: 0x8814, symBinAddr: 0x10000A61C, symSize: 0x24 }
  - { offsetInCU: 0x212F7, offset: 0x212F7, size: 0x8, addend: 0x0, symName: __ZNKSt3__19allocatorINS_12basic_stringIcNS_11char_traitsIcEENS0_IcEEEEE8max_sizeB7v160006Ev, symObjAddr: 0x8838, symBinAddr: 0x10000A640, symSize: 0x18 }
  - { offsetInCU: 0x2131D, offset: 0x2131D, size: 0x8, addend: 0x0, symName: __ZNSt3__110unique_ptrINS_12basic_stringIcNS_11char_traitsIcEENS_9allocatorIcEEEEZN8nlohmann16json_abi_v3_11_210basic_jsonINS_3mapENS_6vectorES6_bxydS4_NS8_14adl_serializerENSB_IhNS4_IhEEEEvE6createIS6_JRA1_KcEEEPT_DpOT0_EUlPS6_E_EC2B7v160006ILb1EvEESP_NS_16__dependent_typeINS_27__unique_ptr_deleter_sfinaeISQ_EEXT_EE15__lval_ref_typeE, symObjAddr: 0x8850, symBinAddr: 0x10000A658, symSize: 0x48 }
  - { offsetInCU: 0x21374, offset: 0x21374, size: 0x8, addend: 0x0, symName: __ZNSt3__117__compressed_pairIPNS_12basic_stringIcNS_11char_traitsIcEENS_9allocatorIcEEEEZN8nlohmann16json_abi_v3_11_210basic_jsonINS_3mapENS_6vectorES6_bxydS4_NS9_14adl_serializerENSC_IhNS4_IhEEEEvE6createIS6_JRA1_KcEEEPT_DpOT0_EUlS7_E_EC1B7v160006IRS7_RKSQ_EEOSL_OT0_, symObjAddr: 0x8898, symBinAddr: 0x10000A6A0, symSize: 0x3C }
  - { offsetInCU: 0x213CC, offset: 0x213CC, size: 0x8, addend: 0x0, symName: __ZNSt3__117__compressed_pairIPNS_12basic_stringIcNS_11char_traitsIcEENS_9allocatorIcEEEEZN8nlohmann16json_abi_v3_11_210basic_jsonINS_3mapENS_6vectorES6_bxydS4_NS9_14adl_serializerENSC_IhNS4_IhEEEEvE6createIS6_JRA1_KcEEEPT_DpOT0_EUlS7_E_EC2B7v160006IRS7_RKSQ_EEOSL_OT0_, symObjAddr: 0x88D4, symBinAddr: 0x10000A6DC, symSize: 0x48 }
  - { offsetInCU: 0x21424, offset: 0x21424, size: 0x8, addend: 0x0, symName: __ZNSt3__122__compressed_pair_elemIPNS_12basic_stringIcNS_11char_traitsIcEENS_9allocatorIcEEEELi0ELb0EEC2B7v160006IRS7_vEEOT_, symObjAddr: 0x891C, symBinAddr: 0x10000A724, symSize: 0x24 }
  - { offsetInCU: 0x21466, offset: 0x21466, size: 0x8, addend: 0x0, symName: __ZNSt3__122__compressed_pair_elemIZN8nlohmann16json_abi_v3_11_210basic_jsonINS_3mapENS_6vectorENS_12basic_stringIcNS_11char_traitsIcEENS_9allocatorIcEEEEbxydS9_NS2_14adl_serializerENS5_IhNS9_IhEEEEvE6createISB_JRA1_KcEEEPT_DpOT0_EUlPSB_E_Li1ELb0EEC2B7v160006IRKSQ_vEEOSK_, symObjAddr: 0x8940, symBinAddr: 0x10000A748, symSize: 0x24 }
  - { offsetInCU: 0x214A8, offset: 0x214A8, size: 0x8, addend: 0x0, symName: __ZNSt3__19allocatorINS_12basic_stringIcNS_11char_traitsIcEENS0_IcEEEEE9constructB7v160006IS5_JRA1_KcEEEvPT_DpOT0_, symObjAddr: 0x8964, symBinAddr: 0x10000A76C, symSize: 0x30 }
  - { offsetInCU: 0x214FE, offset: 0x214FE, size: 0x8, addend: 0x0, symName: __ZNKSt3__117__compressed_pairIPNS_12basic_stringIcNS_11char_traitsIcEENS_9allocatorIcEEEEZN8nlohmann16json_abi_v3_11_210basic_jsonINS_3mapENS_6vectorES6_bxydS4_NS9_14adl_serializerENSC_IhNS4_IhEEEEvE6createIS6_JRA1_KcEEEPT_DpOT0_EUlS7_E_E5firstB7v160006Ev, symObjAddr: 0x8994, symBinAddr: 0x10000A79C, symSize: 0x24 }
  - { offsetInCU: 0x21524, offset: 0x21524, size: 0x8, addend: 0x0, symName: __ZNKSt3__122__compressed_pair_elemIPNS_12basic_stringIcNS_11char_traitsIcEENS_9allocatorIcEEEELi0ELb0EE5__getB7v160006Ev, symObjAddr: 0x89B8, symBinAddr: 0x10000A7C0, symSize: 0x14 }
  - { offsetInCU: 0x2154A, offset: 0x2154A, size: 0x8, addend: 0x0, symName: __ZNKSt3__110unique_ptrINS_12basic_stringIcNS_11char_traitsIcEENS_9allocatorIcEEEEZN8nlohmann16json_abi_v3_11_210basic_jsonINS_3mapENS_6vectorES6_bxydS4_NS8_14adl_serializerENSB_IhNS4_IhEEEEvE6createIS6_JRA1_KcEEEPT_DpOT0_EUlPS6_E_EcvbB7v160006Ev, symObjAddr: 0x89CC, symBinAddr: 0x10000A7D4, symSize: 0x34 }
  - { offsetInCU: 0x21570, offset: 0x21570, size: 0x8, addend: 0x0, symName: __ZNSt3__117__compressed_pairIPNS_12basic_stringIcNS_11char_traitsIcEENS_9allocatorIcEEEEZN8nlohmann16json_abi_v3_11_210basic_jsonINS_3mapENS_6vectorES6_bxydS4_NS9_14adl_serializerENSC_IhNS4_IhEEEEvE6createIS6_JRA1_KcEEEPT_DpOT0_EUlS7_E_E5firstB7v160006Ev, symObjAddr: 0x8A00, symBinAddr: 0x10000A808, symSize: 0x24 }
  - { offsetInCU: 0x21596, offset: 0x21596, size: 0x8, addend: 0x0, symName: __ZNSt3__122__compressed_pair_elemIPNS_12basic_stringIcNS_11char_traitsIcEENS_9allocatorIcEEEELi0ELb0EE5__getB7v160006Ev, symObjAddr: 0x8A24, symBinAddr: 0x10000A82C, symSize: 0x14 }
  - { offsetInCU: 0x215BC, offset: 0x215BC, size: 0x8, addend: 0x0, symName: __ZNSt3__110unique_ptrINS_12basic_stringIcNS_11char_traitsIcEENS_9allocatorIcEEEEZN8nlohmann16json_abi_v3_11_210basic_jsonINS_3mapENS_6vectorES6_bxydS4_NS8_14adl_serializerENSB_IhNS4_IhEEEEvE6createIS6_JRA1_KcEEEPT_DpOT0_EUlPS6_E_ED2B7v160006Ev, symObjAddr: 0x8A38, symBinAddr: 0x10000A840, symSize: 0x30 }
  - { offsetInCU: 0x215E6, offset: 0x215E6, size: 0x8, addend: 0x0, symName: __ZNSt3__110unique_ptrINS_12basic_stringIcNS_11char_traitsIcEENS_9allocatorIcEEEEZN8nlohmann16json_abi_v3_11_210basic_jsonINS_3mapENS_6vectorES6_bxydS4_NS8_14adl_serializerENSB_IhNS4_IhEEEEvE6createIS6_JRA1_KcEEEPT_DpOT0_EUlPS6_E_E5resetB7v160006ESP_, symObjAddr: 0x8A68, symBinAddr: 0x10000A870, symSize: 0x80 }
  - { offsetInCU: 0x2162A, offset: 0x2162A, size: 0x8, addend: 0x0, symName: __ZNSt3__117__compressed_pairIPNS_12basic_stringIcNS_11char_traitsIcEENS_9allocatorIcEEEEZN8nlohmann16json_abi_v3_11_210basic_jsonINS_3mapENS_6vectorES6_bxydS4_NS9_14adl_serializerENSC_IhNS4_IhEEEEvE6createIS6_JRA1_KcEEEPT_DpOT0_EUlS7_E_E6secondB7v160006Ev, symObjAddr: 0x8AE8, symBinAddr: 0x10000A8F0, symSize: 0x28 }
  - { offsetInCU: 0x21656, offset: 0x21656, size: 0x8, addend: 0x0, symName: __ZZN8nlohmann16json_abi_v3_11_210basic_jsonINSt3__13mapENS2_6vectorENS2_12basic_stringIcNS2_11char_traitsIcEENS2_9allocatorIcEEEEbxydS8_NS0_14adl_serializerENS4_IhNS8_IhEEEEvE6createISA_JRA1_KcEEEPT_DpOT0_ENKUlPSA_E_clESO_, symObjAddr: 0x8B10, symBinAddr: 0x10000A918, symSize: 0x34 }
  - { offsetInCU: 0x2168F, offset: 0x2168F, size: 0x8, addend: 0x0, symName: __ZNSt3__122__compressed_pair_elemIZN8nlohmann16json_abi_v3_11_210basic_jsonINS_3mapENS_6vectorENS_12basic_stringIcNS_11char_traitsIcEENS_9allocatorIcEEEEbxydS9_NS2_14adl_serializerENS5_IhNS9_IhEEEEvE6createISB_JRA1_KcEEEPT_DpOT0_EUlPSB_E_Li1ELb0EE5__getB7v160006Ev, symObjAddr: 0x8B44, symBinAddr: 0x10000A94C, symSize: 0x14 }
  - { offsetInCU: 0x216B5, offset: 0x216B5, size: 0x8, addend: 0x0, symName: __ZNSt3__116allocator_traitsINS_9allocatorIN8nlohmann16json_abi_v3_11_227byte_container_with_subtypeINS_6vectorIhNS1_IhEEEEEEEEE8allocateB7v160006ERS9_m, symObjAddr: 0x8B58, symBinAddr: 0x10000A960, symSize: 0x2C }
  - { offsetInCU: 0x21789, offset: 0x21789, size: 0x8, addend: 0x0, symName: __ZNSt3__110unique_ptrIN8nlohmann16json_abi_v3_11_227byte_container_with_subtypeINS_6vectorIhNS_9allocatorIhEEEEEEZNS2_10basic_jsonINS_3mapES4_NS_12basic_stringIcNS_11char_traitsIcEENS5_IcEEEEbxydS5_NS2_14adl_serializerES7_vE6createIS8_JEEEPT_DpOT0_EUlPS8_E_EC1B7v160006ILb1EvEESO_NS_16__dependent_typeINS_27__unique_ptr_deleter_sfinaeISP_EEXT_EE15__lval_ref_typeE, symObjAddr: 0x8B84, symBinAddr: 0x10000A98C, symSize: 0x3C }
  - { offsetInCU: 0x217DA, offset: 0x217DA, size: 0x8, addend: 0x0, symName: __ZNSt3__116allocator_traitsINS_9allocatorIN8nlohmann16json_abi_v3_11_227byte_container_with_subtypeINS_6vectorIhNS1_IhEEEEEEEEE9constructB7v160006IS8_JEvEEvRS9_PT_DpOT0_, symObjAddr: 0x8BC0, symBinAddr: 0x10000A9C8, symSize: 0x2C }
  - { offsetInCU: 0x2181C, offset: 0x2181C, size: 0x8, addend: 0x0, symName: __ZNKSt3__110unique_ptrIN8nlohmann16json_abi_v3_11_227byte_container_with_subtypeINS_6vectorIhNS_9allocatorIhEEEEEEZNS2_10basic_jsonINS_3mapES4_NS_12basic_stringIcNS_11char_traitsIcEENS5_IcEEEEbxydS5_NS2_14adl_serializerES7_vE6createIS8_JEEEPT_DpOT0_EUlPS8_E_E3getB7v160006Ev, symObjAddr: 0x8BEC, symBinAddr: 0x10000A9F4, symSize: 0x28 }
  - { offsetInCU: 0x21842, offset: 0x21842, size: 0x8, addend: 0x0, symName: __ZNSt3__110unique_ptrIN8nlohmann16json_abi_v3_11_227byte_container_with_subtypeINS_6vectorIhNS_9allocatorIhEEEEEEZNS2_10basic_jsonINS_3mapES4_NS_12basic_stringIcNS_11char_traitsIcEENS5_IcEEEEbxydS5_NS2_14adl_serializerES7_vE6createIS8_JEEEPT_DpOT0_EUlPS8_E_E7releaseB7v160006Ev, symObjAddr: 0x8C40, symBinAddr: 0x10000AA48, symSize: 0x44 }
  - { offsetInCU: 0x21877, offset: 0x21877, size: 0x8, addend: 0x0, symName: __ZNSt3__110unique_ptrIN8nlohmann16json_abi_v3_11_227byte_container_with_subtypeINS_6vectorIhNS_9allocatorIhEEEEEEZNS2_10basic_jsonINS_3mapES4_NS_12basic_stringIcNS_11char_traitsIcEENS5_IcEEEEbxydS5_NS2_14adl_serializerES7_vE6createIS8_JEEEPT_DpOT0_EUlPS8_E_ED1B7v160006Ev, symObjAddr: 0x8C84, symBinAddr: 0x10000AA8C, symSize: 0x2C }
  - { offsetInCU: 0x218A1, offset: 0x218A1, size: 0x8, addend: 0x0, symName: __ZNSt3__19allocatorIN8nlohmann16json_abi_v3_11_227byte_container_with_subtypeINS_6vectorIhNS0_IhEEEEEEE8allocateB7v160006Em, symObjAddr: 0x8CB0, symBinAddr: 0x10000AAB8, symSize: 0x5C }
  - { offsetInCU: 0x218E0, offset: 0x218E0, size: 0x8, addend: 0x0, symName: __ZNSt3__116allocator_traitsINS_9allocatorIN8nlohmann16json_abi_v3_11_227byte_container_with_subtypeINS_6vectorIhNS1_IhEEEEEEEEE8max_sizeB7v160006IS9_vEEmRKS9_, symObjAddr: 0x8D0C, symBinAddr: 0x10000AB14, symSize: 0x24 }
  - { offsetInCU: 0x2190E, offset: 0x2190E, size: 0x8, addend: 0x0, symName: __ZNKSt3__19allocatorIN8nlohmann16json_abi_v3_11_227byte_container_with_subtypeINS_6vectorIhNS0_IhEEEEEEE8max_sizeB7v160006Ev, symObjAddr: 0x8D30, symBinAddr: 0x10000AB38, symSize: 0x18 }
  - { offsetInCU: 0x21934, offset: 0x21934, size: 0x8, addend: 0x0, symName: __ZNSt3__110unique_ptrIN8nlohmann16json_abi_v3_11_227byte_container_with_subtypeINS_6vectorIhNS_9allocatorIhEEEEEEZNS2_10basic_jsonINS_3mapES4_NS_12basic_stringIcNS_11char_traitsIcEENS5_IcEEEEbxydS5_NS2_14adl_serializerES7_vE6createIS8_JEEEPT_DpOT0_EUlPS8_E_EC2B7v160006ILb1EvEESO_NS_16__dependent_typeINS_27__unique_ptr_deleter_sfinaeISP_EEXT_EE15__lval_ref_typeE, symObjAddr: 0x8D48, symBinAddr: 0x10000AB50, symSize: 0x48 }
  - { offsetInCU: 0x21985, offset: 0x21985, size: 0x8, addend: 0x0, symName: __ZNSt3__117__compressed_pairIPN8nlohmann16json_abi_v3_11_227byte_container_with_subtypeINS_6vectorIhNS_9allocatorIhEEEEEEZNS2_10basic_jsonINS_3mapES4_NS_12basic_stringIcNS_11char_traitsIcEENS5_IcEEEEbxydS5_NS2_14adl_serializerES7_vE6createIS8_JEEEPT_DpOT0_EUlS9_E_EC1B7v160006IRS9_RKSP_EEOSK_OT0_, symObjAddr: 0x8D90, symBinAddr: 0x10000AB98, symSize: 0x3C }
  - { offsetInCU: 0x219DD, offset: 0x219DD, size: 0x8, addend: 0x0, symName: __ZNSt3__117__compressed_pairIPN8nlohmann16json_abi_v3_11_227byte_container_with_subtypeINS_6vectorIhNS_9allocatorIhEEEEEEZNS2_10basic_jsonINS_3mapES4_NS_12basic_stringIcNS_11char_traitsIcEENS5_IcEEEEbxydS5_NS2_14adl_serializerES7_vE6createIS8_JEEEPT_DpOT0_EUlS9_E_EC2B7v160006IRS9_RKSP_EEOSK_OT0_, symObjAddr: 0x8DCC, symBinAddr: 0x10000ABD4, symSize: 0x48 }
  - { offsetInCU: 0x21A35, offset: 0x21A35, size: 0x8, addend: 0x0, symName: __ZNSt3__122__compressed_pair_elemIPN8nlohmann16json_abi_v3_11_227byte_container_with_subtypeINS_6vectorIhNS_9allocatorIhEEEEEELi0ELb0EEC2B7v160006IRS9_vEEOT_, symObjAddr: 0x8E14, symBinAddr: 0x10000AC1C, symSize: 0x24 }
  - { offsetInCU: 0x21A77, offset: 0x21A77, size: 0x8, addend: 0x0, symName: __ZNSt3__122__compressed_pair_elemIZN8nlohmann16json_abi_v3_11_210basic_jsonINS_3mapENS_6vectorENS_12basic_stringIcNS_11char_traitsIcEENS_9allocatorIcEEEEbxydS9_NS2_14adl_serializerENS5_IhNS9_IhEEEEvE6createINS2_27byte_container_with_subtypeISE_EEJEEEPT_DpOT0_EUlPSI_E_Li1ELb0EEC2B7v160006IRKSP_vEEOSJ_, symObjAddr: 0x8E38, symBinAddr: 0x10000AC40, symSize: 0x24 }
  - { offsetInCU: 0x21AB9, offset: 0x21AB9, size: 0x8, addend: 0x0, symName: __ZNSt3__19allocatorIN8nlohmann16json_abi_v3_11_227byte_container_with_subtypeINS_6vectorIhNS0_IhEEEEEEE9constructB7v160006IS7_JEEEvPT_DpOT0_, symObjAddr: 0x8E5C, symBinAddr: 0x10000AC64, symSize: 0x28 }
  - { offsetInCU: 0x21AFB, offset: 0x21AFB, size: 0x8, addend: 0x0, symName: __ZN8nlohmann16json_abi_v3_11_227byte_container_with_subtypeINSt3__16vectorIhNS2_9allocatorIhEEEEEC1Ev, symObjAddr: 0x8E84, symBinAddr: 0x10000AC8C, symSize: 0x2C }
  - { offsetInCU: 0x21B25, offset: 0x21B25, size: 0x8, addend: 0x0, symName: __ZN8nlohmann16json_abi_v3_11_227byte_container_with_subtypeINSt3__16vectorIhNS2_9allocatorIhEEEEEC2Ev, symObjAddr: 0x8EB0, symBinAddr: 0x10000ACB8, symSize: 0x34 }
  - { offsetInCU: 0x21B4F, offset: 0x21B4F, size: 0x8, addend: 0x0, symName: __ZNSt3__16vectorIhNS_9allocatorIhEEEC2B7v160006Ev, symObjAddr: 0x8EE4, symBinAddr: 0x10000ACEC, symSize: 0x58 }
  - { offsetInCU: 0x21B79, offset: 0x21B79, size: 0x8, addend: 0x0, symName: __ZNSt3__117__compressed_pairIPhNS_9allocatorIhEEEC1B7v160006IDnNS_18__default_init_tagEEEOT_OT0_, symObjAddr: 0x8F3C, symBinAddr: 0x10000AD44, symSize: 0x3C }
  - { offsetInCU: 0x21BD1, offset: 0x21BD1, size: 0x8, addend: 0x0, symName: __ZNSt3__117__compressed_pairIPhNS_9allocatorIhEEEC2B7v160006IDnNS_18__default_init_tagEEEOT_OT0_, symObjAddr: 0x8F88, symBinAddr: 0x10000AD90, symSize: 0x40 }
  - { offsetInCU: 0x21C29, offset: 0x21C29, size: 0x8, addend: 0x0, symName: __ZNSt3__122__compressed_pair_elemIPhLi0ELb0EEC2B7v160006IDnvEEOT_, symObjAddr: 0x8FC8, symBinAddr: 0x10000ADD0, symSize: 0x1C }
  - { offsetInCU: 0x21C6B, offset: 0x21C6B, size: 0x8, addend: 0x0, symName: __ZNSt3__122__compressed_pair_elemINS_9allocatorIhEELi1ELb1EEC2B7v160006ENS_18__default_init_tagE, symObjAddr: 0x8FE4, symBinAddr: 0x10000ADEC, symSize: 0x2C }
  - { offsetInCU: 0x21CA0, offset: 0x21CA0, size: 0x8, addend: 0x0, symName: __ZNSt3__19allocatorIhEC2B7v160006Ev, symObjAddr: 0x9010, symBinAddr: 0x10000AE18, symSize: 0x2C }
  - { offsetInCU: 0x21CCA, offset: 0x21CCA, size: 0x8, addend: 0x0, symName: __ZNSt3__116__non_trivial_ifILb1ENS_9allocatorIhEEEC2B7v160006Ev, symObjAddr: 0x903C, symBinAddr: 0x10000AE44, symSize: 0x14 }
  - { offsetInCU: 0x21CF4, offset: 0x21CF4, size: 0x8, addend: 0x0, symName: __ZNKSt3__117__compressed_pairIPN8nlohmann16json_abi_v3_11_227byte_container_with_subtypeINS_6vectorIhNS_9allocatorIhEEEEEEZNS2_10basic_jsonINS_3mapES4_NS_12basic_stringIcNS_11char_traitsIcEENS5_IcEEEEbxydS5_NS2_14adl_serializerES7_vE6createIS8_JEEEPT_DpOT0_EUlS9_E_E5firstB7v160006Ev, symObjAddr: 0x9050, symBinAddr: 0x10000AE58, symSize: 0x24 }
  - { offsetInCU: 0x21D1A, offset: 0x21D1A, size: 0x8, addend: 0x0, symName: __ZNKSt3__122__compressed_pair_elemIPN8nlohmann16json_abi_v3_11_227byte_container_with_subtypeINS_6vectorIhNS_9allocatorIhEEEEEELi0ELb0EE5__getB7v160006Ev, symObjAddr: 0x9074, symBinAddr: 0x10000AE7C, symSize: 0x14 }
  - { offsetInCU: 0x21D40, offset: 0x21D40, size: 0x8, addend: 0x0, symName: __ZNKSt3__110unique_ptrIN8nlohmann16json_abi_v3_11_227byte_container_with_subtypeINS_6vectorIhNS_9allocatorIhEEEEEEZNS2_10basic_jsonINS_3mapES4_NS_12basic_stringIcNS_11char_traitsIcEENS5_IcEEEEbxydS5_NS2_14adl_serializerES7_vE6createIS8_JEEEPT_DpOT0_EUlPS8_E_EcvbB7v160006Ev, symObjAddr: 0x9088, symBinAddr: 0x10000AE90, symSize: 0x34 }
  - { offsetInCU: 0x21D66, offset: 0x21D66, size: 0x8, addend: 0x0, symName: __ZNSt3__117__compressed_pairIPN8nlohmann16json_abi_v3_11_227byte_container_with_subtypeINS_6vectorIhNS_9allocatorIhEEEEEEZNS2_10basic_jsonINS_3mapES4_NS_12basic_stringIcNS_11char_traitsIcEENS5_IcEEEEbxydS5_NS2_14adl_serializerES7_vE6createIS8_JEEEPT_DpOT0_EUlS9_E_E5firstB7v160006Ev, symObjAddr: 0x90BC, symBinAddr: 0x10000AEC4, symSize: 0x24 }
  - { offsetInCU: 0x21D8C, offset: 0x21D8C, size: 0x8, addend: 0x0, symName: __ZNSt3__122__compressed_pair_elemIPN8nlohmann16json_abi_v3_11_227byte_container_with_subtypeINS_6vectorIhNS_9allocatorIhEEEEEELi0ELb0EE5__getB7v160006Ev, symObjAddr: 0x90E0, symBinAddr: 0x10000AEE8, symSize: 0x14 }
  - { offsetInCU: 0x21DB2, offset: 0x21DB2, size: 0x8, addend: 0x0, symName: __ZNSt3__110unique_ptrIN8nlohmann16json_abi_v3_11_227byte_container_with_subtypeINS_6vectorIhNS_9allocatorIhEEEEEEZNS2_10basic_jsonINS_3mapES4_NS_12basic_stringIcNS_11char_traitsIcEENS5_IcEEEEbxydS5_NS2_14adl_serializerES7_vE6createIS8_JEEEPT_DpOT0_EUlPS8_E_ED2B7v160006Ev, symObjAddr: 0x90F4, symBinAddr: 0x10000AEFC, symSize: 0x30 }
  - { offsetInCU: 0x21DDC, offset: 0x21DDC, size: 0x8, addend: 0x0, symName: __ZNSt3__110unique_ptrIN8nlohmann16json_abi_v3_11_227byte_container_with_subtypeINS_6vectorIhNS_9allocatorIhEEEEEEZNS2_10basic_jsonINS_3mapES4_NS_12basic_stringIcNS_11char_traitsIcEENS5_IcEEEEbxydS5_NS2_14adl_serializerES7_vE6createIS8_JEEEPT_DpOT0_EUlPS8_E_E5resetB7v160006ESO_, symObjAddr: 0x9124, symBinAddr: 0x10000AF2C, symSize: 0x80 }
  - { offsetInCU: 0x21E20, offset: 0x21E20, size: 0x8, addend: 0x0, symName: __ZNSt3__117__compressed_pairIPN8nlohmann16json_abi_v3_11_227byte_container_with_subtypeINS_6vectorIhNS_9allocatorIhEEEEEEZNS2_10basic_jsonINS_3mapES4_NS_12basic_stringIcNS_11char_traitsIcEENS5_IcEEEEbxydS5_NS2_14adl_serializerES7_vE6createIS8_JEEEPT_DpOT0_EUlS9_E_E6secondB7v160006Ev, symObjAddr: 0x91A4, symBinAddr: 0x10000AFAC, symSize: 0x28 }
  - { offsetInCU: 0x21E4C, offset: 0x21E4C, size: 0x8, addend: 0x0, symName: __ZZN8nlohmann16json_abi_v3_11_210basic_jsonINSt3__13mapENS2_6vectorENS2_12basic_stringIcNS2_11char_traitsIcEENS2_9allocatorIcEEEEbxydS8_NS0_14adl_serializerENS4_IhNS8_IhEEEEvE6createINS0_27byte_container_with_subtypeISD_EEJEEEPT_DpOT0_ENKUlPSH_E_clESN_, symObjAddr: 0x91CC, symBinAddr: 0x10000AFD4, symSize: 0x34 }
  - { offsetInCU: 0x21E85, offset: 0x21E85, size: 0x8, addend: 0x0, symName: __ZNSt3__122__compressed_pair_elemIZN8nlohmann16json_abi_v3_11_210basic_jsonINS_3mapENS_6vectorENS_12basic_stringIcNS_11char_traitsIcEENS_9allocatorIcEEEEbxydS9_NS2_14adl_serializerENS5_IhNS9_IhEEEEvE6createINS2_27byte_container_with_subtypeISE_EEJEEEPT_DpOT0_EUlPSI_E_Li1ELb0EE5__getB7v160006Ev, symObjAddr: 0x9200, symBinAddr: 0x10000B008, symSize: 0x14 }
  - { offsetInCU: 0x21EAB, offset: 0x21EAB, size: 0x8, addend: 0x0, symName: __ZN8nlohmann16json_abi_v3_11_26detail9exception4nameERKNSt3__112basic_stringIcNS3_11char_traitsIcEENS3_9allocatorIcEEEEi, symObjAddr: 0x92EC, symBinAddr: 0x10000B0F4, symSize: 0xA0 }
  - { offsetInCU: 0x21EDE, offset: 0x21EDE, size: 0x8, addend: 0x0, symName: __ZN8nlohmann16json_abi_v3_11_26detail9exception11diagnosticsEDn, symObjAddr: 0x938C, symBinAddr: 0x10000B194, symSize: 0x3C }
  - { offsetInCU: 0x21EFE, offset: 0x21EFE, size: 0x8, addend: 0x0, symName: __ZNKSt3__112basic_stringIcNS_11char_traitsIcEENS_9allocatorIcEEE5c_strB7v160006Ev, symObjAddr: 0x93C8, symBinAddr: 0x10000B1D0, symSize: 0x24 }
  - { offsetInCU: 0x21F24, offset: 0x21F24, size: 0x8, addend: 0x0, symName: __ZN8nlohmann16json_abi_v3_11_26detail11other_errorC1EiPKc, symObjAddr: 0x93EC, symBinAddr: 0x10000B1F4, symSize: 0x3C }
  - { offsetInCU: 0x21F6C, offset: 0x21F6C, size: 0x8, addend: 0x0, symName: __ZNSt3__112basic_stringIcNS_11char_traitsIcEENS_9allocatorIcEEEC1B7v160006Ev, symObjAddr: 0x9428, symBinAddr: 0x10000B230, symSize: 0x2C }
  - { offsetInCU: 0x21F96, offset: 0x21F96, size: 0x8, addend: 0x0, symName: __ZNSt3__112basic_stringIcNS_11char_traitsIcEENS_9allocatorIcEEEC2B7v160006Ev, symObjAddr: 0x94E0, symBinAddr: 0x10000B2E8, symSize: 0x4C }
  - { offsetInCU: 0x21FC0, offset: 0x21FC0, size: 0x8, addend: 0x0, symName: __ZNSt3__117__compressed_pairINS_12basic_stringIcNS_11char_traitsIcEENS_9allocatorIcEEE5__repES5_EC1B7v160006INS_18__default_init_tagESA_EEOT_OT0_, symObjAddr: 0x952C, symBinAddr: 0x10000B334, symSize: 0x3C }
  - { offsetInCU: 0x22018, offset: 0x22018, size: 0x8, addend: 0x0, symName: __ZNSt3__117__compressed_pairINS_12basic_stringIcNS_11char_traitsIcEENS_9allocatorIcEEE5__repES5_EC2B7v160006INS_18__default_init_tagESA_EEOT_OT0_, symObjAddr: 0x9568, symBinAddr: 0x10000B370, symSize: 0x3C }
  - { offsetInCU: 0x22070, offset: 0x22070, size: 0x8, addend: 0x0, symName: __ZNSt3__122__compressed_pair_elemINS_12basic_stringIcNS_11char_traitsIcEENS_9allocatorIcEEE5__repELi0ELb0EEC2B7v160006ENS_18__default_init_tagE, symObjAddr: 0x95A4, symBinAddr: 0x10000B3AC, symSize: 0x14 }
  - { offsetInCU: 0x220A5, offset: 0x220A5, size: 0x8, addend: 0x0, symName: __ZNSt3__122__compressed_pair_elemINS_9allocatorIcEELi1ELb1EEC2B7v160006ENS_18__default_init_tagE, symObjAddr: 0x95B8, symBinAddr: 0x10000B3C0, symSize: 0x2C }
  - { offsetInCU: 0x220DA, offset: 0x220DA, size: 0x8, addend: 0x0, symName: __ZNSt3__19allocatorIcEC2B7v160006Ev, symObjAddr: 0x95E4, symBinAddr: 0x10000B3EC, symSize: 0x2C }
  - { offsetInCU: 0x22104, offset: 0x22104, size: 0x8, addend: 0x0, symName: __ZNSt3__116__non_trivial_ifILb1ENS_9allocatorIcEEEC2B7v160006Ev, symObjAddr: 0x9610, symBinAddr: 0x10000B418, symSize: 0x14 }
  - { offsetInCU: 0x2212E, offset: 0x2212E, size: 0x8, addend: 0x0, symName: __ZNSt3__112basic_stringIcNS_11char_traitsIcEENS_9allocatorIcEEE6appendB7v160006ERKS5_, symObjAddr: 0x96A4, symBinAddr: 0x10000B4AC, symSize: 0x4C }
  - { offsetInCU: 0x22163, offset: 0x22163, size: 0x8, addend: 0x0, symName: __ZNSt3__112basic_stringIcNS_11char_traitsIcEENS_9allocatorIcEEEpLB7v160006Ec, symObjAddr: 0x9AA0, symBinAddr: 0x10000B8A8, symSize: 0x34 }
  - { offsetInCU: 0x22198, offset: 0x22198, size: 0x8, addend: 0x0, symName: __ZN8nlohmann16json_abi_v3_11_26detail11other_errorC2EiPKc, symObjAddr: 0x9B44, symBinAddr: 0x10000B94C, symSize: 0x54 }
  - { offsetInCU: 0x221E0, offset: 0x221E0, size: 0x8, addend: 0x0, symName: __ZN8nlohmann16json_abi_v3_11_26detail9exceptionC2EiPKc, symObjAddr: 0x9B98, symBinAddr: 0x10000B9A0, symSize: 0x8C }
  - { offsetInCU: 0x22228, offset: 0x22228, size: 0x8, addend: 0x0, symName: __ZN8nlohmann16json_abi_v3_11_26detail11other_errorD0Ev, symObjAddr: 0x9C24, symBinAddr: 0x10000BA2C, symSize: 0x30 }
  - { offsetInCU: 0x22255, offset: 0x22255, size: 0x8, addend: 0x0, symName: __ZNK8nlohmann16json_abi_v3_11_26detail9exception4whatEv, symObjAddr: 0x9C54, symBinAddr: 0x10000BA5C, symSize: 0x28 }
  - { offsetInCU: 0x2227B, offset: 0x2227B, size: 0x8, addend: 0x0, symName: __ZNSt9exceptionC2B7v160006Ev, symObjAddr: 0x9C7C, symBinAddr: 0x10000BA84, symSize: 0x24 }
  - { offsetInCU: 0x222A5, offset: 0x222A5, size: 0x8, addend: 0x0, symName: __ZN8nlohmann16json_abi_v3_11_26detail9exceptionD1Ev, symObjAddr: 0x9CA0, symBinAddr: 0x10000BAA8, symSize: 0x2C }
  - { offsetInCU: 0x222D2, offset: 0x222D2, size: 0x8, addend: 0x0, symName: __ZN8nlohmann16json_abi_v3_11_26detail9exceptionD0Ev, symObjAddr: 0x9CCC, symBinAddr: 0x10000BAD4, symSize: 0x30 }
  - { offsetInCU: 0x222FF, offset: 0x222FF, size: 0x8, addend: 0x0, symName: __ZN8nlohmann16json_abi_v3_11_26detail9exceptionD2Ev, symObjAddr: 0x9CFC, symBinAddr: 0x10000BB04, symSize: 0x48 }
  - { offsetInCU: 0x2232C, offset: 0x2232C, size: 0x8, addend: 0x0, symName: __ZN8nlohmann16json_abi_v3_11_26detail11other_errorD2Ev, symObjAddr: 0x9D44, symBinAddr: 0x10000BB4C, symSize: 0x2C }
  - { offsetInCU: 0x22359, offset: 0x22359, size: 0x8, addend: 0x0, symName: __ZNKSt3__117__compressed_pairIPNS_11__tree_nodeINS_12__value_typeINS_12basic_stringIcNS_11char_traitsIcEENS_9allocatorIcEEEEN8nlohmann16json_abi_v3_11_210basic_jsonINS_3mapENS_6vectorES8_bxydS6_NSA_14adl_serializerENSD_IhNS6_IhEEEEvEEEEPvEENS_22__tree_node_destructorINS6_ISK_EEEEE5firstB7v160006Ev, symObjAddr: 0x9D70, symBinAddr: 0x10000BB78, symSize: 0x24 }
  - { offsetInCU: 0x2237F, offset: 0x2237F, size: 0x8, addend: 0x0, symName: __ZNKSt3__122__compressed_pair_elemIPNS_11__tree_nodeINS_12__value_typeINS_12basic_stringIcNS_11char_traitsIcEENS_9allocatorIcEEEEN8nlohmann16json_abi_v3_11_210basic_jsonINS_3mapENS_6vectorES8_bxydS6_NSA_14adl_serializerENSD_IhNS6_IhEEEEvEEEEPvEELi0ELb0EE5__getB7v160006Ev, symObjAddr: 0x9D94, symBinAddr: 0x10000BB9C, symSize: 0x14 }
  - { offsetInCU: 0x223A5, offset: 0x223A5, size: 0x8, addend: 0x0, symName: __ZNSt3__117__compressed_pairIPNS_11__tree_nodeINS_12__value_typeINS_12basic_stringIcNS_11char_traitsIcEENS_9allocatorIcEEEEN8nlohmann16json_abi_v3_11_210basic_jsonINS_3mapENS_6vectorES8_bxydS6_NSA_14adl_serializerENSD_IhNS6_IhEEEEvEEEEPvEENS_22__tree_node_destructorINS6_ISK_EEEEE6secondB7v160006Ev, symObjAddr: 0x9DA8, symBinAddr: 0x10000BBB0, symSize: 0x28 }
  - { offsetInCU: 0x223CB, offset: 0x223CB, size: 0x8, addend: 0x0, symName: __ZNSt3__122__compressed_pair_elemINS_22__tree_node_destructorINS_9allocatorINS_11__tree_nodeINS_12__value_typeINS_12basic_stringIcNS_11char_traitsIcEENS2_IcEEEEN8nlohmann16json_abi_v3_11_210basic_jsonINS_3mapENS_6vectorES9_bxydS2_NSB_14adl_serializerENSE_IhNS2_IhEEEEvEEEEPvEEEEEELi1ELb0EE5__getB7v160006Ev, symObjAddr: 0x9DD0, symBinAddr: 0x10000BBD8, symSize: 0x14 }
  - { offsetInCU: 0x223F1, offset: 0x223F1, size: 0x8, addend: 0x0, symName: __ZNSt3__116__tree_node_baseIPvE12__set_parentB7v160006EPS2_, symObjAddr: 0xA204, symBinAddr: 0x10000C00C, symSize: 0x20 }
  - { offsetInCU: 0x22426, offset: 0x22426, size: 0x8, addend: 0x0, symName: __ZNSt3__117__compressed_pairIPNS_11__tree_nodeINS_12__value_typeINS_12basic_stringIcNS_11char_traitsIcEENS_9allocatorIcEEEEN8nlohmann16json_abi_v3_11_210basic_jsonINS_3mapENS_6vectorES8_bxydS6_NSA_14adl_serializerENSD_IhNS6_IhEEEEvEEEEPvEENS_22__tree_node_destructorINS6_ISK_EEEEE5firstB7v160006Ev, symObjAddr: 0xA224, symBinAddr: 0x10000C02C, symSize: 0x24 }
  - { offsetInCU: 0x2244C, offset: 0x2244C, size: 0x8, addend: 0x0, symName: __ZNSt3__122__compressed_pair_elemIPNS_11__tree_nodeINS_12__value_typeINS_12basic_stringIcNS_11char_traitsIcEENS_9allocatorIcEEEEN8nlohmann16json_abi_v3_11_210basic_jsonINS_3mapENS_6vectorES8_bxydS6_NSA_14adl_serializerENSD_IhNS6_IhEEEEvEEEEPvEELi0ELb0EE5__getB7v160006Ev, symObjAddr: 0xA248, symBinAddr: 0x10000C050, symSize: 0x14 }
  - { offsetInCU: 0x22472, offset: 0x22472, size: 0x8, addend: 0x0, symName: __ZNSt3__110unique_ptrINS_11__tree_nodeINS_12__value_typeINS_12basic_stringIcNS_11char_traitsIcEENS_9allocatorIcEEEEN8nlohmann16json_abi_v3_11_210basic_jsonINS_3mapENS_6vectorES8_bxydS6_NSA_14adl_serializerENSD_IhNS6_IhEEEEvEEEEPvEENS_22__tree_node_destructorINS6_ISK_EEEEED2B7v160006Ev, symObjAddr: 0xA25C, symBinAddr: 0x10000C064, symSize: 0x30 }
  - { offsetInCU: 0x2249C, offset: 0x2249C, size: 0x8, addend: 0x0, symName: __ZNSt3__110unique_ptrINS_11__tree_nodeINS_12__value_typeINS_12basic_stringIcNS_11char_traitsIcEENS_9allocatorIcEEEEN8nlohmann16json_abi_v3_11_210basic_jsonINS_3mapENS_6vectorES8_bxydS6_NSA_14adl_serializerENSD_IhNS6_IhEEEEvEEEEPvEENS_22__tree_node_destructorINS6_ISK_EEEEE5resetB7v160006EPSK_, symObjAddr: 0xA28C, symBinAddr: 0x10000C094, symSize: 0x78 }
  - { offsetInCU: 0x224E0, offset: 0x224E0, size: 0x8, addend: 0x0, symName: __ZNSt3__122__tree_node_destructorINS_9allocatorINS_11__tree_nodeINS_12__value_typeINS_12basic_stringIcNS_11char_traitsIcEENS1_IcEEEEN8nlohmann16json_abi_v3_11_210basic_jsonINS_3mapENS_6vectorES8_bxydS1_NSA_14adl_serializerENSD_IhNS1_IhEEEEvEEEEPvEEEEEclB7v160006EPSK_, symObjAddr: 0xA304, symBinAddr: 0x10000C10C, symSize: 0x88 }
  - { offsetInCU: 0x22515, offset: 0x22515, size: 0x8, addend: 0x0, symName: __ZNSt3__115__tree_iteratorINS_12__value_typeINS_12basic_stringIcNS_11char_traitsIcEENS_9allocatorIcEEEEN8nlohmann16json_abi_v3_11_210basic_jsonINS_3mapENS_6vectorES7_bxydS5_NS9_14adl_serializerENSC_IhNS5_IhEEEEvEEEEPNS_11__tree_nodeISH_PvEElEC2B7v160006ESL_, symObjAddr: 0xA38C, symBinAddr: 0x10000C194, symSize: 0x20 }
  - { offsetInCU: 0x2254E, offset: 0x2254E, size: 0x8, addend: 0x0, symName: __ZNSt3__14pairINS_15__tree_iteratorINS_12__value_typeINS_12basic_stringIcNS_11char_traitsIcEENS_9allocatorIcEEEEN8nlohmann16json_abi_v3_11_210basic_jsonINS_3mapENS_6vectorES8_bxydS6_NSA_14adl_serializerENSD_IhNS6_IhEEEEvEEEEPNS_11__tree_nodeISI_PvEElEEbEC2B7v160006ISN_RbLSK_0EEEOT_OT0_, symObjAddr: 0xA3AC, symBinAddr: 0x10000C1B4, symSize: 0x38 }
  - { offsetInCU: 0x225AC, offset: 0x225AC, size: 0x8, addend: 0x0, symName: __ZNSt3__14pairINS_14__map_iteratorINS_15__tree_iteratorINS_12__value_typeINS_12basic_stringIcNS_11char_traitsIcEENS_9allocatorIcEEEEN8nlohmann16json_abi_v3_11_210basic_jsonINS_3mapENS_6vectorES9_bxydS7_NSB_14adl_serializerENSE_IhNS7_IhEEEEvEEEEPNS_11__tree_nodeISJ_PvEElEEEEbEC2B7v160006ISO_bLSL_0EEEONS0_IT_T0_EE, symObjAddr: 0xA3E4, symBinAddr: 0x10000C1EC, symSize: 0x50 }
  - { offsetInCU: 0x225FD, offset: 0x225FD, size: 0x8, addend: 0x0, symName: __ZNSt3__114pointer_traitsIPNS_4pairIKNS_12basic_stringIcNS_11char_traitsIcEENS_9allocatorIcEEEEN8nlohmann16json_abi_v3_11_210basic_jsonINS_3mapENS_6vectorES7_bxydS5_NSA_14adl_serializerENSD_IhNS5_IhEEEEvEEEEE10pointer_toB7v160006ERSI_, symObjAddr: 0xA434, symBinAddr: 0x10000C23C, symSize: 0x14 }
  - { offsetInCU: 0x22620, offset: 0x22620, size: 0x8, addend: 0x0, symName: __ZN8nlohmann16json_abi_v3_11_26detail9exception11diagnosticsINS0_10basic_jsonINSt3__13mapENS5_6vectorENS5_12basic_stringIcNS5_11char_traitsIcEENS5_9allocatorIcEEEEbxydSB_NS0_14adl_serializerENS7_IhNSB_IhEEEEvEEEESD_PKT_, symObjAddr: 0xA448, symBinAddr: 0x10000C250, symSize: 0x3C }
  - { offsetInCU: 0x2264D, offset: 0x2264D, size: 0x8, addend: 0x0, symName: __ZN8nlohmann16json_abi_v3_11_26detail10type_errorC1EiPKc, symObjAddr: 0xA484, symBinAddr: 0x10000C28C, symSize: 0x3C }
  - { offsetInCU: 0x22695, offset: 0x22695, size: 0x8, addend: 0x0, symName: __ZN8nlohmann16json_abi_v3_11_26detail10type_errorC2EiPKc, symObjAddr: 0xA4C0, symBinAddr: 0x10000C2C8, symSize: 0x54 }
  - { offsetInCU: 0x226DD, offset: 0x226DD, size: 0x8, addend: 0x0, symName: __ZN8nlohmann16json_abi_v3_11_26detail10type_errorD0Ev, symObjAddr: 0xA514, symBinAddr: 0x10000C31C, symSize: 0x30 }
  - { offsetInCU: 0x2270A, offset: 0x2270A, size: 0x8, addend: 0x0, symName: __ZN8nlohmann16json_abi_v3_11_26detail10type_errorD2Ev, symObjAddr: 0xA5FC, symBinAddr: 0x10000C404, symSize: 0x2C }
  - { offsetInCU: 0x22737, offset: 0x22737, size: 0x8, addend: 0x0, symName: __ZNSt3__112basic_stringIcNS_11char_traitsIcEENS_9allocatorIcEEEC2B7v160006IDnEEPKc, symObjAddr: 0xA628, symBinAddr: 0x10000C430, symSize: 0x60 }
  - { offsetInCU: 0x22775, offset: 0x22775, size: 0x8, addend: 0x0, symName: __ZNSt3__111char_traitsIcE6lengthEPKc, symObjAddr: 0xA688, symBinAddr: 0x10000C490, symSize: 0x34 }
  - { offsetInCU: 0x22798, offset: 0x22798, size: 0x8, addend: 0x0, symName: __ZNK8nlohmann16json_abi_v3_11_210basic_jsonINSt3__13mapENS2_6vectorENS2_12basic_stringIcNS2_11char_traitsIcEENS2_9allocatorIcEEEEbxydS8_NS0_14adl_serializerENS4_IhNS8_IhEEEEvE3getISA_SA_EEDTcldtclL_ZNS2_7declvalIRKSE_EEDTclsr3stdE9__declvalIT_ELi0EEEvEE8get_implIT0_EtlNS0_6detail12priority_tagILj4EEEEEEv, symObjAddr: 0xA6E0, symBinAddr: 0x10000C4E8, symSize: 0x2C }
  - { offsetInCU: 0x227D0, offset: 0x227D0, size: 0x8, addend: 0x0, symName: __ZNK8nlohmann16json_abi_v3_11_210basic_jsonINSt3__13mapENS2_6vectorENS2_12basic_stringIcNS2_11char_traitsIcEENS2_9allocatorIcEEEEbxydS8_NS0_14adl_serializerENS4_IhNS8_IhEEEEvE8get_implISA_Li0EEET_NS0_6detail12priority_tagILj0EEE, symObjAddr: 0xA70C, symBinAddr: 0x10000C514, symSize: 0xA8 }
  - { offsetInCU: 0x22820, offset: 0x22820, size: 0x8, addend: 0x0, symName: __ZN8nlohmann16json_abi_v3_11_214adl_serializerINSt3__112basic_stringIcNS2_11char_traitsIcEENS2_9allocatorIcEEEEvE9from_jsonIRKNS0_10basic_jsonINS2_3mapENS2_6vectorES8_bxydS6_S1_NSD_IhNS6_IhEEEEvEES8_EEDTcmclL_ZNS0_9from_jsonEEclsr3stdE7forwardIT_Efp_Efp0_Ecvv_EEOSJ_RT0_, symObjAddr: 0xA7B4, symBinAddr: 0x10000C5BC, symSize: 0x34 }
  - { offsetInCU: 0x2286B, offset: 0x2286B, size: 0x8, addend: 0x0, symName: __ZNK8nlohmann16json_abi_v3_11_26detail12from_json_fnclINS0_10basic_jsonINSt3__13mapENS5_6vectorENS5_12basic_stringIcNS5_11char_traitsIcEENS5_9allocatorIcEEEEbxydSB_NS0_14adl_serializerENS7_IhNSB_IhEEEEvEERSD_EEDTcl9from_jsonfp_clsr3stdE7forwardIT0_Efp0_EEERKT_OSJ_, symObjAddr: 0xA7E8, symBinAddr: 0x10000C5F0, symSize: 0x30 }
  - { offsetInCU: 0x228C1, offset: 0x228C1, size: 0x8, addend: 0x0, symName: __ZNK8nlohmann16json_abi_v3_11_210basic_jsonINSt3__13mapENS2_6vectorENS2_12basic_stringIcNS2_11char_traitsIcEENS2_9allocatorIcEEEEbxydS8_NS0_14adl_serializerENS4_IhNS8_IhEEEEvE9is_stringEv, symObjAddr: 0xA930, symBinAddr: 0x10000C738, symSize: 0x24 }
  - { offsetInCU: 0x228E7, offset: 0x228E7, size: 0x8, addend: 0x0, symName: __ZN8nlohmann16json_abi_v3_11_26detail10type_error6createIPKNS0_10basic_jsonINSt3__13mapENS5_6vectorENS5_12basic_stringIcNS5_11char_traitsIcEENS5_9allocatorIcEEEEbxydSB_NS0_14adl_serializerENS7_IhNSB_IhEEEEvEELi0EEES2_iRKSD_T_, symObjAddr: 0xA954, symBinAddr: 0x10000C75C, symSize: 0x130 }
  - { offsetInCU: 0x22947, offset: 0x22947, size: 0x8, addend: 0x0, symName: __ZNK8nlohmann16json_abi_v3_11_210basic_jsonINSt3__13mapENS2_6vectorENS2_12basic_stringIcNS2_11char_traitsIcEENS2_9allocatorIcEEEEbxydS8_NS0_14adl_serializerENS4_IhNS8_IhEEEEvE7get_ptrIPKSA_Li0EEEDTcldtclL_ZNS2_7declvalIRKSE_EEDTclsr3stdE9__declvalIT_ELi0EEEvEE12get_impl_ptrclsr3stdE7declvalISL_EEEEv, symObjAddr: 0xAB50, symBinAddr: 0x10000C958, symSize: 0x28 }
  - { offsetInCU: 0x2297C, offset: 0x2297C, size: 0x8, addend: 0x0, symName: __ZNK8nlohmann16json_abi_v3_11_210basic_jsonINSt3__13mapENS2_6vectorENS2_12basic_stringIcNS2_11char_traitsIcEENS2_9allocatorIcEEEEbxydS8_NS0_14adl_serializerENS4_IhNS8_IhEEEEvE12get_impl_ptrEPKSA_, symObjAddr: 0xABB4, symBinAddr: 0x10000C9BC, symSize: 0x54 }
  - { offsetInCU: 0x229AD, offset: 0x229AD, size: 0x8, addend: 0x0, symName: __ZNSt3__18functionIFvRN8nlohmann16json_abi_v3_11_210basic_jsonINS_3mapENS_6vectorENS_12basic_stringIcNS_11char_traitsIcEENS_9allocatorIcEEEEbxydS9_NS2_14adl_serializerENS5_IhNS9_IhEEEEvEEEEC1ERKSI_, symObjAddr: 0xAC08, symBinAddr: 0x10000CA10, symSize: 0x34 }
  - { offsetInCU: 0x229E8, offset: 0x229E8, size: 0x8, addend: 0x0, symName: __ZNSt3__18functionIFvRN8nlohmann16json_abi_v3_11_210basic_jsonINS_3mapENS_6vectorENS_12basic_stringIcNS_11char_traitsIcEENS_9allocatorIcEEEEbxydS9_NS2_14adl_serializerENS5_IhNS9_IhEEEEvEEEE4swapERSI_, symObjAddr: 0xAC3C, symBinAddr: 0x10000CA44, symSize: 0x2C }
  - { offsetInCU: 0x22A1F, offset: 0x22A1F, size: 0x8, addend: 0x0, symName: __ZNSt3__18functionIFvRN8nlohmann16json_abi_v3_11_210basic_jsonINS_3mapENS_6vectorENS_12basic_stringIcNS_11char_traitsIcEENS_9allocatorIcEEEEbxydS9_NS2_14adl_serializerENS5_IhNS9_IhEEEEvEEEEC2ERKSI_, symObjAddr: 0xAC68, symBinAddr: 0x10000CA70, symSize: 0x34 }
  - { offsetInCU: 0x22A5A, offset: 0x22A5A, size: 0x8, addend: 0x0, symName: __ZNSt3__110__function12__value_funcIFvRN8nlohmann16json_abi_v3_11_210basic_jsonINS_3mapENS_6vectorENS_12basic_stringIcNS_11char_traitsIcEENS_9allocatorIcEEEEbxydSA_NS3_14adl_serializerENS6_IhNSA_IhEEEEvEEEEC1B7v160006ERKSJ_, symObjAddr: 0xAC9C, symBinAddr: 0x10000CAA4, symSize: 0x34 }
  - { offsetInCU: 0x22A93, offset: 0x22A93, size: 0x8, addend: 0x0, symName: __ZNSt3__110__function12__value_funcIFvRN8nlohmann16json_abi_v3_11_210basic_jsonINS_3mapENS_6vectorENS_12basic_stringIcNS_11char_traitsIcEENS_9allocatorIcEEEEbxydSA_NS3_14adl_serializerENS6_IhNSA_IhEEEEvEEEEC2B7v160006ERKSJ_, symObjAddr: 0xACD0, symBinAddr: 0x10000CAD8, symSize: 0xC0 }
  - { offsetInCU: 0x22ACC, offset: 0x22ACC, size: 0x8, addend: 0x0, symName: __ZNSt3__110__function12__value_funcIFvRN8nlohmann16json_abi_v3_11_210basic_jsonINS_3mapENS_6vectorENS_12basic_stringIcNS_11char_traitsIcEENS_9allocatorIcEEEEbxydSA_NS3_14adl_serializerENS6_IhNSA_IhEEEEvEEEE9__as_baseEPv, symObjAddr: 0xAD90, symBinAddr: 0x10000CB98, symSize: 0x14 }
  - { offsetInCU: 0x22AF0, offset: 0x22AF0, size: 0x8, addend: 0x0, symName: __ZNSt3__110__function12__value_funcIFvRN8nlohmann16json_abi_v3_11_210basic_jsonINS_3mapENS_6vectorENS_12basic_stringIcNS_11char_traitsIcEENS_9allocatorIcEEEEbxydSA_NS3_14adl_serializerENS6_IhNSA_IhEEEEvEEEE4swapB7v160006ERSJ_, symObjAddr: 0xADA4, symBinAddr: 0x10000CBAC, symSize: 0x2A8 }
  - { offsetInCU: 0x22B49, offset: 0x22B49, size: 0x8, addend: 0x0, symName: __ZNKSt3__110__function12__value_funcIFvRN8nlohmann16json_abi_v3_11_210basic_jsonINS_3mapENS_6vectorENS_12basic_stringIcNS_11char_traitsIcEENS_9allocatorIcEEEEbxydSA_NS3_14adl_serializerENS6_IhNSA_IhEEEEvEEEEclB7v160006ESH_, symObjAddr: 0xB088, symBinAddr: 0x10000CE90, symSize: 0x58 }
  - { offsetInCU: 0x22B84, offset: 0x22B84, size: 0x8, addend: 0x0, symName: __ZNSt3__117bad_function_callC1Ev, symObjAddr: 0xB118, symBinAddr: 0x10000CF20, symSize: 0x2C }
  - { offsetInCU: 0x22BB0, offset: 0x22BB0, size: 0x8, addend: 0x0, symName: __ZNSt3__117bad_function_callD1Ev, symObjAddr: 0xB144, symBinAddr: 0x10000CF4C, symSize: 0x2C }
  - { offsetInCU: 0x22BDA, offset: 0x22BDA, size: 0x8, addend: 0x0, symName: __ZNSt3__117bad_function_callC2Ev, symObjAddr: 0xB170, symBinAddr: 0x10000CF78, symSize: 0x44 }
  - { offsetInCU: 0x22C06, offset: 0x22C06, size: 0x8, addend: 0x0, symName: __ZNSt3__117bad_function_callD0Ev, symObjAddr: 0xB1B4, symBinAddr: 0x10000CFBC, symSize: 0x30 }
  - { offsetInCU: 0x22C30, offset: 0x22C30, size: 0x8, addend: 0x0, symName: __ZNSt3__117bad_function_callD2Ev, symObjAddr: 0xB1E4, symBinAddr: 0x10000CFEC, symSize: 0x2C }
  - { offsetInCU: 0x22C77, offset: 0x22C77, size: 0x8, addend: 0x0, symName: __ZNKSt3__113basic_ostreamIcNS_11char_traitsIcEEE6sentrycvbB7v160006Ev, symObjAddr: 0xB4A8, symBinAddr: 0x10000D2B0, symSize: 0x1C }
  - { offsetInCU: 0x22C9D, offset: 0x22C9D, size: 0x8, addend: 0x0, symName: __ZNSt3__119ostreambuf_iteratorIcNS_11char_traitsIcEEEC1B7v160006ERNS_13basic_ostreamIcS2_EE, symObjAddr: 0xB704, symBinAddr: 0x10000D50C, symSize: 0x34 }
  - { offsetInCU: 0x22CD5, offset: 0x22CD5, size: 0x8, addend: 0x0, symName: __ZNKSt3__18ios_base5flagsB7v160006Ev, symObjAddr: 0xB738, symBinAddr: 0x10000D540, symSize: 0x18 }
  - { offsetInCU: 0x22CFD, offset: 0x22CFD, size: 0x8, addend: 0x0, symName: __ZNKSt3__19basic_iosIcNS_11char_traitsIcEEE4fillB7v160006Ev, symObjAddr: 0xB750, symBinAddr: 0x10000D558, symSize: 0x64 }
  - { offsetInCU: 0x22D25, offset: 0x22D25, size: 0x8, addend: 0x0, symName: __ZNKSt3__119ostreambuf_iteratorIcNS_11char_traitsIcEEE6failedB7v160006Ev, symObjAddr: 0xB7B4, symBinAddr: 0x10000D5BC, symSize: 0x24 }
  - { offsetInCU: 0x22D4B, offset: 0x22D4B, size: 0x8, addend: 0x0, symName: __ZNSt3__19basic_iosIcNS_11char_traitsIcEEE8setstateB7v160006Ej, symObjAddr: 0xB7D8, symBinAddr: 0x10000D5E0, symSize: 0x2C }
  - { offsetInCU: 0x22D80, offset: 0x22D80, size: 0x8, addend: 0x0, symName: __ZNKSt3__18ios_base5widthB7v160006Ev, symObjAddr: 0xB804, symBinAddr: 0x10000D60C, symSize: 0x18 }
  - { offsetInCU: 0x22DA8, offset: 0x22DA8, size: 0x8, addend: 0x0, symName: __ZNSt3__115basic_streambufIcNS_11char_traitsIcEEE5sputnB7v160006EPKcl, symObjAddr: 0xB81C, symBinAddr: 0x10000D624, symSize: 0x3C }
  - { offsetInCU: 0x22DEA, offset: 0x22DEA, size: 0x8, addend: 0x0, symName: __ZNSt3__112basic_stringIcNS_11char_traitsIcEENS_9allocatorIcEEEC1B7v160006Emc, symObjAddr: 0xB858, symBinAddr: 0x10000D660, symSize: 0x3C }
  - { offsetInCU: 0x22E32, offset: 0x22E32, size: 0x8, addend: 0x0, symName: __ZNSt3__112basic_stringIcNS_11char_traitsIcEENS_9allocatorIcEEE4dataB7v160006Ev, symObjAddr: 0xB894, symBinAddr: 0x10000D69C, symSize: 0x28 }
  - { offsetInCU: 0x22E58, offset: 0x22E58, size: 0x8, addend: 0x0, symName: __ZNSt3__18ios_base5widthB7v160006El, symObjAddr: 0xB8BC, symBinAddr: 0x10000D6C4, symSize: 0x2C }
  - { offsetInCU: 0x22E9E, offset: 0x22E9E, size: 0x8, addend: 0x0, symName: __ZNSt3__112basic_stringIcNS_11char_traitsIcEENS_9allocatorIcEEEC2B7v160006Emc, symObjAddr: 0xB8E8, symBinAddr: 0x10000D6F0, symSize: 0x54 }
  - { offsetInCU: 0x22EE6, offset: 0x22EE6, size: 0x8, addend: 0x0, symName: __ZNSt3__112basic_stringIcNS_11char_traitsIcEENS_9allocatorIcEEE13__get_pointerB7v160006Ev, symObjAddr: 0xB950, symBinAddr: 0x10000D758, symSize: 0x54 }
  - { offsetInCU: 0x22F0C, offset: 0x22F0C, size: 0x8, addend: 0x0, symName: __ZNSt3__112basic_stringIcNS_11char_traitsIcEENS_9allocatorIcEEE18__get_long_pointerB7v160006Ev, symObjAddr: 0xB9A4, symBinAddr: 0x10000D7AC, symSize: 0x28 }
  - { offsetInCU: 0x22F32, offset: 0x22F32, size: 0x8, addend: 0x0, symName: __ZNSt3__112basic_stringIcNS_11char_traitsIcEENS_9allocatorIcEEE19__get_short_pointerB7v160006Ev, symObjAddr: 0xB9CC, symBinAddr: 0x10000D7D4, symSize: 0x28 }
  - { offsetInCU: 0x22F58, offset: 0x22F58, size: 0x8, addend: 0x0, symName: __ZNSt3__114pointer_traitsIPcE10pointer_toB7v160006ERc, symObjAddr: 0xB9F4, symBinAddr: 0x10000D7FC, symSize: 0x14 }
  - { offsetInCU: 0x22F7B, offset: 0x22F7B, size: 0x8, addend: 0x0, symName: __ZNSt3__119ostreambuf_iteratorIcNS_11char_traitsIcEEEC2B7v160006ERNS_13basic_ostreamIcS2_EE, symObjAddr: 0xBA08, symBinAddr: 0x10000D810, symSize: 0x54 }
  - { offsetInCU: 0x22FB3, offset: 0x22FB3, size: 0x8, addend: 0x0, symName: __ZNKSt3__19basic_iosIcNS_11char_traitsIcEEE5rdbufB7v160006Ev, symObjAddr: 0xBA5C, symBinAddr: 0x10000D864, symSize: 0x24 }
  - { offsetInCU: 0x22FDB, offset: 0x22FDB, size: 0x8, addend: 0x0, symName: __ZNKSt3__18ios_base5rdbufB7v160006Ev, symObjAddr: 0xBA80, symBinAddr: 0x10000D888, symSize: 0x18 }
  - { offsetInCU: 0x23001, offset: 0x23001, size: 0x8, addend: 0x0, symName: __ZNSt3__111char_traitsIcE11eq_int_typeEii, symObjAddr: 0xBA98, symBinAddr: 0x10000D8A0, symSize: 0x28 }
  - { offsetInCU: 0x23032, offset: 0x23032, size: 0x8, addend: 0x0, symName: __ZNSt3__111char_traitsIcE3eofEv, symObjAddr: 0xBAC0, symBinAddr: 0x10000D8C8, symSize: 0x8 }
  - { offsetInCU: 0x23046, offset: 0x23046, size: 0x8, addend: 0x0, symName: __ZNKSt3__19basic_iosIcNS_11char_traitsIcEEE5widenB7v160006Ec, symObjAddr: 0xBAC8, symBinAddr: 0x10000D8D0, symSize: 0x84 }
  - { offsetInCU: 0x230BB, offset: 0x230BB, size: 0x8, addend: 0x0, symName: __ZNKSt3__15ctypeIcE5widenB7v160006Ec, symObjAddr: 0xBB78, symBinAddr: 0x10000D980, symSize: 0x38 }
  - { offsetInCU: 0x230F0, offset: 0x230F0, size: 0x8, addend: 0x0, symName: __ZNSt3__18ios_base8setstateB7v160006Ej, symObjAddr: 0xBBB0, symBinAddr: 0x10000D9B8, symSize: 0x34 }
  - { offsetInCU: 0x39, offset: 0x23526, size: 0x8, addend: 0x0, symName: __ZN9JobSystem11s_jobSystemE, symObjAddr: 0x1D1440, symBinAddr: 0x10009C008, symSize: 0x0 }
  - { offsetInCU: 0x13D66, offset: 0x37253, size: 0x8, addend: 0x0, symName: __ZNSt3__1L19piecewise_constructE, symObjAddr: 0x29F9E, symBinAddr: 0x100092234, symSize: 0x0 }
  - { offsetInCU: 0x13D8B, offset: 0x37278, size: 0x8, addend: 0x0, symName: __ZNSt3__17advanceB7v160006INS_21__tree_const_iteratorINS_12__value_typeINS_12basic_stringIcNS_11char_traitsIcEENS_9allocatorIcEEEEN8nlohmann16json_abi_v3_11_210basic_jsonINS_3mapENS_6vectorES8_bxydS6_NSA_14adl_serializerENSD_IhNS6_IhEEEEvEEEEPNS_11__tree_nodeISI_PvEElEEllvEEvRT_T0_, symObjAddr: 0x6D50, symBinAddr: 0x100013104, symSize: 0x50 }
  - { offsetInCU: 0x155C9, offset: 0x38AB6, size: 0x8, addend: 0x0, symName: __ZNSt3__17advanceB7v160006INS_16__deque_iteratorIP3JobPS3_RS3_PS4_lLl512EEEllvEEvRT_T0_, symObjAddr: 0x1DC70, symBinAddr: 0x100020514, symSize: 0x50 }
  - { offsetInCU: 0x169C5, offset: 0x39EB2, size: 0x8, addend: 0x0, symName: __ZNSt3__1neB7v160006IPP15JobWorkerThreadEEbRKNS_11__wrap_iterIT_EES8_, symObjAddr: 0xC58, symBinAddr: 0x10000E604, symSize: 0x34 }
  - { offsetInCU: 0x16A08, offset: 0x39EF5, size: 0x8, addend: 0x0, symName: __ZNSt3__1neB7v160006ERKNS_16__deque_iteratorIP3JobPS2_RS2_PS3_lLl512EEES8_, symObjAddr: 0x1454, symBinAddr: 0x10000EE00, symSize: 0x34 }
  - { offsetInCU: 0x16A45, offset: 0x39F32, size: 0x8, addend: 0x0, symName: __ZNSt3__1lsB7v160006IcNS_11char_traitsIcEENS_9allocatorIcEEEERNS_13basic_ostreamIT_T0_EES9_RKNS_12basic_stringIS6_S7_T1_EE, symObjAddr: 0x32F4, symBinAddr: 0x100010B04, symSize: 0x4C }
  - { offsetInCU: 0x16A9D, offset: 0x39F8A, size: 0x8, addend: 0x0, symName: __ZNSt3__1neB7v160006ERKNS_19__hash_map_iteratorINS_15__hash_iteratorIPNS_11__hash_nodeINS_17__hash_value_typeINS_12basic_stringIcNS_11char_traitsIcEENS_9allocatorIcEEEENS_8functionIFvRN8nlohmann16json_abi_v3_11_210basic_jsonINS_3mapENS_6vectorES9_bxydS7_NSC_14adl_serializerENSF_IhNS7_IhEEEEvEEEEEEEPvEEEEEESU_, symObjAddr: 0x35C0, symBinAddr: 0x100010D4C, symSize: 0x30 }
  - { offsetInCU: 0x16ADA, offset: 0x39FC7, size: 0x8, addend: 0x0, symName: __ZNSt3__1eqB7v160006INS_9allocatorIcEEEEbRKNS_12basic_stringIcNS_11char_traitsIcEET_EES9_, symObjAddr: 0x39D0, symBinAddr: 0x10001115C, symSize: 0x148 }
  - { offsetInCU: 0x16B4D, offset: 0x3A03A, size: 0x8, addend: 0x0, symName: __ZNSt3__1eqB7v160006IPP15JobWorkerThreadEEbRKNS_11__wrap_iterIT_EES8_, symObjAddr: 0x3E50, symBinAddr: 0x1000115DC, symSize: 0x48 }
  - { offsetInCU: 0x17204, offset: 0x3A6F1, size: 0x8, addend: 0x0, symName: __ZNSt3__1neB7v160006INS_3mapINS_12basic_stringIcNS_11char_traitsIcEENS_9allocatorIcEEEEN8nlohmann16json_abi_v3_11_210basic_jsonIS1_NS_6vectorES7_bxydS5_NS9_14adl_serializerENSB_IhNS5_IhEEEEvEENS_4lessIvEENS5_INS_4pairIKS7_SF_EEEEEEZNSF_6createISM_JRKSM_EEEPT_DpOT0_EUlPSM_E_EEbRKNS_10unique_ptrISQ_T0_EEDn, symObjAddr: 0x4E44, symBinAddr: 0x100012208, symSize: 0x2C }
  - { offsetInCU: 0x1724F, offset: 0x3A73C, size: 0x8, addend: 0x0, symName: __ZNSt3__1neB7v160006ERKNS_20__map_const_iteratorINS_21__tree_const_iteratorINS_12__value_typeINS_12basic_stringIcNS_11char_traitsIcEENS_9allocatorIcEEEEN8nlohmann16json_abi_v3_11_210basic_jsonINS_3mapENS_6vectorES8_bxydS6_NSA_14adl_serializerENSD_IhNS6_IhEEEEvEEEEPNS_11__tree_nodeISI_PvEElEEEESQ_, symObjAddr: 0x576C, symBinAddr: 0x100012808, symSize: 0x30 }
  - { offsetInCU: 0x1728C, offset: 0x3A779, size: 0x8, addend: 0x0, symName: __ZNSt3__1neB7v160006ERKNS_21__tree_const_iteratorINS_12__value_typeINS_12basic_stringIcNS_11char_traitsIcEENS_9allocatorIcEEEEN8nlohmann16json_abi_v3_11_210basic_jsonINS_3mapENS_6vectorES7_bxydS5_NS9_14adl_serializerENSC_IhNS5_IhEEEEvEEEEPNS_11__tree_nodeISH_PvEElEESO_, symObjAddr: 0x5874, symBinAddr: 0x100012910, symSize: 0x34 }
  - { offsetInCU: 0x172C9, offset: 0x3A7B6, size: 0x8, addend: 0x0, symName: __ZNSt3__1eqB7v160006ERKNS_21__tree_const_iteratorINS_12__value_typeINS_12basic_stringIcNS_11char_traitsIcEENS_9allocatorIcEEEEN8nlohmann16json_abi_v3_11_210basic_jsonINS_3mapENS_6vectorES7_bxydS5_NS9_14adl_serializerENSC_IhNS5_IhEEEEvEEEEPNS_11__tree_nodeISH_PvEElEESO_, symObjAddr: 0x58A8, symBinAddr: 0x100012944, symSize: 0x30 }
  - { offsetInCU: 0x1732B, offset: 0x3A818, size: 0x8, addend: 0x0, symName: __ZNSt3__14nextB7v160006INS_21__tree_const_iteratorINS_12__value_typeINS_12basic_stringIcNS_11char_traitsIcEENS_9allocatorIcEEEEN8nlohmann16json_abi_v3_11_210basic_jsonINS_3mapENS_6vectorES8_bxydS6_NSA_14adl_serializerENSD_IhNS6_IhEEEEvEEEEPNS_11__tree_nodeISI_PvEElEEEENS_9enable_ifIXsr25__is_cpp17_input_iteratorIT_EE5valueESP_E4typeESP_NS_15iterator_traitsISP_E15difference_typeE, symObjAddr: 0x63B0, symBinAddr: 0x100012F98, symSize: 0x50 }
  - { offsetInCU: 0x1736E, offset: 0x3A85B, size: 0x8, addend: 0x0, symName: __ZNSt3__116__tree_prev_iterB7v160006IPNS_16__tree_node_baseIPvEEPNS_15__tree_end_nodeIS4_EEEET_T0_, symObjAddr: 0x6B78, symBinAddr: 0x100013020, symSize: 0xA4 }
  - { offsetInCU: 0x173BB, offset: 0x3A8A8, size: 0x8, addend: 0x0, symName: __ZNSt3__110__tree_maxB7v160006IPNS_16__tree_node_baseIPvEEEET_S5_, symObjAddr: 0x6C1C, symBinAddr: 0x1000130C4, symSize: 0x40 }
  - { offsetInCU: 0x173F1, offset: 0x3A8DE, size: 0x8, addend: 0x0, symName: __ZNSt3__121__convert_to_integralB7v160006El, symObjAddr: 0x6DA0, symBinAddr: 0x100013154, symSize: 0x14 }
  - { offsetInCU: 0x1741E, offset: 0x3A90B, size: 0x8, addend: 0x0, symName: __ZNSt3__19__advanceB7v160006INS_21__tree_const_iteratorINS_12__value_typeINS_12basic_stringIcNS_11char_traitsIcEENS_9allocatorIcEEEEN8nlohmann16json_abi_v3_11_210basic_jsonINS_3mapENS_6vectorES8_bxydS6_NSA_14adl_serializerENSD_IhNS6_IhEEEEvEEEEPNS_11__tree_nodeISI_PvEElEEEEvRT_NS_15iterator_traitsISO_E15difference_typeENS_26bidirectional_iterator_tagE, symObjAddr: 0x6DB4, symBinAddr: 0x100013168, symSize: 0xA4 }
  - { offsetInCU: 0x17B7A, offset: 0x3B067, size: 0x8, addend: 0x0, symName: __ZNSt3__1neB7v160006INS_6vectorIN8nlohmann16json_abi_v3_11_210basic_jsonINS_3mapES1_NS_12basic_stringIcNS_11char_traitsIcEENS_9allocatorIcEEEEbxydS9_NS3_14adl_serializerENS1_IhNS9_IhEEEEvEENS9_ISF_EEEEZNSF_6createISH_JRKSH_EEEPT_DpOT0_EUlPSH_E_EEbRKNS_10unique_ptrISL_T0_EEDn, symObjAddr: 0x839C, symBinAddr: 0x1000137E0, symSize: 0x2C }
  - { offsetInCU: 0x17BC5, offset: 0x3B0B2, size: 0x8, addend: 0x0, symName: __ZNSt3__122__make_exception_guardB7v160006INS_6vectorIN8nlohmann16json_abi_v3_11_210basic_jsonINS_3mapES1_NS_12basic_stringIcNS_11char_traitsIcEENS_9allocatorIcEEEEbxydS9_NS3_14adl_serializerENS1_IhNS9_IhEEEEvEENS9_ISF_EEE16__destroy_vectorEEENS_28__exception_guard_exceptionsIT_EESK_, symObjAddr: 0x8810, symBinAddr: 0x100013B30, symSize: 0x40 }
  - { offsetInCU: 0x17BFA, offset: 0x3B0E7, size: 0x8, addend: 0x0, symName: __ZNSt3__130__uninitialized_allocator_copyB7v160006INS_9allocatorIN8nlohmann16json_abi_v3_11_210basic_jsonINS_3mapENS_6vectorENS_12basic_stringIcNS_11char_traitsIcEENS1_IcEEEEbxydS1_NS3_14adl_serializerENS6_IhNS1_IhEEEEvEEEEPSF_SH_SH_EET2_RT_T0_T1_SI_, symObjAddr: 0x9054, symBinAddr: 0x100013DA4, symSize: 0xF4 }
  - { offsetInCU: 0x17C98, offset: 0x3B185, size: 0x8, addend: 0x0, symName: __ZNSt3__122__make_exception_guardB7v160006INS_29_AllocatorDestroyRangeReverseINS_9allocatorIN8nlohmann16json_abi_v3_11_210basic_jsonINS_3mapENS_6vectorENS_12basic_stringIcNS_11char_traitsIcEENS2_IcEEEEbxydS2_NS4_14adl_serializerENS7_IhNS2_IhEEEEvEEEEPSG_EEEENS_28__exception_guard_exceptionsIT_EESL_, symObjAddr: 0x91B8, symBinAddr: 0x100013E98, symSize: 0x4C }
  - { offsetInCU: 0x17CCF, offset: 0x3B1BC, size: 0x8, addend: 0x0, symName: __ZNSt3__119__allocator_destroyB7v160006INS_9allocatorIN8nlohmann16json_abi_v3_11_210basic_jsonINS_3mapENS_6vectorENS_12basic_stringIcNS_11char_traitsIcEENS1_IcEEEEbxydS1_NS3_14adl_serializerENS6_IhNS1_IhEEEEvEEEENS_16reverse_iteratorIPSF_EESJ_EEvRT_T0_T1_, symObjAddr: 0x9448, symBinAddr: 0x100014128, symSize: 0x70 }
  - { offsetInCU: 0x1807C, offset: 0x3B569, size: 0x8, addend: 0x0, symName: __ZNSt3__1neB7v160006INS_12basic_stringIcNS_11char_traitsIcEENS_9allocatorIcEEEEZN8nlohmann16json_abi_v3_11_210basic_jsonINS_3mapENS_6vectorES6_bxydS4_NS8_14adl_serializerENSB_IhNS4_IhEEEEvE6createIS6_JRKS6_EEEPT_DpOT0_EUlPS6_E_EEbRKNS_10unique_ptrISJ_T0_EEDn, symObjAddr: 0x9DE8, symBinAddr: 0x10001454C, symSize: 0x2C }
  - { offsetInCU: 0x1873B, offset: 0x3BC28, size: 0x8, addend: 0x0, symName: __ZNSt3__1neB7v160006IN8nlohmann16json_abi_v3_11_227byte_container_with_subtypeINS_6vectorIhNS_9allocatorIhEEEEEEZNS2_10basic_jsonINS_3mapES4_NS_12basic_stringIcNS_11char_traitsIcEENS5_IcEEEEbxydS5_NS2_14adl_serializerES7_vE6createIS8_JRKS8_EEEPT_DpOT0_EUlPS8_E_EEbRKNS_10unique_ptrISL_T0_EEDn, symObjAddr: 0xA588, symBinAddr: 0x100014AF8, symSize: 0x2C }
  - { offsetInCU: 0x18786, offset: 0x3BC73, size: 0x8, addend: 0x0, symName: __ZNSt3__122__make_exception_guardB7v160006INS_6vectorIhNS_9allocatorIhEEE16__destroy_vectorEEENS_28__exception_guard_exceptionsIT_EES7_, symObjAddr: 0xAA44, symBinAddr: 0x100014EB8, symSize: 0x40 }
  - { offsetInCU: 0x187BB, offset: 0x3BCA8, size: 0x8, addend: 0x0, symName: __ZNSt3__119__allocate_at_leastB7v160006INS_9allocatorIhEEEENS_19__allocation_resultINS_16allocator_traitsIT_E7pointerEEERS5_m, symObjAddr: 0xAE0C, symBinAddr: 0x1000151E0, symSize: 0x40 }
  - { offsetInCU: 0x187FE, offset: 0x3BCEB, size: 0x8, addend: 0x0, symName: __ZNSt3__130__uninitialized_allocator_copyB7v160006INS_9allocatorIhEEPhS3_S3_EET2_RT_T0_T1_S4_, symObjAddr: 0xB178, symBinAddr: 0x1000153F8, symSize: 0xF4 }
  - { offsetInCU: 0x1889C, offset: 0x3BD89, size: 0x8, addend: 0x0, symName: __ZNSt3__122__make_exception_guardB7v160006INS_29_AllocatorDestroyRangeReverseINS_9allocatorIhEEPhEEEENS_28__exception_guard_exceptionsIT_EES7_, symObjAddr: 0xB2DC, symBinAddr: 0x10001555C, symSize: 0x4C }
  - { offsetInCU: 0x188D3, offset: 0x3BDC0, size: 0x8, addend: 0x0, symName: __ZNSt3__119__allocator_destroyB7v160006INS_9allocatorIhEENS_16reverse_iteratorIPhEES5_EEvRT_T0_T1_, symObjAddr: 0xB564, symBinAddr: 0x1000157E4, symSize: 0x70 }
  - { offsetInCU: 0x18935, offset: 0x3BE22, size: 0x8, addend: 0x0, symName: __ZNSt3__1neB7v160006IPhS1_EEbRKNS_16reverse_iteratorIT_EERKNS2_IT0_EE, symObjAddr: 0xB608, symBinAddr: 0x100015888, symSize: 0x48 }
  - { offsetInCU: 0x18981, offset: 0x3BE6E, size: 0x8, addend: 0x0, symName: __ZNSt3__112__to_addressB7v160006INS_16reverse_iteratorIPhEEvEENS_5decayIDTclsr19__to_address_helperIT_EE6__callclsr3stdE7declvalIRKS5_EEEEE4typeES7_, symObjAddr: 0xB67C, symBinAddr: 0x1000158D0, symSize: 0x24 }
  - { offsetInCU: 0x18CA9, offset: 0x3C196, size: 0x8, addend: 0x0, symName: __ZNSt3__118__debug_db_erase_cB7v160006INS_6vectorINS_12basic_stringIcNS_11char_traitsIcEENS_9allocatorIcEEEENS5_IS7_EEEEEEvPT_, symObjAddr: 0xFA4C, symBinAddr: 0x100016294, symSize: 0x10 }
  - { offsetInCU: 0x18CD9, offset: 0x3C1C6, size: 0x8, addend: 0x0, symName: __ZNSt3__112__to_addressB7v160006INS_12basic_stringIcNS_11char_traitsIcEENS_9allocatorIcEEEEEEPT_S8_, symObjAddr: 0xFB34, symBinAddr: 0x10001637C, symSize: 0x14 }
  - { offsetInCU: 0x18D33, offset: 0x3C220, size: 0x8, addend: 0x0, symName: __ZNSt3__122__make_exception_guardB7v160006INS_6vectorINS_12basic_stringIcNS_11char_traitsIcEENS_9allocatorIcEEEENS5_IS7_EEE16__destroy_vectorEEENS_28__exception_guard_exceptionsIT_EESC_, symObjAddr: 0x133D4, symBinAddr: 0x100016650, symSize: 0x40 }
  - { offsetInCU: 0x18D69, offset: 0x3C256, size: 0x8, addend: 0x0, symName: __ZNSt3__119__debug_db_insert_cB7v160006INS_6vectorINS_12basic_stringIcNS_11char_traitsIcEENS_9allocatorIcEEEENS5_IS7_EEEEEEvPT_, symObjAddr: 0x13414, symBinAddr: 0x100016690, symSize: 0x10 }
  - { offsetInCU: 0x18D99, offset: 0x3C286, size: 0x8, addend: 0x0, symName: __ZNSt3__119__allocate_at_leastB7v160006INS_9allocatorINS_12basic_stringIcNS_11char_traitsIcEENS1_IcEEEEEEEENS_19__allocation_resultINS_16allocator_traitsIT_E7pointerEEERSA_m, symObjAddr: 0x13760, symBinAddr: 0x1000169DC, symSize: 0x40 }
  - { offsetInCU: 0x18DDC, offset: 0x3C2C9, size: 0x8, addend: 0x0, symName: __ZNSt3__130__uninitialized_allocator_copyB7v160006INS_9allocatorINS_12basic_stringIcNS_11char_traitsIcEENS1_IcEEEEEEPKS6_S9_PS6_EET2_RT_T0_T1_SB_, symObjAddr: 0x13950, symBinAddr: 0x100016BCC, symSize: 0xF4 }
  - { offsetInCU: 0x18E7A, offset: 0x3C367, size: 0x8, addend: 0x0, symName: __ZNSt3__122__make_exception_guardB7v160006INS_29_AllocatorDestroyRangeReverseINS_9allocatorINS_12basic_stringIcNS_11char_traitsIcEENS2_IcEEEEEEPS7_EEEENS_28__exception_guard_exceptionsIT_EESC_, symObjAddr: 0x13ABC, symBinAddr: 0x100016D38, symSize: 0x4C }
  - { offsetInCU: 0x18EB1, offset: 0x3C39E, size: 0x8, addend: 0x0, symName: __ZNSt3__119__allocator_destroyB7v160006INS_9allocatorINS_12basic_stringIcNS_11char_traitsIcEENS1_IcEEEEEENS_16reverse_iteratorIPS6_EESA_EEvRT_T0_T1_, symObjAddr: 0x13CE8, symBinAddr: 0x100016F64, symSize: 0x70 }
  - { offsetInCU: 0x18F13, offset: 0x3C400, size: 0x8, addend: 0x0, symName: __ZNSt3__1neB7v160006IPNS_12basic_stringIcNS_11char_traitsIcEENS_9allocatorIcEEEES7_EEbRKNS_16reverse_iteratorIT_EERKNS8_IT0_EE, symObjAddr: 0x13D8C, symBinAddr: 0x100017008, symSize: 0x48 }
  - { offsetInCU: 0x18F5F, offset: 0x3C44C, size: 0x8, addend: 0x0, symName: __ZNSt3__112__to_addressB7v160006INS_16reverse_iteratorIPNS_12basic_stringIcNS_11char_traitsIcEENS_9allocatorIcEEEEEEvEENS_5decayIDTclsr19__to_address_helperIT_EE6__callclsr3stdE7declvalIRKSB_EEEEE4typeESD_, symObjAddr: 0x13DD4, symBinAddr: 0x100017050, symSize: 0x24 }
  - { offsetInCU: 0x18FBF, offset: 0x3C4AC, size: 0x8, addend: 0x0, symName: __ZNSt3__119__debug_db_insert_cB7v160006INS_6vectorIP15JobWorkerThreadNS_9allocatorIS3_EEEEEEvPT_, symObjAddr: 0x13FE0, symBinAddr: 0x10001725C, symSize: 0x10 }
  - { offsetInCU: 0x18FF0, offset: 0x3C4DD, size: 0x8, addend: 0x0, symName: __ZNSt3__119__debug_db_insert_cB7v160006INS_6vectorI15JobHistoryEntryNS_9allocatorIS2_EEEEEEvPT_, symObjAddr: 0x14404, symBinAddr: 0x100017680, symSize: 0x10 }
  - { offsetInCU: 0x19021, offset: 0x3C50E, size: 0x8, addend: 0x0, symName: __ZNSt3__119__debug_db_insert_cB7v160006INS_13unordered_mapINS_12basic_stringIcNS_11char_traitsIcEENS_9allocatorIcEEEENS_8functionIFvRN8nlohmann16json_abi_v3_11_210basic_jsonINS_3mapENS_6vectorES7_bxydS5_NSA_14adl_serializerENSD_IhNS5_IhEEEEvEEEEENS_4hashIS7_EENS_8equal_toIS7_EENS5_INS_4pairIKS7_SK_EEEEEEEEvPT_, symObjAddr: 0x14544, symBinAddr: 0x1000177C0, symSize: 0x10 }
  - { offsetInCU: 0x19052, offset: 0x3C53F, size: 0x8, addend: 0x0, symName: __ZNSt3__118__debug_db_erase_cB7v160006INS_6vectorIP15JobWorkerThreadNS_9allocatorIS3_EEEEEEvPT_, symObjAddr: 0x14D10, symBinAddr: 0x100017F8C, symSize: 0x10 }
  - { offsetInCU: 0x19082, offset: 0x3C56F, size: 0x8, addend: 0x0, symName: __ZNSt3__112__to_addressB7v160006IP15JobWorkerThreadEEPT_S4_, symObjAddr: 0x14E2C, symBinAddr: 0x1000180A8, symSize: 0x14 }
  - { offsetInCU: 0x190B8, offset: 0x3C5A5, size: 0x8, addend: 0x0, symName: __ZNSt3__112__to_addressB7v160006IPP3JobEEPT_S5_, symObjAddr: 0x1569C, symBinAddr: 0x100018918, symSize: 0x14 }
  - { offsetInCU: 0x190EF, offset: 0x3C5DC, size: 0x8, addend: 0x0, symName: __ZNSt3__118__debug_db_erase_cB7v160006INS_6vectorI15JobHistoryEntryNS_9allocatorIS2_EEEEEEvPT_, symObjAddr: 0x15988, symBinAddr: 0x100018C04, symSize: 0x10 }
  - { offsetInCU: 0x1911F, offset: 0x3C60C, size: 0x8, addend: 0x0, symName: __ZNSt3__112__to_addressB7v160006I15JobHistoryEntryEEPT_S3_, symObjAddr: 0x15AA4, symBinAddr: 0x100018D20, symSize: 0x14 }
  - { offsetInCU: 0x19156, offset: 0x3C643, size: 0x8, addend: 0x0, symName: __ZNSt3__118__debug_db_erase_cB7v160006INS_12__hash_tableINS_17__hash_value_typeINS_12basic_stringIcNS_11char_traitsIcEENS_9allocatorIcEEEENS_8functionIFvRN8nlohmann16json_abi_v3_11_210basic_jsonINS_3mapENS_6vectorES8_bxydS6_NSB_14adl_serializerENSE_IhNS6_IhEEEEvEEEEEEENS_22__unordered_map_hasherIS8_SM_NS_4hashIS8_EENS_8equal_toIS8_EELb1EEENS_21__unordered_map_equalIS8_SM_SR_SP_Lb1EEENS6_ISM_EEEEEEvPT_, symObjAddr: 0x15DD8, symBinAddr: 0x100019054, symSize: 0x10 }
  - { offsetInCU: 0x191B9, offset: 0x3C6A6, size: 0x8, addend: 0x0, symName: __ZNSt3__17launderB7v160006INS_4pairIKNS_12basic_stringIcNS_11char_traitsIcEENS_9allocatorIcEEEENS_8functionIFvRN8nlohmann16json_abi_v3_11_210basic_jsonINS_3mapENS_6vectorES7_bxydS5_NSB_14adl_serializerENSE_IhNS5_IhEEEEvEEEEEEEEEPT_SO_, symObjAddr: 0x160C8, symBinAddr: 0x100019230, symSize: 0x24 }
  - { offsetInCU: 0x191F0, offset: 0x3C6DD, size: 0x8, addend: 0x0, symName: __ZNSt3__19__launderB7v160006INS_4pairIKNS_12basic_stringIcNS_11char_traitsIcEENS_9allocatorIcEEEENS_8functionIFvRN8nlohmann16json_abi_v3_11_210basic_jsonINS_3mapENS_6vectorES7_bxydS5_NSB_14adl_serializerENSE_IhNS5_IhEEEEvEEEEEEEEEPT_SO_, symObjAddr: 0x160EC, symBinAddr: 0x100019254, symSize: 0x14 }
  - { offsetInCU: 0x19228, offset: 0x3C715, size: 0x8, addend: 0x0, symName: __ZNSt3__119__allocate_at_leastB7v160006INS_9allocatorI15JobHistoryEntryEEEENS_19__allocation_resultINS_16allocator_traitsIT_E7pointerEEERS6_m, symObjAddr: 0x16784, symBinAddr: 0x1000198EC, symSize: 0x40 }
  - { offsetInCU: 0x1926B, offset: 0x3C758, size: 0x8, addend: 0x0, symName: __ZNSt3__142__uninitialized_allocator_move_if_noexceptB7v160006INS_9allocatorI15JobHistoryEntryEENS_16reverse_iteratorIPS2_EES6_S2_vEET1_RT_T0_SA_S7_, symObjAddr: 0x1694C, symBinAddr: 0x100019AB4, symSize: 0x78 }
  - { offsetInCU: 0x192E8, offset: 0x3C7D5, size: 0x8, addend: 0x0, symName: __ZNSt3__14swapB7v160006IP15JobHistoryEntryEENS_9enable_ifIXaasr21is_move_constructibleIT_EE5valuesr18is_move_assignableIS4_EE5valueEvE4typeERS4_S7_, symObjAddr: 0x16A10, symBinAddr: 0x100019B78, symSize: 0x3C }
  - { offsetInCU: 0x1933C, offset: 0x3C829, size: 0x8, addend: 0x0, symName: __ZNSt3__125__debug_db_invalidate_allB7v160006INS_6vectorI15JobHistoryEntryNS_9allocatorIS2_EEEEEEvPT_, symObjAddr: 0x16B20, symBinAddr: 0x100019C88, symSize: 0x10 }
  - { offsetInCU: 0x1936C, offset: 0x3C859, size: 0x8, addend: 0x0, symName: __ZNSt3__14moveB7v160006INS_16reverse_iteratorIP15JobHistoryEntryEES4_EET0_T_S6_S5_, symObjAddr: 0x16B30, symBinAddr: 0x100019C98, symSize: 0x78 }
  - { offsetInCU: 0x193C6, offset: 0x3C8B3, size: 0x8, addend: 0x0, symName: __ZNSt3__16__moveB7v160006INS_17_ClassicAlgPolicyENS_16reverse_iteratorIP15JobHistoryEntryEES5_S5_EENS_4pairIT0_T2_EES7_T1_S8_, symObjAddr: 0x16BA8, symBinAddr: 0x100019D10, symSize: 0x64 }
  - { offsetInCU: 0x19432, offset: 0x3C91F, size: 0x8, addend: 0x0, symName: __ZNSt3__123__dispatch_copy_or_moveB7v160006INS_17_ClassicAlgPolicyENS_11__move_loopIS1_EENS_14__move_trivialENS_16reverse_iteratorIP15JobHistoryEntryEES8_S8_EENS_4pairIT2_T4_EESA_T3_SB_, symObjAddr: 0x16C0C, symBinAddr: 0x100019D74, symSize: 0x64 }
  - { offsetInCU: 0x194B0, offset: 0x3C99D, size: 0x8, addend: 0x0, symName: __ZNSt3__121__unwrap_and_dispatchB7v160006INS_10__overloadINS_11__move_loopINS_17_ClassicAlgPolicyEEENS_14__move_trivialEEENS_16reverse_iteratorIP15JobHistoryEntryEESA_SA_Li0EEENS_4pairIT0_T2_EESC_T1_SD_, symObjAddr: 0x16C70, symBinAddr: 0x100019DD8, symSize: 0x12C }
  - { offsetInCU: 0x19542, offset: 0x3CA2F, size: 0x8, addend: 0x0, symName: __ZNSt3__114__unwrap_rangeB7v160006INS_16reverse_iteratorIP15JobHistoryEntryEES4_EENS_4pairIT0_S6_EET_S8_, symObjAddr: 0x16D9C, symBinAddr: 0x100019F04, symSize: 0x84 }
  - { offsetInCU: 0x19662, offset: 0x3CB4F, size: 0x8, addend: 0x0, symName: __ZNSt3__113__unwrap_iterB7v160006INS_16reverse_iteratorIP15JobHistoryEntryEENS_18__unwrap_iter_implIS4_Lb0EEELi0EEEDTclsrT0_8__unwrapclsr3stdE7declvalIT_EEEES8_, symObjAddr: 0x16EC0, symBinAddr: 0x10001A028, symSize: 0x44 }
  - { offsetInCU: 0x196A6, offset: 0x3CB93, size: 0x8, addend: 0x0, symName: __ZNSt3__19make_pairB7v160006INS_16reverse_iteratorIP15JobHistoryEntryEES4_EENS_4pairINS_18__unwrap_ref_decayIT_E4typeENS6_IT0_E4typeEEEOS7_OSA_, symObjAddr: 0x16F04, symBinAddr: 0x10001A06C, symSize: 0x38 }
  - { offsetInCU: 0x196F5, offset: 0x3CBE2, size: 0x8, addend: 0x0, symName: __ZNSt3__114__rewrap_rangeB7v160006INS_16reverse_iteratorIP15JobHistoryEntryEES4_EET_S5_T0_, symObjAddr: 0x16F3C, symBinAddr: 0x10001A0A4, symSize: 0x5C }
  - { offsetInCU: 0x19741, offset: 0x3CC2E, size: 0x8, addend: 0x0, symName: __ZNSt3__113__rewrap_iterB7v160006INS_16reverse_iteratorIP15JobHistoryEntryEES4_NS_18__unwrap_iter_implIS4_Lb0EEEEET_S7_T0_, symObjAddr: 0x16F98, symBinAddr: 0x10001A100, symSize: 0x74 }
  - { offsetInCU: 0x19796, offset: 0x3CC83, size: 0x8, addend: 0x0, symName: __ZNSt3__1neB7v160006IP15JobHistoryEntryS2_EEbRKNS_16reverse_iteratorIT_EERKNS3_IT0_EE, symObjAddr: 0x1700C, symBinAddr: 0x10001A174, symSize: 0x48 }
  - { offsetInCU: 0x1984E, offset: 0x3CD3B, size: 0x8, addend: 0x0, symName: __ZNSt3__119__allocate_at_leastB7v160006INS_9allocatorIP15JobWorkerThreadEEEENS_19__allocation_resultINS_16allocator_traitsIT_E7pointerEEERS7_m, symObjAddr: 0x17C38, symBinAddr: 0x10001ADA0, symSize: 0x40 }
  - { offsetInCU: 0x19891, offset: 0x3CD7E, size: 0x8, addend: 0x0, symName: __ZNSt3__142__uninitialized_allocator_move_if_noexceptB7v160006INS_9allocatorIP15JobWorkerThreadEENS_16reverse_iteratorIPS3_EES7_S3_vEET1_RT_T0_SB_S8_, symObjAddr: 0x17DEC, symBinAddr: 0x10001AF54, symSize: 0x78 }
  - { offsetInCU: 0x1990E, offset: 0x3CDFB, size: 0x8, addend: 0x0, symName: __ZNSt3__14swapB7v160006IPP15JobWorkerThreadEENS_9enable_ifIXaasr21is_move_constructibleIT_EE5valuesr18is_move_assignableIS5_EE5valueEvE4typeERS5_S8_, symObjAddr: 0x17EB0, symBinAddr: 0x10001B018, symSize: 0x3C }
  - { offsetInCU: 0x19962, offset: 0x3CE4F, size: 0x8, addend: 0x0, symName: __ZNSt3__125__debug_db_invalidate_allB7v160006INS_6vectorIP15JobWorkerThreadNS_9allocatorIS3_EEEEEEvPT_, symObjAddr: 0x17F98, symBinAddr: 0x10001B100, symSize: 0x10 }
  - { offsetInCU: 0x19992, offset: 0x3CE7F, size: 0x8, addend: 0x0, symName: __ZNSt3__14moveB7v160006INS_16reverse_iteratorIPP15JobWorkerThreadEES5_EET0_T_S7_S6_, symObjAddr: 0x17FA8, symBinAddr: 0x10001B110, symSize: 0x78 }
  - { offsetInCU: 0x199EC, offset: 0x3CED9, size: 0x8, addend: 0x0, symName: __ZNSt3__16__moveB7v160006INS_17_ClassicAlgPolicyENS_16reverse_iteratorIPP15JobWorkerThreadEES6_S6_EENS_4pairIT0_T2_EES8_T1_S9_, symObjAddr: 0x18020, symBinAddr: 0x10001B188, symSize: 0x64 }
  - { offsetInCU: 0x19A58, offset: 0x3CF45, size: 0x8, addend: 0x0, symName: __ZNSt3__123__dispatch_copy_or_moveB7v160006INS_17_ClassicAlgPolicyENS_11__move_loopIS1_EENS_14__move_trivialENS_16reverse_iteratorIPP15JobWorkerThreadEES9_S9_EENS_4pairIT2_T4_EESB_T3_SC_, symObjAddr: 0x18084, symBinAddr: 0x10001B1EC, symSize: 0x64 }
  - { offsetInCU: 0x19AD6, offset: 0x3CFC3, size: 0x8, addend: 0x0, symName: __ZNSt3__121__unwrap_and_dispatchB7v160006INS_10__overloadINS_11__move_loopINS_17_ClassicAlgPolicyEEENS_14__move_trivialEEENS_16reverse_iteratorIPP15JobWorkerThreadEESB_SB_Li0EEENS_4pairIT0_T2_EESD_T1_SE_, symObjAddr: 0x180E8, symBinAddr: 0x10001B250, symSize: 0x12C }
  - { offsetInCU: 0x19B68, offset: 0x3D055, size: 0x8, addend: 0x0, symName: __ZNSt3__114__unwrap_rangeB7v160006INS_16reverse_iteratorIPP15JobWorkerThreadEES5_EENS_4pairIT0_S7_EET_S9_, symObjAddr: 0x18214, symBinAddr: 0x10001B37C, symSize: 0x84 }
  - { offsetInCU: 0x19C88, offset: 0x3D175, size: 0x8, addend: 0x0, symName: __ZNSt3__113__unwrap_iterB7v160006INS_16reverse_iteratorIPP15JobWorkerThreadEENS_18__unwrap_iter_implIS5_Lb0EEELi0EEEDTclsrT0_8__unwrapclsr3stdE7declvalIT_EEEES9_, symObjAddr: 0x18338, symBinAddr: 0x10001B4A0, symSize: 0x44 }
  - { offsetInCU: 0x19CCC, offset: 0x3D1B9, size: 0x8, addend: 0x0, symName: __ZNSt3__19make_pairB7v160006INS_16reverse_iteratorIPP15JobWorkerThreadEES5_EENS_4pairINS_18__unwrap_ref_decayIT_E4typeENS7_IT0_E4typeEEEOS8_OSB_, symObjAddr: 0x1837C, symBinAddr: 0x10001B4E4, symSize: 0x38 }
  - { offsetInCU: 0x19D1B, offset: 0x3D208, size: 0x8, addend: 0x0, symName: __ZNSt3__114__rewrap_rangeB7v160006INS_16reverse_iteratorIPP15JobWorkerThreadEES5_EET_S6_T0_, symObjAddr: 0x183B4, symBinAddr: 0x10001B51C, symSize: 0x5C }
  - { offsetInCU: 0x19D67, offset: 0x3D254, size: 0x8, addend: 0x0, symName: __ZNSt3__113__rewrap_iterB7v160006INS_16reverse_iteratorIPP15JobWorkerThreadEES5_NS_18__unwrap_iter_implIS5_Lb0EEEEET_S8_T0_, symObjAddr: 0x18410, symBinAddr: 0x10001B578, symSize: 0x74 }
  - { offsetInCU: 0x19DBC, offset: 0x3D2A9, size: 0x8, addend: 0x0, symName: __ZNSt3__1neB7v160006IPP15JobWorkerThreadS3_EEbRKNS_16reverse_iteratorIT_EERKNS4_IT0_EE, symObjAddr: 0x18484, symBinAddr: 0x10001B5EC, symSize: 0x48 }
  - { offsetInCU: 0x19E74, offset: 0x3D361, size: 0x8, addend: 0x0, symName: __ZNSt3__1miB7v160006IPKP15JobWorkerThreadS4_EEDTmicldtfp_4baseEcldtfp0_4baseEERKNS_11__wrap_iterIT_EERKNS6_IT0_EE, symObjAddr: 0x188A8, symBinAddr: 0x10001BA10, symSize: 0x48 }
  - { offsetInCU: 0x19EC0, offset: 0x3D3AD, size: 0x8, addend: 0x0, symName: __ZNSt3__14moveB7v160006IPP15JobWorkerThreadS3_EET0_T_S5_S4_, symObjAddr: 0x1891C, symBinAddr: 0x10001BA84, symSize: 0x40 }
  - { offsetInCU: 0x19F1A, offset: 0x3D407, size: 0x8, addend: 0x0, symName: __ZNSt3__16__moveB7v160006INS_17_ClassicAlgPolicyEPP15JobWorkerThreadS4_S4_EENS_4pairIT0_T2_EES6_T1_S7_, symObjAddr: 0x18A38, symBinAddr: 0x10001BBA0, symSize: 0x44 }
  - { offsetInCU: 0x19F86, offset: 0x3D473, size: 0x8, addend: 0x0, symName: __ZNSt3__123__dispatch_copy_or_moveB7v160006INS_17_ClassicAlgPolicyENS_11__move_loopIS1_EENS_14__move_trivialEPP15JobWorkerThreadS7_S7_EENS_4pairIT2_T4_EES9_T3_SA_, symObjAddr: 0x18A7C, symBinAddr: 0x10001BBE4, symSize: 0x44 }
  - { offsetInCU: 0x1A004, offset: 0x3D4F1, size: 0x8, addend: 0x0, symName: __ZNSt3__121__unwrap_and_dispatchB7v160006INS_10__overloadINS_11__move_loopINS_17_ClassicAlgPolicyEEENS_14__move_trivialEEEPP15JobWorkerThreadS9_S9_Li0EEENS_4pairIT0_T2_EESB_T1_SC_, symObjAddr: 0x18AC0, symBinAddr: 0x10001BC28, symSize: 0xB4 }
  - { offsetInCU: 0x1A094, offset: 0x3D581, size: 0x8, addend: 0x0, symName: __ZNSt3__114__unwrap_rangeB7v160006IPP15JobWorkerThreadS3_EENS_4pairIT0_S5_EET_S7_, symObjAddr: 0x18B74, symBinAddr: 0x10001BCDC, symSize: 0x60 }
  - { offsetInCU: 0x1A2A1, offset: 0x3D78E, size: 0x8, addend: 0x0, symName: __ZNSt3__113__unwrap_iterB7v160006IPP15JobWorkerThreadNS_18__unwrap_iter_implIS3_Lb1EEELi0EEEDTclsrT0_8__unwrapclsr3stdE7declvalIT_EEEES7_, symObjAddr: 0x18C1C, symBinAddr: 0x10001BD84, symSize: 0x24 }
  - { offsetInCU: 0x1A2E5, offset: 0x3D7D2, size: 0x8, addend: 0x0, symName: __ZNSt3__19make_pairB7v160006IPP15JobWorkerThreadS3_EENS_4pairINS_18__unwrap_ref_decayIT_E4typeENS5_IT0_E4typeEEEOS6_OS9_, symObjAddr: 0x18C40, symBinAddr: 0x10001BDA8, symSize: 0x38 }
  - { offsetInCU: 0x1A334, offset: 0x3D821, size: 0x8, addend: 0x0, symName: __ZNSt3__114__rewrap_rangeB7v160006IPP15JobWorkerThreadS3_EET_S4_T0_, symObjAddr: 0x18C78, symBinAddr: 0x10001BDE0, symSize: 0x2C }
  - { offsetInCU: 0x1A380, offset: 0x3D86D, size: 0x8, addend: 0x0, symName: __ZNSt3__113__rewrap_iterB7v160006IPP15JobWorkerThreadS3_NS_18__unwrap_iter_implIS3_Lb1EEEEET_S6_T0_, symObjAddr: 0x18CA4, symBinAddr: 0x10001BE0C, symSize: 0x3C }
  - { offsetInCU: 0x1A3D5, offset: 0x3D8C2, size: 0x8, addend: 0x0, symName: __ZNSt3__119__copy_trivial_implB7v160006IP15JobWorkerThreadS2_EENS_4pairIPT_PT0_EES5_S5_S7_, symObjAddr: 0x18CE0, symBinAddr: 0x10001BE48, symSize: 0x84 }
  - { offsetInCU: 0x1A43E, offset: 0x3D92B, size: 0x8, addend: 0x0, symName: __ZNSt3__19make_pairB7v160006IRPP15JobWorkerThreadS3_EENS_4pairINS_18__unwrap_ref_decayIT_E4typeENS6_IT0_E4typeEEEOS7_OSA_, symObjAddr: 0x18D64, symBinAddr: 0x10001BECC, symSize: 0x38 }
  - { offsetInCU: 0x1A939, offset: 0x3DE26, size: 0x8, addend: 0x0, symName: __ZNSt3__14swapB7v160006IPPP3JobEENS_9enable_ifIXaasr21is_move_constructibleIT_EE5valuesr18is_move_assignableIS6_EE5valueEvE4typeERS6_S9_, symObjAddr: 0x1A444, symBinAddr: 0x10001D5AC, symSize: 0x3C }
  - { offsetInCU: 0x1A98C, offset: 0x3DE79, size: 0x8, addend: 0x0, symName: __ZNSt3__14moveB7v160006IPPP3JobS4_EET0_T_S6_S5_, symObjAddr: 0x1A528, symBinAddr: 0x10001D690, symSize: 0x40 }
  - { offsetInCU: 0x1A9E6, offset: 0x3DED3, size: 0x8, addend: 0x0, symName: __ZNSt3__16__moveB7v160006INS_17_ClassicAlgPolicyEPPP3JobS5_S5_EENS_4pairIT0_T2_EES7_T1_S8_, symObjAddr: 0x1A6CC, symBinAddr: 0x10001D834, symSize: 0x44 }
  - { offsetInCU: 0x1AA52, offset: 0x3DF3F, size: 0x8, addend: 0x0, symName: __ZNSt3__123__dispatch_copy_or_moveB7v160006INS_17_ClassicAlgPolicyENS_11__move_loopIS1_EENS_14__move_trivialEPPP3JobS8_S8_EENS_4pairIT2_T4_EESA_T3_SB_, symObjAddr: 0x1A710, symBinAddr: 0x10001D878, symSize: 0x44 }
  - { offsetInCU: 0x1AAD0, offset: 0x3DFBD, size: 0x8, addend: 0x0, symName: __ZNSt3__121__unwrap_and_dispatchB7v160006INS_10__overloadINS_11__move_loopINS_17_ClassicAlgPolicyEEENS_14__move_trivialEEEPPP3JobSA_SA_Li0EEENS_4pairIT0_T2_EESC_T1_SD_, symObjAddr: 0x1A754, symBinAddr: 0x10001D8BC, symSize: 0xB4 }
  - { offsetInCU: 0x1AB60, offset: 0x3E04D, size: 0x8, addend: 0x0, symName: __ZNSt3__114__unwrap_rangeB7v160006IPPP3JobS4_EENS_4pairIT0_S6_EET_S8_, symObjAddr: 0x1A808, symBinAddr: 0x10001D970, symSize: 0x60 }
  - { offsetInCU: 0x1ACDE, offset: 0x3E1CB, size: 0x8, addend: 0x0, symName: __ZNSt3__113__unwrap_iterB7v160006IPPP3JobNS_18__unwrap_iter_implIS4_Lb1EEELi0EEEDTclsrT0_8__unwrapclsr3stdE7declvalIT_EEEES8_, symObjAddr: 0x1A8B0, symBinAddr: 0x10001DA18, symSize: 0x24 }
  - { offsetInCU: 0x1AD22, offset: 0x3E20F, size: 0x8, addend: 0x0, symName: __ZNSt3__19make_pairB7v160006IPPP3JobS4_EENS_4pairINS_18__unwrap_ref_decayIT_E4typeENS6_IT0_E4typeEEEOS7_OSA_, symObjAddr: 0x1A8D4, symBinAddr: 0x10001DA3C, symSize: 0x38 }
  - { offsetInCU: 0x1AD71, offset: 0x3E25E, size: 0x8, addend: 0x0, symName: __ZNSt3__114__rewrap_rangeB7v160006IPPP3JobS4_EET_S5_T0_, symObjAddr: 0x1A90C, symBinAddr: 0x10001DA74, symSize: 0x2C }
  - { offsetInCU: 0x1ADBD, offset: 0x3E2AA, size: 0x8, addend: 0x0, symName: __ZNSt3__113__rewrap_iterB7v160006IPPP3JobS4_NS_18__unwrap_iter_implIS4_Lb1EEEEET_S7_T0_, symObjAddr: 0x1A938, symBinAddr: 0x10001DAA0, symSize: 0x3C }
  - { offsetInCU: 0x1AE12, offset: 0x3E2FF, size: 0x8, addend: 0x0, symName: __ZNSt3__119__copy_trivial_implB7v160006IPP3JobS3_EENS_4pairIPT_PT0_EES6_S6_S8_, symObjAddr: 0x1A974, symBinAddr: 0x10001DADC, symSize: 0x84 }
  - { offsetInCU: 0x1AE7B, offset: 0x3E368, size: 0x8, addend: 0x0, symName: __ZNSt3__19make_pairB7v160006IRPPP3JobS4_EENS_4pairINS_18__unwrap_ref_decayIT_E4typeENS7_IT0_E4typeEEEOS8_OSB_, symObjAddr: 0x1A9F8, symBinAddr: 0x10001DB60, symSize: 0x38 }
  - { offsetInCU: 0x1AF1D, offset: 0x3E40A, size: 0x8, addend: 0x0, symName: __ZNSt3__18distanceB7v160006INS_13move_iteratorIPPP3JobEEEENS_15iterator_traitsIT_E15difference_typeES8_S8_, symObjAddr: 0x1AB84, symBinAddr: 0x10001DCEC, symSize: 0x3C }
  - { offsetInCU: 0x1AF60, offset: 0x3E44D, size: 0x8, addend: 0x0, symName: __ZNSt3__110__distanceB7v160006INS_13move_iteratorIPPP3JobEEEENS_15iterator_traitsIT_E15difference_typeES8_S8_NS_26random_access_iterator_tagE, symObjAddr: 0x1ACBC, symBinAddr: 0x10001DE24, symSize: 0x30 }
  - { offsetInCU: 0x1AFAE, offset: 0x3E49B, size: 0x8, addend: 0x0, symName: __ZNSt3__1miB7v160006IPPP3JobS4_EEDTmicldtfp_4baseEcldtfp0_4baseEERKNS_13move_iteratorIT_EERKNS6_IT0_EE, symObjAddr: 0x1ACEC, symBinAddr: 0x10001DE54, symSize: 0x48 }
  - { offsetInCU: 0x1AFFD, offset: 0x3E4EA, size: 0x8, addend: 0x0, symName: __ZNSt3__113move_backwardB7v160006IPPP3JobS4_EET0_T_S6_S5_, symObjAddr: 0x1AEF0, symBinAddr: 0x10001E058, symSize: 0x40 }
  - { offsetInCU: 0x1B057, offset: 0x3E544, size: 0x8, addend: 0x0, symName: __ZNSt3__115__move_backwardB7v160006INS_17_ClassicAlgPolicyEPPP3JobS5_S5_EENS_4pairIT0_T2_EES7_T1_S8_, symObjAddr: 0x1AF30, symBinAddr: 0x10001E098, symSize: 0x44 }
  - { offsetInCU: 0x1B0C3, offset: 0x3E5B0, size: 0x8, addend: 0x0, symName: __ZNSt3__123__dispatch_copy_or_moveB7v160006INS_17_ClassicAlgPolicyENS_20__move_backward_loopIS1_EENS_23__move_backward_trivialEPPP3JobS8_S8_EENS_4pairIT2_T4_EESA_T3_SB_, symObjAddr: 0x1AF74, symBinAddr: 0x10001E0DC, symSize: 0x44 }
  - { offsetInCU: 0x1B141, offset: 0x3E62E, size: 0x8, addend: 0x0, symName: __ZNSt3__121__unwrap_and_dispatchB7v160006INS_10__overloadINS_20__move_backward_loopINS_17_ClassicAlgPolicyEEENS_23__move_backward_trivialEEEPPP3JobSA_SA_Li0EEENS_4pairIT0_T2_EESC_T1_SD_, symObjAddr: 0x1AFB8, symBinAddr: 0x10001E120, symSize: 0xB4 }
  - { offsetInCU: 0x1B253, offset: 0x3E740, size: 0x8, addend: 0x0, symName: __ZNSt3__128__copy_backward_trivial_implB7v160006IPP3JobS3_EENS_4pairIPT_PT0_EES6_S6_S8_, symObjAddr: 0x1B0B4, symBinAddr: 0x10001E21C, symSize: 0x94 }
  - { offsetInCU: 0x1B2BC, offset: 0x3E7A9, size: 0x8, addend: 0x0, symName: __ZNSt3__19make_pairB7v160006IRPPP3JobS5_EENS_4pairINS_18__unwrap_ref_decayIT_E4typeENS7_IT0_E4typeEEEOS8_OSB_, symObjAddr: 0x1B148, symBinAddr: 0x10001E2B0, symSize: 0x38 }
  - { offsetInCU: 0x1B30B, offset: 0x3E7F8, size: 0x8, addend: 0x0, symName: __ZNSt3__119__allocate_at_leastB7v160006INS_9allocatorIPP3JobEEEENS_19__allocation_resultINS_16allocator_traitsIT_E7pointerEEERS8_m, symObjAddr: 0x1B300, symBinAddr: 0x10001E468, symSize: 0x40 }
  - { offsetInCU: 0x1B34E, offset: 0x3E83B, size: 0x8, addend: 0x0, symName: __ZNSt3__14swapB7v160006ImEENS_9enable_ifIXaasr21is_move_constructibleIT_EE5valuesr18is_move_assignableIS2_EE5valueEvE4typeERS2_S5_, symObjAddr: 0x1BA08, symBinAddr: 0x10001EB70, symSize: 0x3C }
  - { offsetInCU: 0x1B3A1, offset: 0x3E88E, size: 0x8, addend: 0x0, symName: __ZNSt3__116__swap_allocatorB7v160006INS_9allocatorIP3JobEEEEvRT_S6_, symObjAddr: 0x1BA44, symBinAddr: 0x10001EBAC, symSize: 0x2C }
  - { offsetInCU: 0x1B3E1, offset: 0x3E8CE, size: 0x8, addend: 0x0, symName: __ZNSt3__116__swap_allocatorB7v160006INS_9allocatorIPP3JobEEEEvRT_S7_, symObjAddr: 0x1BA70, symBinAddr: 0x10001EBD8, symSize: 0x2C }
  - { offsetInCU: 0x1B422, offset: 0x3E90F, size: 0x8, addend: 0x0, symName: __ZNSt3__116__swap_allocatorB7v160006INS_9allocatorIPP3JobEEEEvRT_S7_NS_17integral_constantIbLb0EEE, symObjAddr: 0x1BA9C, symBinAddr: 0x10001EC04, symSize: 0x14 }
  - { offsetInCU: 0x1B466, offset: 0x3E953, size: 0x8, addend: 0x0, symName: __ZNSt3__116__swap_allocatorB7v160006INS_9allocatorIP3JobEEEEvRT_S6_NS_17integral_constantIbLb0EEE, symObjAddr: 0x1BAB0, symBinAddr: 0x10001EC18, symSize: 0x14 }
  - { offsetInCU: 0x1B4A9, offset: 0x3E996, size: 0x8, addend: 0x0, symName: __ZNSt3__1eqB7v160006ERKNS_16__deque_iteratorIP3JobPS2_RS2_PS3_lLl512EEES8_, symObjAddr: 0x1BB54, symBinAddr: 0x10001ECBC, symSize: 0x30 }
  - { offsetInCU: 0x1B4E7, offset: 0x3E9D4, size: 0x8, addend: 0x0, symName: __ZNSt3__1miB7v160006ERKNS_16__deque_iteratorIP3JobPKS2_RS3_PKS4_lLl512EEESA_, symObjAddr: 0x1C448, symBinAddr: 0x10001ECEC, symSize: 0xA4 }
  - { offsetInCU: 0x1B524, offset: 0x3EA11, size: 0x8, addend: 0x0, symName: __ZNSt3__113move_backwardB7v160006INS_16__deque_iteratorIP3JobPS3_RS3_PS4_lLl512EEES7_EET0_T_S9_S8_, symObjAddr: 0x1C52C, symBinAddr: 0x10001EDD0, symSize: 0x78 }
  - { offsetInCU: 0x1B57E, offset: 0x3EA6B, size: 0x8, addend: 0x0, symName: __ZNSt3__14nextB7v160006INS_16__deque_iteratorIP3JobPS3_RS3_PS4_lLl512EEEEENS_9enable_ifIXsr25__is_cpp17_input_iteratorIT_EE5valueES9_E4typeES9_NS_15iterator_traitsIS9_E15difference_typeE, symObjAddr: 0x1C5A4, symBinAddr: 0x10001EE48, symSize: 0x58 }
  - { offsetInCU: 0x1B5C1, offset: 0x3EAAE, size: 0x8, addend: 0x0, symName: __ZNSt3__14moveB7v160006INS_16__deque_iteratorIP3JobPS3_RS3_PS4_lLl512EEES7_EET0_T_S9_S8_, symObjAddr: 0x1C6D8, symBinAddr: 0x10001EF7C, symSize: 0x78 }
  - { offsetInCU: 0x1B61B, offset: 0x3EB08, size: 0x8, addend: 0x0, symName: __ZNSt3__1neB7v160006ERKNS_16__deque_iteratorIP3JobPKS2_RS3_PKS4_lLl512EEESA_, symObjAddr: 0x1C81C, symBinAddr: 0x10001F0C0, symSize: 0x34 }
  - { offsetInCU: 0x1B658, offset: 0x3EB45, size: 0x8, addend: 0x0, symName: __ZNSt3__1eqB7v160006ERKNS_16__deque_iteratorIP3JobPKS2_RS3_PKS4_lLl512EEESA_, symObjAddr: 0x1C850, symBinAddr: 0x10001F0F4, symSize: 0x30 }
  - { offsetInCU: 0x1B696, offset: 0x3EB83, size: 0x8, addend: 0x0, symName: __ZNSt3__115__move_backwardB7v160006INS_17_ClassicAlgPolicyENS_16__deque_iteratorIP3JobPS4_RS4_PS5_lLl512EEES8_S8_EENS_4pairIT0_T2_EESA_T1_SB_, symObjAddr: 0x1C990, symBinAddr: 0x10001F234, symSize: 0x64 }
  - { offsetInCU: 0x1B702, offset: 0x3EBEF, size: 0x8, addend: 0x0, symName: __ZNSt3__123__dispatch_copy_or_moveB7v160006INS_17_ClassicAlgPolicyENS_20__move_backward_loopIS1_EENS_23__move_backward_trivialENS_16__deque_iteratorIP3JobPS7_RS7_PS8_lLl512EEESB_SB_EENS_4pairIT2_T4_EESD_T3_SE_, symObjAddr: 0x1C9F4, symBinAddr: 0x10001F298, symSize: 0x64 }
  - { offsetInCU: 0x1B780, offset: 0x3EC6D, size: 0x8, addend: 0x0, symName: __ZNSt3__121__unwrap_and_dispatchB7v160006INS_10__overloadINS_20__move_backward_loopINS_17_ClassicAlgPolicyEEENS_23__move_backward_trivialEEENS_16__deque_iteratorIP3JobPS9_RS9_PSA_lLl512EEESD_SD_Li0EEENS_4pairIT0_T2_EESF_T1_SG_, symObjAddr: 0x1CA58, symBinAddr: 0x10001F2FC, symSize: 0x12C }
  - { offsetInCU: 0x1B812, offset: 0x3ECFF, size: 0x8, addend: 0x0, symName: __ZNSt3__114__unwrap_rangeB7v160006INS_16__deque_iteratorIP3JobPS3_RS3_PS4_lLl512EEES7_EENS_4pairIT0_S9_EET_SB_, symObjAddr: 0x1CB84, symBinAddr: 0x10001F428, symSize: 0x84 }
  - { offsetInCU: 0x1BA1B, offset: 0x3EF08, size: 0x8, addend: 0x0, symName: __ZNSt3__113__unwrap_iterB7v160006INS_16__deque_iteratorIP3JobPS3_RS3_PS4_lLl512EEENS_18__unwrap_iter_implIS7_Lb0EEELi0EEEDTclsrT0_8__unwrapclsr3stdE7declvalIT_EEEESB_, symObjAddr: 0x1CE38, symBinAddr: 0x10001F6DC, symSize: 0x44 }
  - { offsetInCU: 0x1BA5F, offset: 0x3EF4C, size: 0x8, addend: 0x0, symName: __ZNSt3__19make_pairB7v160006INS_16__deque_iteratorIP3JobPS3_RS3_PS4_lLl512EEES7_EENS_4pairINS_18__unwrap_ref_decayIT_E4typeENS9_IT0_E4typeEEEOSA_OSD_, symObjAddr: 0x1CE7C, symBinAddr: 0x10001F720, symSize: 0x38 }
  - { offsetInCU: 0x1BAAE, offset: 0x3EF9B, size: 0x8, addend: 0x0, symName: __ZNSt3__114__rewrap_rangeB7v160006INS_16__deque_iteratorIP3JobPS3_RS3_PS4_lLl512EEES7_EET_S8_T0_, symObjAddr: 0x1CEB4, symBinAddr: 0x10001F758, symSize: 0x5C }
  - { offsetInCU: 0x1BAFA, offset: 0x3EFE7, size: 0x8, addend: 0x0, symName: __ZNSt3__113__rewrap_iterB7v160006INS_16__deque_iteratorIP3JobPS3_RS3_PS4_lLl512EEES7_NS_18__unwrap_iter_implIS7_Lb0EEEEET_SA_T0_, symObjAddr: 0x1CF10, symBinAddr: 0x10001F7B4, symSize: 0x74 }
  - { offsetInCU: 0x1BBFB, offset: 0x3F0E8, size: 0x8, addend: 0x0, symName: __ZNSt3__115__move_backwardB7v160006INS_17_ClassicAlgPolicyEPP3JobS4_NS_16__deque_iteratorIS3_S4_RS3_PS4_lLl512EEEEENS_4pairIT0_T2_EESA_T1_SB_, symObjAddr: 0x1CF9C, symBinAddr: 0x10001F840, symSize: 0x44 }
  - { offsetInCU: 0x1BC67, offset: 0x3F154, size: 0x8, addend: 0x0, symName: __ZNSt3__19make_pairB7v160006IRNS_16__deque_iteratorIP3JobPS3_RS3_PS4_lLl512EEES8_EENS_4pairINS_18__unwrap_ref_decayIT_E4typeENSA_IT0_E4typeEEEOSB_OSE_, symObjAddr: 0x1CFF8, symBinAddr: 0x10001F89C, symSize: 0x38 }
  - { offsetInCU: 0x1BCB6, offset: 0x3F1A3, size: 0x8, addend: 0x0, symName: __ZNSt3__19make_pairB7v160006IRNS_16__deque_iteratorIP3JobPS3_RS3_PS4_lLl512EEES7_EENS_4pairINS_18__unwrap_ref_decayIT_E4typeENSA_IT0_E4typeEEEOSB_OSE_, symObjAddr: 0x1D064, symBinAddr: 0x10001F908, symSize: 0x38 }
  - { offsetInCU: 0x1BD05, offset: 0x3F1F2, size: 0x8, addend: 0x0, symName: __ZNSt3__123__dispatch_copy_or_moveB7v160006INS_17_ClassicAlgPolicyENS_20__move_backward_loopIS1_EENS_23__move_backward_trivialEPP3JobS7_NS_16__deque_iteratorIS6_S7_RS6_PS7_lLl512EEEEENS_4pairIT2_T4_EESD_T3_SE_, symObjAddr: 0x1D09C, symBinAddr: 0x10001F940, symSize: 0x44 }
  - { offsetInCU: 0x1BD83, offset: 0x3F270, size: 0x8, addend: 0x0, symName: __ZNSt3__121__unwrap_and_dispatchB7v160006INS_10__overloadINS_20__move_backward_loopINS_17_ClassicAlgPolicyEEENS_23__move_backward_trivialEEEPP3JobS9_NS_16__deque_iteratorIS8_S9_RS8_PS9_lLl512EEELi0EEENS_4pairIT0_T2_EESF_T1_SG_, symObjAddr: 0x1D0E0, symBinAddr: 0x10001F984, symSize: 0xF0 }
  - { offsetInCU: 0x1BE14, offset: 0x3F301, size: 0x8, addend: 0x0, symName: __ZNSt3__114__unwrap_rangeB7v160006IPP3JobS3_EENS_4pairIT0_S5_EET_S7_, symObjAddr: 0x1D1D0, symBinAddr: 0x10001FA74, symSize: 0x60 }
  - { offsetInCU: 0x1BF63, offset: 0x3F450, size: 0x8, addend: 0x0, symName: __ZNSt3__19make_pairB7v160006IPP3JobNS_16__deque_iteratorIS2_S3_RS2_PS3_lLl512EEEEENS_4pairINS_18__unwrap_ref_decayIT_E4typeENS9_IT0_E4typeEEEOSA_OSD_, symObjAddr: 0x1D3CC, symBinAddr: 0x10001FC70, symSize: 0x38 }
  - { offsetInCU: 0x1BFB2, offset: 0x3F49F, size: 0x8, addend: 0x0, symName: __ZNSt3__114__rewrap_rangeB7v160006IPP3JobS3_EET_S4_T0_, symObjAddr: 0x1D404, symBinAddr: 0x10001FCA8, symSize: 0x2C }
  - { offsetInCU: 0x1BFFE, offset: 0x3F4EB, size: 0x8, addend: 0x0, symName: __ZNSt3__19make_pairB7v160006IPP3JobS3_EENS_4pairINS_18__unwrap_ref_decayIT_E4typeENS5_IT0_E4typeEEEOS6_OS9_, symObjAddr: 0x1D430, symBinAddr: 0x10001FCD4, symSize: 0x38 }
  - { offsetInCU: 0x1C04D, offset: 0x3F53A, size: 0x8, addend: 0x0, symName: __ZNSt3__113__unwrap_iterB7v160006IPP3JobNS_18__unwrap_iter_implIS3_Lb1EEELi0EEEDTclsrT0_8__unwrapclsr3stdE7declvalIT_EEEES7_, symObjAddr: 0x1D468, symBinAddr: 0x10001FD0C, symSize: 0x24 }
  - { offsetInCU: 0x1C216, offset: 0x3F703, size: 0x8, addend: 0x0, symName: __ZNSt3__112__to_addressB7v160006IP3JobEEPT_S4_, symObjAddr: 0x1D520, symBinAddr: 0x10001FDC4, symSize: 0x14 }
  - { offsetInCU: 0x1C24C, offset: 0x3F739, size: 0x8, addend: 0x0, symName: __ZNSt3__19make_pairB7v160006IRPP3JobRNS_16__deque_iteratorIS2_S3_RS2_PS3_lLl512EEEEENS_4pairINS_18__unwrap_ref_decayIT_E4typeENSB_IT0_E4typeEEEOSC_OSF_, symObjAddr: 0x1D534, symBinAddr: 0x10001FDD8, symSize: 0x38 }
  - { offsetInCU: 0x1C29B, offset: 0x3F788, size: 0x8, addend: 0x0, symName: __ZNSt3__13minB7v160006IlEERKT_S3_S3_, symObjAddr: 0x1D56C, symBinAddr: 0x10001FE10, symSize: 0x2C }
  - { offsetInCU: 0x1C2DE, offset: 0x3F7CB, size: 0x8, addend: 0x0, symName: __ZNSt3__115__move_backwardB7v160006INS_17_ClassicAlgPolicyEPP3JobS4_S4_EENS_4pairIT0_T2_EES6_T1_S7_, symObjAddr: 0x1D598, symBinAddr: 0x10001FE3C, symSize: 0x44 }
  - { offsetInCU: 0x1C34A, offset: 0x3F837, size: 0x8, addend: 0x0, symName: __ZNSt3__13minB7v160006IlNS_6__lessIllEEEERKT_S5_S5_T0_, symObjAddr: 0x1D6D0, symBinAddr: 0x10001FF74, symSize: 0x54 }
  - { offsetInCU: 0x1C3DF, offset: 0x3F8CC, size: 0x8, addend: 0x0, symName: __ZNSt3__123__dispatch_copy_or_moveB7v160006INS_17_ClassicAlgPolicyENS_20__move_backward_loopIS1_EENS_23__move_backward_trivialEPP3JobS7_S7_EENS_4pairIT2_T4_EES9_T3_SA_, symObjAddr: 0x1D758, symBinAddr: 0x10001FFFC, symSize: 0x44 }
  - { offsetInCU: 0x1C45D, offset: 0x3F94A, size: 0x8, addend: 0x0, symName: __ZNSt3__121__unwrap_and_dispatchB7v160006INS_10__overloadINS_20__move_backward_loopINS_17_ClassicAlgPolicyEEENS_23__move_backward_trivialEEEPP3JobS9_S9_Li0EEENS_4pairIT0_T2_EESB_T1_SC_, symObjAddr: 0x1D79C, symBinAddr: 0x100020040, symSize: 0xB4 }
  - { offsetInCU: 0x1C4ED, offset: 0x3F9DA, size: 0x8, addend: 0x0, symName: __ZNSt3__113__rewrap_iterB7v160006IPP3JobS3_NS_18__unwrap_iter_implIS3_Lb1EEEEET_S6_T0_, symObjAddr: 0x1D898, symBinAddr: 0x10002013C, symSize: 0x3C }
  - { offsetInCU: 0x1C542, offset: 0x3FA2F, size: 0x8, addend: 0x0, symName: __ZNSt3__128__copy_backward_trivial_implB7v160006IP3JobS2_EENS_4pairIPT_PT0_EES5_S5_S7_, symObjAddr: 0x1D8D4, symBinAddr: 0x100020178, symSize: 0x94 }
  - { offsetInCU: 0x1C5AB, offset: 0x3FA98, size: 0x8, addend: 0x0, symName: __ZNSt3__19make_pairB7v160006IRPP3JobS4_EENS_4pairINS_18__unwrap_ref_decayIT_E4typeENS6_IT0_E4typeEEEOS7_OSA_, symObjAddr: 0x1D968, symBinAddr: 0x10002020C, symSize: 0x38 }
  - { offsetInCU: 0x1C642, offset: 0x3FB2F, size: 0x8, addend: 0x0, symName: __ZNSt3__19__advanceB7v160006INS_16__deque_iteratorIP3JobPS3_RS3_PS4_lLl512EEEEEvRT_NS_15iterator_traitsIS8_E15difference_typeENS_26random_access_iterator_tagE, symObjAddr: 0x1DCC0, symBinAddr: 0x100020564, symSize: 0x2C }
  - { offsetInCU: 0x1C68D, offset: 0x3FB7A, size: 0x8, addend: 0x0, symName: __ZNSt3__16__moveB7v160006INS_17_ClassicAlgPolicyENS_16__deque_iteratorIP3JobPS4_RS4_PS5_lLl512EEES8_S8_EENS_4pairIT0_T2_EESA_T1_SB_, symObjAddr: 0x1DD18, symBinAddr: 0x1000205BC, symSize: 0x64 }
  - { offsetInCU: 0x1C6F9, offset: 0x3FBE6, size: 0x8, addend: 0x0, symName: __ZNSt3__123__dispatch_copy_or_moveB7v160006INS_17_ClassicAlgPolicyENS_11__move_loopIS1_EENS_14__move_trivialENS_16__deque_iteratorIP3JobPS7_RS7_PS8_lLl512EEESB_SB_EENS_4pairIT2_T4_EESD_T3_SE_, symObjAddr: 0x1DD7C, symBinAddr: 0x100020620, symSize: 0x64 }
  - { offsetInCU: 0x1C777, offset: 0x3FC64, size: 0x8, addend: 0x0, symName: __ZNSt3__121__unwrap_and_dispatchB7v160006INS_10__overloadINS_11__move_loopINS_17_ClassicAlgPolicyEEENS_14__move_trivialEEENS_16__deque_iteratorIP3JobPS9_RS9_PSA_lLl512EEESD_SD_Li0EEENS_4pairIT0_T2_EESF_T1_SG_, symObjAddr: 0x1DDE0, symBinAddr: 0x100020684, symSize: 0x12C }
  - { offsetInCU: 0x1C809, offset: 0x3FCF6, size: 0x8, addend: 0x0, symName: __ZNSt3__16__moveB7v160006INS_17_ClassicAlgPolicyEPP3JobS4_NS_16__deque_iteratorIS3_S4_RS3_PS4_lLl512EEEEENS_4pairIT0_T2_EESA_T1_SB_, symObjAddr: 0x1E144, symBinAddr: 0x1000209E8, symSize: 0x44 }
  - { offsetInCU: 0x1C875, offset: 0x3FD62, size: 0x8, addend: 0x0, symName: __ZNSt3__123__dispatch_copy_or_moveB7v160006INS_17_ClassicAlgPolicyENS_11__move_loopIS1_EENS_14__move_trivialEPP3JobS7_NS_16__deque_iteratorIS6_S7_RS6_PS7_lLl512EEEEENS_4pairIT2_T4_EESD_T3_SE_, symObjAddr: 0x1E188, symBinAddr: 0x100020A2C, symSize: 0x44 }
  - { offsetInCU: 0x1C8F3, offset: 0x3FDE0, size: 0x8, addend: 0x0, symName: __ZNSt3__121__unwrap_and_dispatchB7v160006INS_10__overloadINS_11__move_loopINS_17_ClassicAlgPolicyEEENS_14__move_trivialEEEPP3JobS9_NS_16__deque_iteratorIS8_S9_RS8_PS9_lLl512EEELi0EEENS_4pairIT0_T2_EESF_T1_SG_, symObjAddr: 0x1E1CC, symBinAddr: 0x100020A70, symSize: 0xF0 }
  - { offsetInCU: 0x1C984, offset: 0x3FE71, size: 0x8, addend: 0x0, symName: __ZNSt3__16__moveB7v160006INS_17_ClassicAlgPolicyEPP3JobS4_S4_EENS_4pairIT0_T2_EES6_T1_S7_, symObjAddr: 0x1E420, symBinAddr: 0x100020CC4, symSize: 0x44 }
  - { offsetInCU: 0x1C9F0, offset: 0x3FEDD, size: 0x8, addend: 0x0, symName: __ZNSt3__123__dispatch_copy_or_moveB7v160006INS_17_ClassicAlgPolicyENS_11__move_loopIS1_EENS_14__move_trivialEPP3JobS7_S7_EENS_4pairIT2_T4_EES9_T3_SA_, symObjAddr: 0x1E464, symBinAddr: 0x100020D08, symSize: 0x44 }
  - { offsetInCU: 0x1CA6E, offset: 0x3FF5B, size: 0x8, addend: 0x0, symName: __ZNSt3__121__unwrap_and_dispatchB7v160006INS_10__overloadINS_11__move_loopINS_17_ClassicAlgPolicyEEENS_14__move_trivialEEEPP3JobS9_S9_Li0EEENS_4pairIT0_T2_EESB_T1_SC_, symObjAddr: 0x1E4A8, symBinAddr: 0x100020D4C, symSize: 0xB4 }
  - { offsetInCU: 0x1CAFE, offset: 0x3FFEB, size: 0x8, addend: 0x0, symName: __ZNSt3__119__copy_trivial_implB7v160006IP3JobS2_EENS_4pairIPT_PT0_EES5_S5_S7_, symObjAddr: 0x1E5A4, symBinAddr: 0x100020E48, symSize: 0x84 }
  - { offsetInCU: 0x1CB67, offset: 0x40054, size: 0x8, addend: 0x0, symName: __ZNSt3__19make_pairB7v160006IRPP3JobS3_EENS_4pairINS_18__unwrap_ref_decayIT_E4typeENS6_IT0_E4typeEEEOS7_OSA_, symObjAddr: 0x1E628, symBinAddr: 0x100020ECC, symSize: 0x38 }
  - { offsetInCU: 0x1CBB6, offset: 0x400A3, size: 0x8, addend: 0x0, symName: __ZNSt3__1eqB7v160006IN8nlohmann16json_abi_v3_11_210basic_jsonINS_3mapENS_6vectorENS_12basic_stringIcNS_11char_traitsIcEENS_9allocatorIcEEEEbxydS9_NS2_14adl_serializerENS5_IhNS9_IhEEEEvEENS9_ISF_EEEEbRKNS5_IT_T0_EESL_, symObjAddr: 0x1EC5C, symBinAddr: 0x100021500, symSize: 0x9C }
  - { offsetInCU: 0x1CC14, offset: 0x40101, size: 0x8, addend: 0x0, symName: __ZNSt3__1eqB7v160006INS_12basic_stringIcNS_11char_traitsIcEENS_9allocatorIcEEEEN8nlohmann16json_abi_v3_11_210basic_jsonINS_3mapENS_6vectorES6_bxydS4_NS8_14adl_serializerENSB_IhNS4_IhEEEEvEENS_4lessIvEENS4_INS_4pairIKS6_SF_EEEEEEbRKNSA_IT_T0_T1_T2_EESS_, symObjAddr: 0x1ECF8, symBinAddr: 0x10002159C, symSize: 0x98 }
  - { offsetInCU: 0x1CC75, offset: 0x40162, size: 0x8, addend: 0x0, symName: __ZNSt3__15equalB7v160006INS_11__wrap_iterIPKN8nlohmann16json_abi_v3_11_210basic_jsonINS_3mapENS_6vectorENS_12basic_stringIcNS_11char_traitsIcEENS_9allocatorIcEEEEbxydSA_NS3_14adl_serializerENS6_IhNSA_IhEEEEvEEEESJ_EEbT_SK_T0_, symObjAddr: 0x1EEEC, symBinAddr: 0x100021790, symSize: 0x50 }
  - { offsetInCU: 0x1CCCF, offset: 0x401BC, size: 0x8, addend: 0x0, symName: __ZNSt3__15equalB7v160006INS_11__wrap_iterIPKN8nlohmann16json_abi_v3_11_210basic_jsonINS_3mapENS_6vectorENS_12basic_stringIcNS_11char_traitsIcEENS_9allocatorIcEEEEbxydSA_NS3_14adl_serializerENS6_IhNSA_IhEEEEvEEEESJ_NS_10__equal_toEEEbT_SL_T0_T1_, symObjAddr: 0x1EF9C, symBinAddr: 0x100021840, symSize: 0xB0 }
  - { offsetInCU: 0x1CD40, offset: 0x4022D, size: 0x8, addend: 0x0, symName: __ZNSt3__1neB7v160006IPKN8nlohmann16json_abi_v3_11_210basic_jsonINS_3mapENS_6vectorENS_12basic_stringIcNS_11char_traitsIcEENS_9allocatorIcEEEEbxydS9_NS2_14adl_serializerENS5_IhNS9_IhEEEEvEEEEbRKNS_11__wrap_iterIT_EESM_, symObjAddr: 0x1F04C, symBinAddr: 0x1000218F0, symSize: 0x34 }
  - { offsetInCU: 0x1CE20, offset: 0x4030D, size: 0x8, addend: 0x0, symName: __ZNSt3__1eqB7v160006IPKN8nlohmann16json_abi_v3_11_210basic_jsonINS_3mapENS_6vectorENS_12basic_stringIcNS_11char_traitsIcEENS_9allocatorIcEEEEbxydS9_NS2_14adl_serializerENS5_IhNS9_IhEEEEvEEEEbRKNS_11__wrap_iterIT_EESM_, symObjAddr: 0x1F0EC, symBinAddr: 0x100021990, symSize: 0x48 }
  - { offsetInCU: 0x1CE63, offset: 0x40350, size: 0x8, addend: 0x0, symName: __ZNSt3__15equalB7v160006INS_20__map_const_iteratorINS_21__tree_const_iteratorINS_12__value_typeINS_12basic_stringIcNS_11char_traitsIcEENS_9allocatorIcEEEEN8nlohmann16json_abi_v3_11_210basic_jsonINS_3mapENS_6vectorES9_bxydS7_NSB_14adl_serializerENSE_IhNS7_IhEEEEvEEEEPNS_11__tree_nodeISJ_PvEElEEEESP_EEbT_SQ_T0_, symObjAddr: 0x1F1E0, symBinAddr: 0x100021A84, symSize: 0x50 }
  - { offsetInCU: 0x1CEBD, offset: 0x403AA, size: 0x8, addend: 0x0, symName: __ZNSt3__15equalB7v160006INS_20__map_const_iteratorINS_21__tree_const_iteratorINS_12__value_typeINS_12basic_stringIcNS_11char_traitsIcEENS_9allocatorIcEEEEN8nlohmann16json_abi_v3_11_210basic_jsonINS_3mapENS_6vectorES9_bxydS7_NSB_14adl_serializerENSE_IhNS7_IhEEEEvEEEEPNS_11__tree_nodeISJ_PvEElEEEESP_NS_10__equal_toEEEbT_SR_T0_T1_, symObjAddr: 0x1F230, symBinAddr: 0x100021AD4, symSize: 0xB0 }
  - { offsetInCU: 0x1CF2E, offset: 0x4041B, size: 0x8, addend: 0x0, symName: __ZNSt3__1eqB7v160006IKNS_12basic_stringIcNS_11char_traitsIcEENS_9allocatorIcEEEEN8nlohmann16json_abi_v3_11_210basic_jsonINS_3mapENS_6vectorES6_bxydS4_NS9_14adl_serializerENSC_IhNS4_IhEEEEvEEEEbRKNS_4pairIT_T0_EESM_, symObjAddr: 0x1F314, symBinAddr: 0x100021BB8, symSize: 0x60 }
  - { offsetInCU: 0x1CF7D, offset: 0x4046A, size: 0x8, addend: 0x0, symName: __ZNSt3__1eqB7v160006IJRKNS_6vectorIhNS_9allocatorIhEEEERKyRKbEJS6_S8_SA_EEEbRKNS_5tupleIJDpT_EEERKNSB_IJDpT0_EEE, symObjAddr: 0x1F374, symBinAddr: 0x100021C18, symSize: 0x34 }
  - { offsetInCU: 0x1CFE4, offset: 0x404D1, size: 0x8, addend: 0x0, symName: __ZNSt3__13tieB7v160006IJKNS_6vectorIhNS_9allocatorIhEEEEKyKbEEENS_5tupleIJDpRT_EEESB_, symObjAddr: 0x1F3A8, symBinAddr: 0x100021C4C, symSize: 0x40 }
  - { offsetInCU: 0x1D5FF, offset: 0x40AEC, size: 0x8, addend: 0x0, symName: __ZNSt3__13getB7v160006ILm2EJRKNS_6vectorIhNS_9allocatorIhEEEERKyRKbEEERKNS_13tuple_elementIXT_ENS_5tupleIJDpT0_EEEE4typeERKSF_, symObjAddr: 0x1F4E8, symBinAddr: 0x100021D8C, symSize: 0x28 }
  - { offsetInCU: 0x1D693, offset: 0x40B80, size: 0x8, addend: 0x0, symName: __ZNSt3__13getB7v160006ILm1EJRKNS_6vectorIhNS_9allocatorIhEEEERKyRKbEEERKNS_13tuple_elementIXT_ENS_5tupleIJDpT0_EEEE4typeERKSF_, symObjAddr: 0x1F584, symBinAddr: 0x100021E28, symSize: 0x28 }
  - { offsetInCU: 0x1D727, offset: 0x40C14, size: 0x8, addend: 0x0, symName: __ZNSt3__1eqB7v160006IhNS_9allocatorIhEEEEbRKNS_6vectorIT_T0_EES8_, symObjAddr: 0x1F5CC, symBinAddr: 0x100021E70, symSize: 0x9C }
  - { offsetInCU: 0x1D785, offset: 0x40C72, size: 0x8, addend: 0x0, symName: __ZNSt3__13getB7v160006ILm0EJRKNS_6vectorIhNS_9allocatorIhEEEERKyRKbEEERKNS_13tuple_elementIXT_ENS_5tupleIJDpT0_EEEE4typeERKSF_, symObjAddr: 0x1F668, symBinAddr: 0x100021F0C, symSize: 0x24 }
  - { offsetInCU: 0x1D7D2, offset: 0x40CBF, size: 0x8, addend: 0x0, symName: __ZNSt3__15equalB7v160006INS_11__wrap_iterIPKhEES4_EEbT_S5_T0_, symObjAddr: 0x1F68C, symBinAddr: 0x100021F30, symSize: 0x50 }
  - { offsetInCU: 0x1D82C, offset: 0x40D19, size: 0x8, addend: 0x0, symName: __ZNSt3__15equalB7v160006INS_11__wrap_iterIPKhEES4_NS_10__equal_toEEEbT_S6_T0_T1_, symObjAddr: 0x1F73C, symBinAddr: 0x100021FE0, symSize: 0xB0 }
  - { offsetInCU: 0x1D89D, offset: 0x40D8A, size: 0x8, addend: 0x0, symName: __ZNSt3__1neB7v160006IPKhEEbRKNS_11__wrap_iterIT_EES7_, symObjAddr: 0x1F7EC, symBinAddr: 0x100022090, symSize: 0x34 }
  - { offsetInCU: 0x1D8E0, offset: 0x40DCD, size: 0x8, addend: 0x0, symName: __ZNSt3__1eqB7v160006IPKhEEbRKNS_11__wrap_iterIT_EES7_, symObjAddr: 0x1F88C, symBinAddr: 0x100022130, symSize: 0x48 }
  - { offsetInCU: 0x1DC9D, offset: 0x4118A, size: 0x8, addend: 0x0, symName: __ZNSt3__1neB7v160006INS_12basic_stringIcNS_11char_traitsIcEENS_9allocatorIcEEEEZN8nlohmann16json_abi_v3_11_210basic_jsonINS_3mapENS_6vectorES6_bxydS4_NS8_14adl_serializerENSB_IhNS4_IhEEEEvE6createIS6_JRKPKcEEEPT_DpOT0_EUlPS6_E_EEbRKNS_10unique_ptrISL_T0_EEDn, symObjAddr: 0x1FF5C, symBinAddr: 0x100022800, symSize: 0x2C }
  - { offsetInCU: 0x1E028, offset: 0x41515, size: 0x8, addend: 0x0, symName: __ZNSt3__1neB7v160006INS_12basic_stringIcNS_11char_traitsIcEENS_9allocatorIcEEEEZN8nlohmann16json_abi_v3_11_210basic_jsonINS_3mapENS_6vectorES6_bxydS4_NS8_14adl_serializerENSB_IhNS4_IhEEEEvE6createIS6_JRA11_KcEEEPT_DpOT0_EUlPS6_E_EEbRKNS_10unique_ptrISK_T0_EEDn, symObjAddr: 0x20624, symBinAddr: 0x100022EC8, symSize: 0x2C }
  - { offsetInCU: 0x1E3B3, offset: 0x418A0, size: 0x8, addend: 0x0, symName: __ZNSt3__1neB7v160006INS_12basic_stringIcNS_11char_traitsIcEENS_9allocatorIcEEEEZN8nlohmann16json_abi_v3_11_210basic_jsonINS_3mapENS_6vectorES6_bxydS4_NS8_14adl_serializerENSB_IhNS4_IhEEEEvE6createIS6_JRA10_KcEEEPT_DpOT0_EUlPS6_E_EEbRKNS_10unique_ptrISK_T0_EEDn, symObjAddr: 0x20D74, symBinAddr: 0x100023618, symSize: 0x2C }
  - { offsetInCU: 0x1E73E, offset: 0x41C2B, size: 0x8, addend: 0x0, symName: __ZNSt3__1neB7v160006INS_12basic_stringIcNS_11char_traitsIcEENS_9allocatorIcEEEEZN8nlohmann16json_abi_v3_11_210basic_jsonINS_3mapENS_6vectorES6_bxydS4_NS8_14adl_serializerENSB_IhNS4_IhEEEEvE6createIS6_JRA7_KcEEEPT_DpOT0_EUlPS6_E_EEbRKNS_10unique_ptrISK_T0_EEDn, symObjAddr: 0x21438, symBinAddr: 0x100023CDC, symSize: 0x2C }
  - { offsetInCU: 0x1EAC9, offset: 0x41FB6, size: 0x8, addend: 0x0, symName: __ZNSt3__1neB7v160006INS_12basic_stringIcNS_11char_traitsIcEENS_9allocatorIcEEEEZN8nlohmann16json_abi_v3_11_210basic_jsonINS_3mapENS_6vectorES6_bxydS4_NS8_14adl_serializerENSB_IhNS4_IhEEEEvE6createIS6_JRA16_KcEEEPT_DpOT0_EUlPS6_E_EEbRKNS_10unique_ptrISK_T0_EEDn, symObjAddr: 0x21CDC, symBinAddr: 0x100024580, symSize: 0x2C }
  - { offsetInCU: 0x1EE54, offset: 0x42341, size: 0x8, addend: 0x0, symName: __ZNSt3__1neB7v160006INS_12basic_stringIcNS_11char_traitsIcEENS_9allocatorIcEEEEZN8nlohmann16json_abi_v3_11_210basic_jsonINS_3mapENS_6vectorES6_bxydS4_NS8_14adl_serializerENSB_IhNS4_IhEEEEvE6createIS6_JRA6_KcEEEPT_DpOT0_EUlPS6_E_EEbRKNS_10unique_ptrISK_T0_EEDn, symObjAddr: 0x223A0, symBinAddr: 0x100024C44, symSize: 0x2C }
  - { offsetInCU: 0x1F1DF, offset: 0x426CC, size: 0x8, addend: 0x0, symName: __ZNSt3__1neB7v160006INS_12basic_stringIcNS_11char_traitsIcEENS_9allocatorIcEEEEZN8nlohmann16json_abi_v3_11_210basic_jsonINS_3mapENS_6vectorES6_bxydS4_NS8_14adl_serializerENSB_IhNS4_IhEEEEvE6createIS6_JRA13_KcEEEPT_DpOT0_EUlPS6_E_EEbRKNS_10unique_ptrISK_T0_EEDn, symObjAddr: 0x22A64, symBinAddr: 0x100025308, symSize: 0x2C }
  - { offsetInCU: 0x1F56A, offset: 0x42A57, size: 0x8, addend: 0x0, symName: __ZNSt3__1neB7v160006INS_12basic_stringIcNS_11char_traitsIcEENS_9allocatorIcEEEEZN8nlohmann16json_abi_v3_11_210basic_jsonINS_3mapENS_6vectorES6_bxydS4_NS8_14adl_serializerENSB_IhNS4_IhEEEEvE6createIS6_JRA12_KcEEEPT_DpOT0_EUlPS6_E_EEbRKNS_10unique_ptrISK_T0_EEDn, symObjAddr: 0x23128, symBinAddr: 0x1000259CC, symSize: 0x2C }
  - { offsetInCU: 0x1F5B5, offset: 0x42AA2, size: 0x8, addend: 0x0, symName: __ZNSt3__16all_ofB7v160006IPKN8nlohmann16json_abi_v3_11_26detail8json_refINS2_10basic_jsonINS_3mapENS_6vectorENS_12basic_stringIcNS_11char_traitsIcEENS_9allocatorIcEEEEbxydSB_NS2_14adl_serializerENS7_IhNSB_IhEEEEvEEEEZNSH_C1ESt16initializer_listISI_EbNS3_7value_tEEUlRSJ_E_EEbT_SQ_T0_, symObjAddr: 0x237EC, symBinAddr: 0x100026090, symSize: 0x94 }
  - { offsetInCU: 0x1F94F, offset: 0x42E3C, size: 0x8, addend: 0x0, symName: __ZNSt3__1neB7v160006INS_6vectorIN8nlohmann16json_abi_v3_11_210basic_jsonINS_3mapES1_NS_12basic_stringIcNS_11char_traitsIcEENS_9allocatorIcEEEEbxydS9_NS3_14adl_serializerENS1_IhNS9_IhEEEEvEENS9_ISF_EEEEZNSF_6createISH_JPKNS3_6detail8json_refISF_EESN_EEEPT_DpOT0_EUlPSH_E_EEbRKNS_10unique_ptrISO_T0_EEDn, symObjAddr: 0x24394, symBinAddr: 0x100026C38, symSize: 0x2C }
  - { offsetInCU: 0x1F99A, offset: 0x42E87, size: 0x8, addend: 0x0, symName: __ZNSt3__18distanceB7v160006IPKN8nlohmann16json_abi_v3_11_26detail8json_refINS2_10basic_jsonINS_3mapENS_6vectorENS_12basic_stringIcNS_11char_traitsIcEENS_9allocatorIcEEEEbxydSB_NS2_14adl_serializerENS7_IhNSB_IhEEEEvEEEEEENS_15iterator_traitsIT_E15difference_typeESM_SM_, symObjAddr: 0x246A0, symBinAddr: 0x100026F44, symSize: 0x2C }
  - { offsetInCU: 0x1F9DD, offset: 0x42ECA, size: 0x8, addend: 0x0, symName: __ZNSt3__110__distanceB7v160006IPKN8nlohmann16json_abi_v3_11_26detail8json_refINS2_10basic_jsonINS_3mapENS_6vectorENS_12basic_stringIcNS_11char_traitsIcEENS_9allocatorIcEEEEbxydSB_NS2_14adl_serializerENS7_IhNSB_IhEEEEvEEEEEENS_15iterator_traitsIT_E15difference_typeESM_SM_NS_26random_access_iterator_tagE, symObjAddr: 0x24758, symBinAddr: 0x100026FFC, symSize: 0x28 }
  - { offsetInCU: 0x1FA2C, offset: 0x42F19, size: 0x8, addend: 0x0, symName: __ZNSt3__130__uninitialized_allocator_copyB7v160006INS_9allocatorIN8nlohmann16json_abi_v3_11_210basic_jsonINS_3mapENS_6vectorENS_12basic_stringIcNS_11char_traitsIcEENS1_IcEEEEbxydS1_NS3_14adl_serializerENS6_IhNS1_IhEEEEvEEEEPKNS3_6detail8json_refISF_EESL_PSF_EET2_RT_T0_T1_SN_, symObjAddr: 0x24780, symBinAddr: 0x100027024, symSize: 0xF4 }
  - { offsetInCU: 0x1FACA, offset: 0x42FB7, size: 0x8, addend: 0x0, symName: __ZNSt3__142__uninitialized_allocator_move_if_noexceptB7v160006INS_9allocatorINS_12basic_stringIcNS_11char_traitsIcEENS1_IcEEEEEENS_16reverse_iteratorIPS6_EESA_SA_EET2_RT_T0_T1_SB_, symObjAddr: 0x250F4, symBinAddr: 0x100027998, symSize: 0x11C }
  - { offsetInCU: 0x1FB6A, offset: 0x43057, size: 0x8, addend: 0x0, symName: __ZNSt3__14swapB7v160006IPNS_12basic_stringIcNS_11char_traitsIcEENS_9allocatorIcEEEEEENS_9enable_ifIXaasr21is_move_constructibleIT_EE5valuesr18is_move_assignableIS9_EE5valueEvE4typeERS9_SC_, symObjAddr: 0x25210, symBinAddr: 0x100027AB4, symSize: 0x3C }
  - { offsetInCU: 0x1FBBE, offset: 0x430AB, size: 0x8, addend: 0x0, symName: __ZNSt3__125__debug_db_invalidate_allB7v160006INS_6vectorINS_12basic_stringIcNS_11char_traitsIcEENS_9allocatorIcEEEENS5_IS7_EEEEEEvPT_, symObjAddr: 0x2524C, symBinAddr: 0x100027AF0, symSize: 0x10 }
  - { offsetInCU: 0x1FBEE, offset: 0x430DB, size: 0x8, addend: 0x0, symName: __ZNSt3__122__make_exception_guardB7v160006INS_29_AllocatorDestroyRangeReverseINS_9allocatorINS_12basic_stringIcNS_11char_traitsIcEENS2_IcEEEEEENS_16reverse_iteratorIPS7_EEEEEENS_28__exception_guard_exceptionsIT_EESE_, symObjAddr: 0x2525C, symBinAddr: 0x100027B00, symSize: 0x4C }
  - { offsetInCU: 0x1FC25, offset: 0x43112, size: 0x8, addend: 0x0, symName: __ZNSt3__119__allocator_destroyB7v160006INS_9allocatorINS_12basic_stringIcNS_11char_traitsIcEENS1_IcEEEEEENS_16reverse_iteratorINS8_IPS6_EEEESB_EEvRT_T0_T1_, symObjAddr: 0x25538, symBinAddr: 0x100027DDC, symSize: 0x70 }
  - { offsetInCU: 0x1FC89, offset: 0x43176, size: 0x8, addend: 0x0, symName: __ZNSt3__1neB7v160006INS_16reverse_iteratorIPNS_12basic_stringIcNS_11char_traitsIcEENS_9allocatorIcEEEEEES9_EEbRKNS1_IT_EERKNS1_IT0_EE, symObjAddr: 0x255E4, symBinAddr: 0x100027E88, symSize: 0x60 }
  - { offsetInCU: 0x1FCD5, offset: 0x431C2, size: 0x8, addend: 0x0, symName: __ZNSt3__112__to_addressB7v160006INS_16reverse_iteratorINS1_IPNS_12basic_stringIcNS_11char_traitsIcEENS_9allocatorIcEEEEEEEEvEENS_5decayIDTclsr19__to_address_helperIT_EE6__callclsr3stdE7declvalIRKSC_EEEEE4typeESE_, symObjAddr: 0x25644, symBinAddr: 0x100027EE8, symSize: 0x24 }
  - { offsetInCU: 0x1FD6B, offset: 0x43258, size: 0x8, addend: 0x0, symName: __ZNSt3__116forward_as_tupleB7v160006IJRKNS_12basic_stringIcNS_11char_traitsIcEENS_9allocatorIcEEEEEEENS_5tupleIJDpOT_EEESC_, symObjAddr: 0x25E54, symBinAddr: 0x1000286F8, symSize: 0x2C }
  - { offsetInCU: 0x1FDA4, offset: 0x43291, size: 0x8, addend: 0x0, symName: __ZNSt3__116forward_as_tupleB7v160006IJEEENS_5tupleIJDpOT_EEES4_, symObjAddr: 0x25E80, symBinAddr: 0x100028724, symSize: 0x4 }
  - { offsetInCU: 0x1FDC9, offset: 0x432B6, size: 0x8, addend: 0x0, symName: __ZNSt3__116__constrain_hashB7v160006Emm, symObjAddr: 0x25F30, symBinAddr: 0x1000287D4, symSize: 0x98 }
  - { offsetInCU: 0x1FE04, offset: 0x432F1, size: 0x8, addend: 0x0, symName: __ZNSt3__116__is_hash_power2B7v160006Em, symObjAddr: 0x26250, symBinAddr: 0x100028AF4, symSize: 0x50 }
  - { offsetInCU: 0x1FE31, offset: 0x4331E, size: 0x8, addend: 0x0, symName: __ZNSt3__116__do_string_hashB7v160006IPKcEEmT_S3_, symObjAddr: 0x264B0, symBinAddr: 0x100028D54, symSize: 0x3C }
  - { offsetInCU: 0x1FE77, offset: 0x43364, size: 0x8, addend: 0x0, symName: __ZNSt3__110__loadwordB7v160006ImEET_PKv, symObjAddr: 0x26EA4, symBinAddr: 0x100029748, symSize: 0x20 }
  - { offsetInCU: 0x1FEBC, offset: 0x433A9, size: 0x8, addend: 0x0, symName: __ZNSt3__110__loadwordB7v160006IjEET_PKv, symObjAddr: 0x270B4, symBinAddr: 0x100029958, symSize: 0x20 }
  - { offsetInCU: 0x1FF01, offset: 0x433EE, size: 0x8, addend: 0x0, symName: __ZNSt3__17launderB7v160006IKNS_4pairIKNS_12basic_stringIcNS_11char_traitsIcEENS_9allocatorIcEEEENS_8functionIFvRN8nlohmann16json_abi_v3_11_210basic_jsonINS_3mapENS_6vectorES7_bxydS5_NSB_14adl_serializerENSE_IhNS5_IhEEEEvEEEEEEEEEPT_SP_, symObjAddr: 0x27390, symBinAddr: 0x100029C34, symSize: 0x24 }
  - { offsetInCU: 0x1FF38, offset: 0x43425, size: 0x8, addend: 0x0, symName: __ZNSt3__19__launderB7v160006IKNS_4pairIKNS_12basic_stringIcNS_11char_traitsIcEENS_9allocatorIcEEEENS_8functionIFvRN8nlohmann16json_abi_v3_11_210basic_jsonINS_3mapENS_6vectorES7_bxydS5_NSB_14adl_serializerENSE_IhNS5_IhEEEEvEEEEEEEEEPT_SP_, symObjAddr: 0x273B4, symBinAddr: 0x100029C58, symSize: 0x14 }
  - { offsetInCU: 0x1FF8E, offset: 0x4347B, size: 0x8, addend: 0x0, symName: __ZNSt3__13getB7v160006ILm0EJRKNS_12basic_stringIcNS_11char_traitsIcEENS_9allocatorIcEEEEEEERNS_13tuple_elementIXT_ENS_5tupleIJDpT0_EEEE4typeERSD_, symObjAddr: 0x277D8, symBinAddr: 0x10002A07C, symSize: 0x24 }
  - { offsetInCU: 0x1FFD1, offset: 0x434BE, size: 0x8, addend: 0x0, symName: __ZNSt3__116__next_hash_pow2B7v160006Em, symObjAddr: 0x27CE4, symBinAddr: 0x10002A588, symSize: 0x6C }
  - { offsetInCU: 0x1FFFE, offset: 0x434EB, size: 0x8, addend: 0x0, symName: __ZNSt3__125__debug_db_invalidate_allB7v160006INS_12__hash_tableINS_17__hash_value_typeINS_12basic_stringIcNS_11char_traitsIcEENS_9allocatorIcEEEENS_8functionIFvRN8nlohmann16json_abi_v3_11_210basic_jsonINS_3mapENS_6vectorES8_bxydS6_NSB_14adl_serializerENSE_IhNS6_IhEEEEvEEEEEEENS_22__unordered_map_hasherIS8_SM_NS_4hashIS8_EENS_8equal_toIS8_EELb1EEENS_21__unordered_map_equalIS8_SM_SR_SP_Lb1EEENS6_ISM_EEEEEEvPT_, symObjAddr: 0x27D50, symBinAddr: 0x10002A5F4, symSize: 0x10 }
  - { offsetInCU: 0x2002E, offset: 0x4351B, size: 0x8, addend: 0x0, symName: __ZNSt3__112__libcpp_clzB7v160006Em, symObjAddr: 0x27EB8, symBinAddr: 0x10002A75C, symSize: 0x1C }
  - { offsetInCU: 0x200A3, offset: 0x43590, size: 0x8, addend: 0x0, symName: __ZNSt3__1neB7v160006ERKNS_15__hash_iteratorIPNS_11__hash_nodeINS_17__hash_value_typeINS_12basic_stringIcNS_11char_traitsIcEENS_9allocatorIcEEEENS_8functionIFvRN8nlohmann16json_abi_v3_11_210basic_jsonINS_3mapENS_6vectorES8_bxydS6_NSB_14adl_serializerENSE_IhNS6_IhEEEEvEEEEEEEPvEEEESS_, symObjAddr: 0x28898, symBinAddr: 0x10002ACBC, symSize: 0x34 }
  - { offsetInCU: 0x200E0, offset: 0x435CD, size: 0x8, addend: 0x0, symName: __ZNSt3__1eqB7v160006ERKNS_15__hash_iteratorIPNS_11__hash_nodeINS_17__hash_value_typeINS_12basic_stringIcNS_11char_traitsIcEENS_9allocatorIcEEEENS_8functionIFvRN8nlohmann16json_abi_v3_11_210basic_jsonINS_3mapENS_6vectorES8_bxydS6_NSB_14adl_serializerENSE_IhNS6_IhEEEEvEEEEEEEPvEEEESS_, symObjAddr: 0x288CC, symBinAddr: 0x10002ACF0, symSize: 0x30 }
  - { offsetInCU: 0x235C0, offset: 0x46AAD, size: 0x8, addend: 0x0, symName: __ZN8nlohmann16json_abi_v3_11_26detail7to_jsonINS0_10basic_jsonINSt3__13mapENS4_6vectorENS4_12basic_stringIcNS4_11char_traitsIcEENS4_9allocatorIcEEEEbxydSA_NS0_14adl_serializerENS6_IhNSA_IhEEEEvEEPKcLi0EEEvRT_RKT0_, symObjAddr: 0x1FD44, symBinAddr: 0x1000225E8, symSize: 0x2C }
  - { offsetInCU: 0x237C9, offset: 0x46CB6, size: 0x8, addend: 0x0, symName: __ZN8nlohmann16json_abi_v3_11_26detail7to_jsonINS0_10basic_jsonINSt3__13mapENS4_6vectorENS4_12basic_stringIcNS4_11char_traitsIcEENS4_9allocatorIcEEEEbxydSA_NS0_14adl_serializerENS6_IhNSA_IhEEEEvEEA11_cLi0EEEvRT_RKT0_, symObjAddr: 0x2040C, symBinAddr: 0x100022CB0, symSize: 0x2C }
  - { offsetInCU: 0x2381A, offset: 0x46D07, size: 0x8, addend: 0x0, symName: __ZN8nlohmann16json_abi_v3_11_26detail7to_jsonINS0_10basic_jsonINSt3__13mapENS4_6vectorENS4_12basic_stringIcNS4_11char_traitsIcEENS4_9allocatorIcEEEEbxydSA_NS0_14adl_serializerENS6_IhNSA_IhEEEEvEEA10_cLi0EEEvRT_RKT0_, symObjAddr: 0x20B5C, symBinAddr: 0x100023400, symSize: 0x2C }
  - { offsetInCU: 0x2386B, offset: 0x46D58, size: 0x8, addend: 0x0, symName: __ZN8nlohmann16json_abi_v3_11_26detail7to_jsonINS0_10basic_jsonINSt3__13mapENS4_6vectorENS4_12basic_stringIcNS4_11char_traitsIcEENS4_9allocatorIcEEEEbxydSA_NS0_14adl_serializerENS6_IhNSA_IhEEEEvEEA7_cLi0EEEvRT_RKT0_, symObjAddr: 0x21220, symBinAddr: 0x100023AC4, symSize: 0x2C }
  - { offsetInCU: 0x238BC, offset: 0x46DA9, size: 0x8, addend: 0x0, symName: __ZN8nlohmann16json_abi_v3_11_26detail7to_jsonINS0_10basic_jsonINSt3__13mapENS4_6vectorENS4_12basic_stringIcNS4_11char_traitsIcEENS4_9allocatorIcEEEEbxydSA_NS0_14adl_serializerENS6_IhNSA_IhEEEEvEEA1_cLi0EEEvRT_RKT0_, symObjAddr: 0x218E4, symBinAddr: 0x100024188, symSize: 0x2C }
  - { offsetInCU: 0x2390D, offset: 0x46DFA, size: 0x8, addend: 0x0, symName: __ZN8nlohmann16json_abi_v3_11_26detail7to_jsonINS0_10basic_jsonINSt3__13mapENS4_6vectorENS4_12basic_stringIcNS4_11char_traitsIcEENS4_9allocatorIcEEEEbxydSA_NS0_14adl_serializerENS6_IhNSA_IhEEEEvEEA16_cLi0EEEvRT_RKT0_, symObjAddr: 0x21AC4, symBinAddr: 0x100024368, symSize: 0x2C }
  - { offsetInCU: 0x2395E, offset: 0x46E4B, size: 0x8, addend: 0x0, symName: __ZN8nlohmann16json_abi_v3_11_26detail7to_jsonINS0_10basic_jsonINSt3__13mapENS4_6vectorENS4_12basic_stringIcNS4_11char_traitsIcEENS4_9allocatorIcEEEEbxydSA_NS0_14adl_serializerENS6_IhNSA_IhEEEEvEEA6_cLi0EEEvRT_RKT0_, symObjAddr: 0x22188, symBinAddr: 0x100024A2C, symSize: 0x2C }
  - { offsetInCU: 0x239AF, offset: 0x46E9C, size: 0x8, addend: 0x0, symName: __ZN8nlohmann16json_abi_v3_11_26detail7to_jsonINS0_10basic_jsonINSt3__13mapENS4_6vectorENS4_12basic_stringIcNS4_11char_traitsIcEENS4_9allocatorIcEEEEbxydSA_NS0_14adl_serializerENS6_IhNSA_IhEEEEvEEA13_cLi0EEEvRT_RKT0_, symObjAddr: 0x2284C, symBinAddr: 0x1000250F0, symSize: 0x2C }
  - { offsetInCU: 0x23A00, offset: 0x46EED, size: 0x8, addend: 0x0, symName: __ZN8nlohmann16json_abi_v3_11_26detail7to_jsonINS0_10basic_jsonINSt3__13mapENS4_6vectorENS4_12basic_stringIcNS4_11char_traitsIcEENS4_9allocatorIcEEEEbxydSA_NS0_14adl_serializerENS6_IhNSA_IhEEEEvEEA12_cLi0EEEvRT_RKT0_, symObjAddr: 0x22F10, symBinAddr: 0x1000257B4, symSize: 0x2C }
  - { offsetInCU: 0x23A50, offset: 0x46F3D, size: 0x8, addend: 0x0, symName: __ZN8nlohmann16json_abi_v3_11_26detail6concatINSt3__112basic_stringIcNS3_11char_traitsIcEENS3_9allocatorIcEEEEJRA52_KcPSA_EEET_DpOT0_, symObjAddr: 0x23EA4, symBinAddr: 0x100026748, symSize: 0xC4 }
  - { offsetInCU: 0x23AB7, offset: 0x46FA4, size: 0x8, addend: 0x0, symName: __ZN8nlohmann16json_abi_v3_11_26detail11concat_intoINSt3__112basic_stringIcNS3_11char_traitsIcEENS3_9allocatorIcEEEERA52_KcJPSA_ELi0EEEvRT_OT0_DpOT1_, symObjAddr: 0x23F68, symBinAddr: 0x10002680C, symSize: 0x3C }
  - { offsetInCU: 0x23E8E, offset: 0x4737B, size: 0x8, addend: 0x0, symName: __ZN8nlohmann16json_abi_v3_11_2eqIPKcLi0EEEbRKNS0_10basic_jsonINSt3__13mapENS5_6vectorENS5_12basic_stringIcNS5_11char_traitsIcEENS5_9allocatorIcEEEEbxydSB_NS0_14adl_serializerENS7_IhNSB_IhEEEEvEET_, symObjAddr: 0x2684, symBinAddr: 0x10000FF64, symSize: 0x68 }
  - { offsetInCU: 0x23EDA, offset: 0x473C7, size: 0x8, addend: 0x0, symName: __ZN8nlohmann16json_abi_v3_11_2eqERKNS0_10basic_jsonINSt3__13mapENS2_6vectorENS2_12basic_stringIcNS2_11char_traitsIcEENS2_9allocatorIcEEEEbxydS8_NS0_14adl_serializerENS4_IhNS8_IhEEEEvEESG_, symObjAddr: 0x1E778, symBinAddr: 0x10002101C, symSize: 0x470 }
  - { offsetInCU: 0x254E9, offset: 0x489D6, size: 0x8, addend: 0x0, symName: __ZN3JobC2ERN8nlohmann16json_abi_v3_11_210basic_jsonINSt3__13mapENS3_6vectorENS3_12basic_stringIcNS3_11char_traitsIcEENS3_9allocatorIcEEEEbxydS9_NS1_14adl_serializerENS5_IhNS9_IhEEEEvEE, symObjAddr: 0x3FA0, symBinAddr: 0x10001172C, symSize: 0x144 }
  - { offsetInCU: 0x25511, offset: 0x489FE, size: 0x8, addend: 0x0, symName: __ZZN3JobC1ERN8nlohmann16json_abi_v3_11_210basic_jsonINSt3__13mapENS3_6vectorENS3_12basic_stringIcNS3_11char_traitsIcEENS3_9allocatorIcEEEEbxydS9_NS1_14adl_serializerENS5_IhNS9_IhEEEEvEEE11s_nextJobID, symObjAddr: 0x2A0E8, symBinAddr: 0x10009C000, symSize: 0x0 }
  - { offsetInCU: 0x2553C, offset: 0x48A29, size: 0x8, addend: 0x0, symName: __ZN8nlohmann16json_abi_v3_11_26detail12static_constINS1_10to_json_fnEE5valueE, symObjAddr: 0x29F9D, symBinAddr: 0x100092233, symSize: 0x0 }
  - { offsetInCU: 0x256C8, offset: 0x48BB5, size: 0x8, addend: 0x0, symName: __ZNSt3__16vectorI15JobHistoryEntryNS_9allocatorIS1_EEE26__swap_out_circular_bufferERNS_14__split_bufferIS1_RS3_EE, symObjAddr: 0x16498, symBinAddr: 0x100019600, symSize: 0x118 }
  - { offsetInCU: 0x25722, offset: 0x48C0F, size: 0x8, addend: 0x0, symName: __ZNSt3__16vectorIP15JobWorkerThreadNS_9allocatorIS2_EEE26__swap_out_circular_bufferERNS_14__split_bufferIS2_RS4_EE, symObjAddr: 0x178D0, symBinAddr: 0x10001AA38, symSize: 0x118 }
  - { offsetInCU: 0x25829, offset: 0x48D16, size: 0x8, addend: 0x0, symName: __ZNSt3__16vectorINS_12basic_stringIcNS_11char_traitsIcEENS_9allocatorIcEEEENS4_IS6_EEE26__swap_out_circular_bufferERNS_14__split_bufferIS6_RS7_EE, symObjAddr: 0x24D78, symBinAddr: 0x10002761C, symSize: 0x118 }
  - { offsetInCU: 0x277D5, offset: 0x4ACC2, size: 0x8, addend: 0x0, symName: __ZN9JobSystemC2Ev, symObjAddr: 0x0, symBinAddr: 0x10000D9EC, symSize: 0x2FC }
  - { offsetInCU: 0x27807, offset: 0x4ACF4, size: 0x8, addend: 0x0, symName: __ZNSt3__16vectorINS_12basic_stringIcNS_11char_traitsIcEENS_9allocatorIcEEEENS4_IS6_EEEC1B7v160006ESt16initializer_listIS6_E, symObjAddr: 0x330, symBinAddr: 0x10000DCE8, symSize: 0x3C }
  - { offsetInCU: 0x27842, offset: 0x4AD2F, size: 0x8, addend: 0x0, symName: __ZNSt3__16vectorIP15JobWorkerThreadNS_9allocatorIS2_EEEC1B7v160006Ev, symObjAddr: 0x36C, symBinAddr: 0x10000DD24, symSize: 0x2C }
  - { offsetInCU: 0x2786C, offset: 0x4AD59, size: 0x8, addend: 0x0, symName: __ZNSt3__15mutexC1B7v160006Ev, symObjAddr: 0x398, symBinAddr: 0x10000DD50, symSize: 0x2C }
  - { offsetInCU: 0x27896, offset: 0x4AD83, size: 0x8, addend: 0x0, symName: __ZNSt3__15dequeIP3JobNS_9allocatorIS2_EEEC1B7v160006Ev, symObjAddr: 0x3C4, symBinAddr: 0x10000DD7C, symSize: 0x2C }
  - { offsetInCU: 0x278C0, offset: 0x4ADAD, size: 0x8, addend: 0x0, symName: __ZNSt3__16vectorI15JobHistoryEntryNS_9allocatorIS1_EEEC1B7v160006Ev, symObjAddr: 0x3F0, symBinAddr: 0x10000DDA8, symSize: 0x2C }
  - { offsetInCU: 0x278EA, offset: 0x4ADD7, size: 0x8, addend: 0x0, symName: __ZNSt3__113unordered_mapINS_12basic_stringIcNS_11char_traitsIcEENS_9allocatorIcEEEENS_8functionIFvRN8nlohmann16json_abi_v3_11_210basic_jsonINS_3mapENS_6vectorES6_bxydS4_NS9_14adl_serializerENSC_IhNS4_IhEEEEvEEEEENS_4hashIS6_EENS_8equal_toIS6_EENS4_INS_4pairIKS6_SJ_EEEEEC1B7v160006Ev, symObjAddr: 0x41C, symBinAddr: 0x10000DDD4, symSize: 0x2C }
  - { offsetInCU: 0x27914, offset: 0x4AE01, size: 0x8, addend: 0x0, symName: __ZNSt3__16vectorI15JobHistoryEntryNS_9allocatorIS1_EEE7reserveEm, symObjAddr: 0x448, symBinAddr: 0x10000DE00, symSize: 0xE8 }
  - { offsetInCU: 0x27970, offset: 0x4AE5D, size: 0x8, addend: 0x0, symName: __ZNSt3__113unordered_mapINS_12basic_stringIcNS_11char_traitsIcEENS_9allocatorIcEEEENS_8functionIFvRN8nlohmann16json_abi_v3_11_210basic_jsonINS_3mapENS_6vectorES6_bxydS4_NS9_14adl_serializerENSC_IhNS4_IhEEEEvEEEEENS_4hashIS6_EENS_8equal_toIS6_EENS4_INS_4pairIKS6_SJ_EEEEED1B7v160006Ev, symObjAddr: 0x530, symBinAddr: 0x10000DEE8, symSize: 0x2C }
  - { offsetInCU: 0x2799A, offset: 0x4AE87, size: 0x8, addend: 0x0, symName: __ZNSt3__16vectorI15JobHistoryEntryNS_9allocatorIS1_EEED1B7v160006Ev, symObjAddr: 0x55C, symBinAddr: 0x10000DF14, symSize: 0x2C }
  - { offsetInCU: 0x279C4, offset: 0x4AEB1, size: 0x8, addend: 0x0, symName: __ZNSt3__15dequeIP3JobNS_9allocatorIS2_EEED1B7v160006Ev, symObjAddr: 0x588, symBinAddr: 0x10000DF40, symSize: 0x2C }
  - { offsetInCU: 0x279EE, offset: 0x4AEDB, size: 0x8, addend: 0x0, symName: __ZNSt3__16vectorIP15JobWorkerThreadNS_9allocatorIS2_EEED1B7v160006Ev, symObjAddr: 0x5B4, symBinAddr: 0x10000DF6C, symSize: 0x2C }
  - { offsetInCU: 0x27A18, offset: 0x4AF05, size: 0x8, addend: 0x0, symName: __ZNSt3__16vectorINS_12basic_stringIcNS_11char_traitsIcEENS_9allocatorIcEEEENS4_IS6_EEED1B7v160006Ev, symObjAddr: 0x5E0, symBinAddr: 0x10000DF98, symSize: 0x2C }
  - { offsetInCU: 0x27A42, offset: 0x4AF2F, size: 0x8, addend: 0x0, symName: __ZN9JobSystemC1Ev, symObjAddr: 0x60C, symBinAddr: 0x10000DFC4, symSize: 0x2C }
  - { offsetInCU: 0x27A6E, offset: 0x4AF5B, size: 0x8, addend: 0x0, symName: __ZN9JobSystemD2Ev, symObjAddr: 0x638, symBinAddr: 0x10000DFF0, symSize: 0x1AC }
  - { offsetInCU: 0x27ACD, offset: 0x4AFBA, size: 0x8, addend: 0x0, symName: __ZNKSt3__16vectorIP15JobWorkerThreadNS_9allocatorIS2_EEE4sizeB7v160006Ev, symObjAddr: 0x7F0, symBinAddr: 0x10000E19C, symSize: 0x28 }
  - { offsetInCU: 0x27AF3, offset: 0x4AFE0, size: 0x8, addend: 0x0, symName: __ZNSt3__16vectorIP15JobWorkerThreadNS_9allocatorIS2_EEEixB7v160006Em, symObjAddr: 0x818, symBinAddr: 0x10000E1C4, symSize: 0x24 }
  - { offsetInCU: 0x27B2A, offset: 0x4B017, size: 0x8, addend: 0x0, symName: __ZNKSt3__16vectorIP15JobWorkerThreadNS_9allocatorIS2_EEE5emptyB7v160006Ev, symObjAddr: 0x83C, symBinAddr: 0x10000E1E8, symSize: 0x28 }
  - { offsetInCU: 0x27B50, offset: 0x4B03D, size: 0x8, addend: 0x0, symName: __ZNSt3__16vectorIP15JobWorkerThreadNS_9allocatorIS2_EEE4backB7v160006Ev, symObjAddr: 0x864, symBinAddr: 0x10000E210, symSize: 0x1C }
  - { offsetInCU: 0x27B76, offset: 0x4B063, size: 0x8, addend: 0x0, symName: __ZNSt3__16vectorIP15JobWorkerThreadNS_9allocatorIS2_EEE8pop_backEv, symObjAddr: 0x880, symBinAddr: 0x10000E22C, symSize: 0x2C }
  - { offsetInCU: 0x27B9E, offset: 0x4B08B, size: 0x8, addend: 0x0, symName: __ZN9JobSystemD1Ev, symObjAddr: 0x8AC, symBinAddr: 0x10000E258, symSize: 0x2C }
  - { offsetInCU: 0x27BCA, offset: 0x4B0B7, size: 0x8, addend: 0x0, symName: __ZN9JobSystem11createOrGetEv, symObjAddr: 0x8D8, symBinAddr: 0x10000E284, symSize: 0x80 }
  - { offsetInCU: 0x27BE0, offset: 0x4B0CD, size: 0x8, addend: 0x0, symName: __ZN9JobSystem7destroyEv, symObjAddr: 0x958, symBinAddr: 0x10000E304, symSize: 0x6C }
  - { offsetInCU: 0x27BF6, offset: 0x4B0E3, size: 0x8, addend: 0x0, symName: __ZN9JobSystem18createWorkerThreadEPKcm, symObjAddr: 0x9C4, symBinAddr: 0x10000E370, symSize: 0xBC }
  - { offsetInCU: 0x27C49, offset: 0x4B136, size: 0x8, addend: 0x0, symName: __ZNSt3__16vectorIP15JobWorkerThreadNS_9allocatorIS2_EEE9push_backB7v160006ERKS2_, symObjAddr: 0xA80, symBinAddr: 0x10000E42C, symSize: 0x6C }
  - { offsetInCU: 0x27C80, offset: 0x4B16D, size: 0x8, addend: 0x0, symName: __ZN9JobSystem19destroyWorkerThreadEPKc, symObjAddr: 0xAEC, symBinAddr: 0x10000E498, symSize: 0x13C }
  - { offsetInCU: 0x27CD4, offset: 0x4B1C1, size: 0x8, addend: 0x0, symName: __ZNSt3__16vectorIP15JobWorkerThreadNS_9allocatorIS2_EEE5beginB7v160006Ev, symObjAddr: 0xC28, symBinAddr: 0x10000E5D4, symSize: 0x30 }
  - { offsetInCU: 0x27CFC, offset: 0x4B1E9, size: 0x8, addend: 0x0, symName: __ZNSt3__16vectorIP15JobWorkerThreadNS_9allocatorIS2_EEE3endB7v160006Ev, symObjAddr: 0xC8C, symBinAddr: 0x10000E638, symSize: 0x30 }
  - { offsetInCU: 0x27D24, offset: 0x4B211, size: 0x8, addend: 0x0, symName: __ZNKSt3__111__wrap_iterIPP15JobWorkerThreadEdeB7v160006Ev, symObjAddr: 0xCBC, symBinAddr: 0x10000E668, symSize: 0x18 }
  - { offsetInCU: 0x27D4A, offset: 0x4B237, size: 0x8, addend: 0x0, symName: __ZNSt3__16vectorIP15JobWorkerThreadNS_9allocatorIS2_EEE5eraseB7v160006ENS_11__wrap_iterIPKS2_EE, symObjAddr: 0xCD4, symBinAddr: 0x10000E680, symSize: 0xA4 }
  - { offsetInCU: 0x27DAB, offset: 0x4B298, size: 0x8, addend: 0x0, symName: __ZNSt3__111__wrap_iterIPKP15JobWorkerThreadEC1B7v160006IPS2_EERKNS0_IT_EEPNS_9enable_ifIXsr14is_convertibleIS8_S4_EE5valueEvE4typeE, symObjAddr: 0xD78, symBinAddr: 0x10000E724, symSize: 0x3C }
  - { offsetInCU: 0x27DF7, offset: 0x4B2E4, size: 0x8, addend: 0x0, symName: __ZNSt3__111__wrap_iterIPP15JobWorkerThreadEppB7v160006Ev, symObjAddr: 0xDB4, symBinAddr: 0x10000E760, symSize: 0x20 }
  - { offsetInCU: 0x27E1D, offset: 0x4B30A, size: 0x8, addend: 0x0, symName: __ZN9JobSystem8queueJobEP3Job, symObjAddr: 0xDD4, symBinAddr: 0x10000E780, symSize: 0x94 }
  - { offsetInCU: 0x27E59, offset: 0x4B346, size: 0x8, addend: 0x0, symName: __ZNSt3__16vectorI15JobHistoryEntryNS_9allocatorIS1_EEE12emplace_backIJS1_EEERS1_DpOT_, symObjAddr: 0xE68, symBinAddr: 0x10000E814, symSize: 0x74 }
  - { offsetInCU: 0x27E9B, offset: 0x4B388, size: 0x8, addend: 0x0, symName: __ZN15JobHistoryEntryC1Ei9JobStatus, symObjAddr: 0xEDC, symBinAddr: 0x10000E888, symSize: 0x3C }
  - { offsetInCU: 0x27EE1, offset: 0x4B3CE, size: 0x8, addend: 0x0, symName: __ZNSt3__15dequeIP3JobNS_9allocatorIS2_EEE9push_backERKS2_, symObjAddr: 0xF18, symBinAddr: 0x10000E8C4, symSize: 0xA0 }
  - { offsetInCU: 0x27F27, offset: 0x4B414, size: 0x8, addend: 0x0, symName: __ZNK9JobSystem12getJobStatusEi, symObjAddr: 0xFB8, symBinAddr: 0x10000E964, symSize: 0x8C }
  - { offsetInCU: 0x27F6C, offset: 0x4B459, size: 0x8, addend: 0x0, symName: __ZNKSt3__16vectorI15JobHistoryEntryNS_9allocatorIS1_EEE4sizeB7v160006Ev, symObjAddr: 0x1044, symBinAddr: 0x10000E9F0, symSize: 0x28 }
  - { offsetInCU: 0x27F92, offset: 0x4B47F, size: 0x8, addend: 0x0, symName: __ZNKSt3__16vectorI15JobHistoryEntryNS_9allocatorIS1_EEEixB7v160006Em, symObjAddr: 0x106C, symBinAddr: 0x10000EA18, symSize: 0x24 }
  - { offsetInCU: 0x27FC9, offset: 0x4B4B6, size: 0x8, addend: 0x0, symName: __ZN9JobSystem8getJobIDEP3Job, symObjAddr: 0x1090, symBinAddr: 0x10000EA3C, symSize: 0x1C }
  - { offsetInCU: 0x27FFF, offset: 0x4B4EC, size: 0x8, addend: 0x0, symName: __ZNK9JobSystem13isJobCompleteEi, symObjAddr: 0x10AC, symBinAddr: 0x10000EA58, symSize: 0x38 }
  - { offsetInCU: 0x28035, offset: 0x4B522, size: 0x8, addend: 0x0, symName: __ZN9JobSystem19finishCompletedJobsEv, symObjAddr: 0x10E4, symBinAddr: 0x10000EA90, symSize: 0x178 }
  - { offsetInCU: 0x280C2, offset: 0x4B5AF, size: 0x8, addend: 0x0, symName: __ZNSt3__15dequeIP3JobNS_9allocatorIS2_EEE4swapERS5_, symObjAddr: 0x125C, symBinAddr: 0x10000EC08, symSize: 0x84 }
  - { offsetInCU: 0x280F9, offset: 0x4B5E6, size: 0x8, addend: 0x0, symName: __ZNSt3__15dequeIP3JobNS_9allocatorIS2_EEE5beginB7v160006Ev, symObjAddr: 0x12E0, symBinAddr: 0x10000EC8C, symSize: 0xB8 }
  - { offsetInCU: 0x2812E, offset: 0x4B61B, size: 0x8, addend: 0x0, symName: __ZNSt3__15dequeIP3JobNS_9allocatorIS2_EEE3endB7v160006Ev, symObjAddr: 0x1398, symBinAddr: 0x10000ED44, symSize: 0xBC }
  - { offsetInCU: 0x28172, offset: 0x4B65F, size: 0x8, addend: 0x0, symName: __ZNKSt3__116__deque_iteratorIP3JobPS2_RS2_PS3_lLl512EEdeB7v160006Ev, symObjAddr: 0x1488, symBinAddr: 0x10000EE34, symSize: 0x18 }
  - { offsetInCU: 0x28198, offset: 0x4B685, size: 0x8, addend: 0x0, symName: __ZNSt3__16vectorI15JobHistoryEntryNS_9allocatorIS1_EEEixB7v160006Em, symObjAddr: 0x14A0, symBinAddr: 0x10000EE4C, symSize: 0x24 }
  - { offsetInCU: 0x281CF, offset: 0x4B6BC, size: 0x8, addend: 0x0, symName: __ZNSt3__116__deque_iteratorIP3JobPS2_RS2_PS3_lLl512EEppB7v160006Ev, symObjAddr: 0x14C4, symBinAddr: 0x10000EE70, symSize: 0x70 }
  - { offsetInCU: 0x281F5, offset: 0x4B6E2, size: 0x8, addend: 0x0, symName: __ZN9JobSystem9finishJobEi, symObjAddr: 0x1534, symBinAddr: 0x10000EEE0, symSize: 0xDE8 }
  - { offsetInCU: 0x282C6, offset: 0x4B7B3, size: 0x8, addend: 0x0, symName: __ZNSt3__15dequeIP3JobNS_9allocatorIS2_EEE5eraseENS_16__deque_iteratorIS2_PKS2_RS7_PKS8_lLl512EEE, symObjAddr: 0x23E8, symBinAddr: 0x10000FCC8, symSize: 0x260 }
  - { offsetInCU: 0x28362, offset: 0x4B84F, size: 0x8, addend: 0x0, symName: __ZNSt3__116__deque_iteratorIP3JobPKS2_RS3_PKS4_lLl512EEC1B7v160006IPS2_RS2_PSA_EERKNS0_IS2_T_T0_T1_lLl512EEEPNS_9enable_ifIXsr14is_convertibleISD_S4_EE5valueEvE4typeE, symObjAddr: 0x2648, symBinAddr: 0x10000FF28, symSize: 0x3C }
  - { offsetInCU: 0x283C1, offset: 0x4B8AE, size: 0x8, addend: 0x0, symName: __ZN9JobSystem14isTypeInSystemENSt3__112basic_stringIcNS0_11char_traitsIcEENS0_9allocatorIcEEEE, symObjAddr: 0x2764, symBinAddr: 0x10000FFCC, symSize: 0xBC }
  - { offsetInCU: 0x28440, offset: 0x4B92D, size: 0x8, addend: 0x0, symName: __ZN8nlohmann16json_abi_v3_11_26detail8json_refINS0_10basic_jsonINSt3__13mapENS4_6vectorENS4_12basic_stringIcNS4_11char_traitsIcEENS4_9allocatorIcEEEEbxydSA_NS0_14adl_serializerENS6_IhNSA_IhEEEEvEEEC1IJRA11_KcELi0EEEDpOT_, symObjAddr: 0x284C, symBinAddr: 0x100010088, symSize: 0x34 }
  - { offsetInCU: 0x2848A, offset: 0x4B977, size: 0x8, addend: 0x0, symName: __ZN8nlohmann16json_abi_v3_11_26detail8json_refINS0_10basic_jsonINSt3__13mapENS4_6vectorENS4_12basic_stringIcNS4_11char_traitsIcEENS4_9allocatorIcEEEEbxydSA_NS0_14adl_serializerENS6_IhNSA_IhEEEEvEEEC1IJRSG_ELi0EEEDpOT_, symObjAddr: 0x2880, symBinAddr: 0x1000100BC, symSize: 0x34 }
  - { offsetInCU: 0x284D4, offset: 0x4B9C1, size: 0x8, addend: 0x0, symName: __ZN8nlohmann16json_abi_v3_11_26detail8json_refINS0_10basic_jsonINSt3__13mapENS4_6vectorENS4_12basic_stringIcNS4_11char_traitsIcEENS4_9allocatorIcEEEEbxydSA_NS0_14adl_serializerENS6_IhNSA_IhEEEEvEEED1Ev, symObjAddr: 0x28B4, symBinAddr: 0x1000100F0, symSize: 0x2C }
  - { offsetInCU: 0x284FE, offset: 0x4B9EB, size: 0x8, addend: 0x0, symName: __ZN8nlohmann16json_abi_v3_11_26detail8json_refINS0_10basic_jsonINSt3__13mapENS4_6vectorENS4_12basic_stringIcNS4_11char_traitsIcEENS4_9allocatorIcEEEEbxydSA_NS0_14adl_serializerENS6_IhNSA_IhEEEEvEEEC1ESt16initializer_listISH_E, symObjAddr: 0x28E0, symBinAddr: 0x10001011C, symSize: 0x3C }
  - { offsetInCU: 0x28550, offset: 0x4BA3D, size: 0x8, addend: 0x0, symName: __ZN8nlohmann16json_abi_v3_11_26detail8json_refINS0_10basic_jsonINSt3__13mapENS4_6vectorENS4_12basic_stringIcNS4_11char_traitsIcEENS4_9allocatorIcEEEEbxydSA_NS0_14adl_serializerENS6_IhNSA_IhEEEEvEEEC1IJRA10_KcELi0EEEDpOT_, symObjAddr: 0x291C, symBinAddr: 0x100010158, symSize: 0x34 }
  - { offsetInCU: 0x285B3, offset: 0x4BAA0, size: 0x8, addend: 0x0, symName: __ZN8nlohmann16json_abi_v3_11_26detail8json_refINS0_10basic_jsonINSt3__13mapENS4_6vectorENS4_12basic_stringIcNS4_11char_traitsIcEENS4_9allocatorIcEEEEbxydSA_NS0_14adl_serializerENS6_IhNSA_IhEEEEvEEEC1IJRA7_KcELi0EEEDpOT_, symObjAddr: 0x2950, symBinAddr: 0x10001018C, symSize: 0x34 }
  - { offsetInCU: 0x28616, offset: 0x4BB03, size: 0x8, addend: 0x0, symName: __ZN8nlohmann16json_abi_v3_11_26detail8json_refINS0_10basic_jsonINSt3__13mapENS4_6vectorENS4_12basic_stringIcNS4_11char_traitsIcEENS4_9allocatorIcEEEEbxydSA_NS0_14adl_serializerENS6_IhNSA_IhEEEEvEEEC1IJRA1_KcELi0EEEDpOT_, symObjAddr: 0x2984, symBinAddr: 0x1000101C0, symSize: 0x34 }
  - { offsetInCU: 0x28679, offset: 0x4BB66, size: 0x8, addend: 0x0, symName: __ZN8nlohmann16json_abi_v3_11_26detail8json_refINS0_10basic_jsonINSt3__13mapENS4_6vectorENS4_12basic_stringIcNS4_11char_traitsIcEENS4_9allocatorIcEEEEbxydSA_NS0_14adl_serializerENS6_IhNSA_IhEEEEvEEEC1IJRA16_KcELi0EEEDpOT_, symObjAddr: 0x29B8, symBinAddr: 0x1000101F4, symSize: 0x34 }
  - { offsetInCU: 0x286DC, offset: 0x4BBC9, size: 0x8, addend: 0x0, symName: __ZN8nlohmann16json_abi_v3_11_26detail8json_refINS0_10basic_jsonINSt3__13mapENS4_6vectorENS4_12basic_stringIcNS4_11char_traitsIcEENS4_9allocatorIcEEEEbxydSA_NS0_14adl_serializerENS6_IhNSA_IhEEEEvEEEC1IJRA6_KcELi0EEEDpOT_, symObjAddr: 0x29EC, symBinAddr: 0x100010228, symSize: 0x34 }
  - { offsetInCU: 0x2873F, offset: 0x4BC2C, size: 0x8, addend: 0x0, symName: __ZN8nlohmann16json_abi_v3_11_26detail8json_refINS0_10basic_jsonINSt3__13mapENS4_6vectorENS4_12basic_stringIcNS4_11char_traitsIcEENS4_9allocatorIcEEEEbxydSA_NS0_14adl_serializerENS6_IhNSA_IhEEEEvEEEC1IJRA13_KcELi0EEEDpOT_, symObjAddr: 0x2A20, symBinAddr: 0x10001025C, symSize: 0x34 }
  - { offsetInCU: 0x287A2, offset: 0x4BC8F, size: 0x8, addend: 0x0, symName: __ZN8nlohmann16json_abi_v3_11_26detail8json_refINS0_10basic_jsonINSt3__13mapENS4_6vectorENS4_12basic_stringIcNS4_11char_traitsIcEENS4_9allocatorIcEEEEbxydSA_NS0_14adl_serializerENS6_IhNSA_IhEEEEvEEEC1IJRA12_KcELi0EEEDpOT_, symObjAddr: 0x2A54, symBinAddr: 0x100010290, symSize: 0x34 }
  - { offsetInCU: 0x287EC, offset: 0x4BCD9, size: 0x8, addend: 0x0, symName: __ZN8nlohmann16json_abi_v3_11_210basic_jsonINSt3__13mapENS2_6vectorENS2_12basic_stringIcNS2_11char_traitsIcEENS2_9allocatorIcEEEEbxydS8_NS0_14adl_serializerENS4_IhNS8_IhEEEEvEC1ESt16initializer_listINS0_6detail8json_refISE_EEEbNSG_7value_tE, symObjAddr: 0x2A88, symBinAddr: 0x1000102C4, symSize: 0x58 }
  - { offsetInCU: 0x28843, offset: 0x4BD30, size: 0x8, addend: 0x0, symName: __ZN9JobSystem17createJobInstanceERN8nlohmann16json_abi_v3_11_210basic_jsonINSt3__13mapENS3_6vectorENS3_12basic_stringIcNS3_11char_traitsIcEENS3_9allocatorIcEEEEbxydS9_NS1_14adl_serializerENS5_IhNS9_IhEEEEvEE, symObjAddr: 0x2AE0, symBinAddr: 0x10001031C, symSize: 0x330 }
  - { offsetInCU: 0x288D6, offset: 0x4BDC3, size: 0x8, addend: 0x0, symName: __ZN9JobSystem14onJobCompletedEP3Job, symObjAddr: 0x2E3C, symBinAddr: 0x10001064C, symSize: 0x158 }
  - { offsetInCU: 0x2891B, offset: 0x4BE08, size: 0x8, addend: 0x0, symName: __ZN9JobSystem8claimJobEm, symObjAddr: 0x2F94, symBinAddr: 0x1000107A4, symSize: 0x16C }
  - { offsetInCU: 0x2898E, offset: 0x4BE7B, size: 0x8, addend: 0x0, symName: __ZN9JobSystem14getAllJobTypesEv, symObjAddr: 0x3100, symBinAddr: 0x100010910, symSize: 0x1A0 }
  - { offsetInCU: 0x289E5, offset: 0x4BED2, size: 0x8, addend: 0x0, symName: __ZNSt3__16vectorINS_12basic_stringIcNS_11char_traitsIcEENS_9allocatorIcEEEENS4_IS6_EEEC1B7v160006Ev, symObjAddr: 0x32A0, symBinAddr: 0x100010AB0, symSize: 0x2C }
  - { offsetInCU: 0x28A0F, offset: 0x4BEFC, size: 0x8, addend: 0x0, symName: __ZNKSt3__16vectorINS_12basic_stringIcNS_11char_traitsIcEENS_9allocatorIcEEEENS4_IS6_EEE4sizeB7v160006Ev, symObjAddr: 0x32CC, symBinAddr: 0x100010ADC, symSize: 0x28 }
  - { offsetInCU: 0x28A35, offset: 0x4BF22, size: 0x8, addend: 0x0, symName: __ZNSt3__16vectorINS_12basic_stringIcNS_11char_traitsIcEENS_9allocatorIcEEEENS4_IS6_EEEixB7v160006Em, symObjAddr: 0x3340, symBinAddr: 0x100010B50, symSize: 0x2C }
  - { offsetInCU: 0x28A6C, offset: 0x4BF59, size: 0x8, addend: 0x0, symName: __ZNSt3__16vectorINS_12basic_stringIcNS_11char_traitsIcEENS_9allocatorIcEEEENS4_IS6_EEE9push_backB7v160006ERKS6_, symObjAddr: 0x336C, symBinAddr: 0x100010B7C, symSize: 0x6C }
  - { offsetInCU: 0x28AA3, offset: 0x4BF90, size: 0x8, addend: 0x0, symName: __ZN9JobSystem15registerJobTypeENSt3__112basic_stringIcNS0_11char_traitsIcEENS0_9allocatorIcEEEENS0_8functionIFvRN8nlohmann16json_abi_v3_11_210basic_jsonINS0_3mapENS0_6vectorES6_bxydS4_NS9_14adl_serializerENSC_IhNS4_IhEEEEvEEEEE, symObjAddr: 0x33D8, symBinAddr: 0x100010BE8, symSize: 0x70 }
  - { offsetInCU: 0x28AEC, offset: 0x4BFD9, size: 0x8, addend: 0x0, symName: __ZNSt3__113unordered_mapINS_12basic_stringIcNS_11char_traitsIcEENS_9allocatorIcEEEENS_8functionIFvRN8nlohmann16json_abi_v3_11_210basic_jsonINS_3mapENS_6vectorES6_bxydS4_NS9_14adl_serializerENSC_IhNS4_IhEEEEvEEEEENS_4hashIS6_EENS_8equal_toIS6_EENS4_INS_4pairIKS6_SJ_EEEEEixERSP_, symObjAddr: 0x3448, symBinAddr: 0x100010C58, symSize: 0x80 }
  - { offsetInCU: 0x28B23, offset: 0x4C010, size: 0x8, addend: 0x0, symName: __ZN9CustomJobC1ERN8nlohmann16json_abi_v3_11_210basic_jsonINSt3__13mapENS3_6vectorENS3_12basic_stringIcNS3_11char_traitsIcEENS3_9allocatorIcEEEEbxydS9_NS1_14adl_serializerENS5_IhNS9_IhEEEEvEE, symObjAddr: 0x354C, symBinAddr: 0x100010CD8, symSize: 0x34 }
  - { offsetInCU: 0x28B5B, offset: 0x4C048, size: 0x8, addend: 0x0, symName: __ZNSt3__113unordered_mapINS_12basic_stringIcNS_11char_traitsIcEENS_9allocatorIcEEEENS_8functionIFvRN8nlohmann16json_abi_v3_11_210basic_jsonINS_3mapENS_6vectorES6_bxydS4_NS9_14adl_serializerENSC_IhNS4_IhEEEEvEEEEENS_4hashIS6_EENS_8equal_toIS6_EENS4_INS_4pairIKS6_SJ_EEEEE4findB7v160006ERSP_, symObjAddr: 0x3580, symBinAddr: 0x100010D0C, symSize: 0x40 }
  - { offsetInCU: 0x28B90, offset: 0x4C07D, size: 0x8, addend: 0x0, symName: __ZNSt3__113unordered_mapINS_12basic_stringIcNS_11char_traitsIcEENS_9allocatorIcEEEENS_8functionIFvRN8nlohmann16json_abi_v3_11_210basic_jsonINS_3mapENS_6vectorES6_bxydS4_NS9_14adl_serializerENSC_IhNS4_IhEEEEvEEEEENS_4hashIS6_EENS_8equal_toIS6_EENS4_INS_4pairIKS6_SJ_EEEEE3endB7v160006Ev, symObjAddr: 0x35F0, symBinAddr: 0x100010D7C, symSize: 0x38 }
  - { offsetInCU: 0x28BB6, offset: 0x4C0A3, size: 0x8, addend: 0x0, symName: __ZNKSt3__119__hash_map_iteratorINS_15__hash_iteratorIPNS_11__hash_nodeINS_17__hash_value_typeINS_12basic_stringIcNS_11char_traitsIcEENS_9allocatorIcEEEENS_8functionIFvRN8nlohmann16json_abi_v3_11_210basic_jsonINS_3mapENS_6vectorES9_bxydS7_NSC_14adl_serializerENSF_IhNS7_IhEEEEvEEEEEEEPvEEEEEptB7v160006Ev, symObjAddr: 0x3628, symBinAddr: 0x100010DB4, symSize: 0x2C }
  - { offsetInCU: 0x28BDC, offset: 0x4C0C9, size: 0x8, addend: 0x0, symName: __ZNK3Job11getUniqueIDEv, symObjAddr: 0x3654, symBinAddr: 0x100010DE0, symSize: 0x18 }
  - { offsetInCU: 0x28C3A, offset: 0x4C127, size: 0x8, addend: 0x0, symName: __ZN8nlohmann16json_abi_v3_11_26detail11parse_errorC1ERKS2_, symObjAddr: 0x366C, symBinAddr: 0x100010DF8, symSize: 0x34 }
  - { offsetInCU: 0x28C70, offset: 0x4C15D, size: 0x8, addend: 0x0, symName: __ZN8nlohmann16json_abi_v3_11_26detail11parse_errorD1Ev, symObjAddr: 0x36A0, symBinAddr: 0x100010E2C, symSize: 0x2C }
  - { offsetInCU: 0x28C9D, offset: 0x4C18A, size: 0x8, addend: 0x0, symName: __ZN9JobSystem9createJobERN8nlohmann16json_abi_v3_11_210basic_jsonINSt3__13mapENS3_6vectorENS3_12basic_stringIcNS3_11char_traitsIcEENS3_9allocatorIcEEEEbxydS9_NS1_14adl_serializerENS5_IhNS9_IhEEEEvEE, symObjAddr: 0x36CC, symBinAddr: 0x100010E58, symSize: 0x304 }
  - { offsetInCU: 0x28D30, offset: 0x4C21D, size: 0x8, addend: 0x0, symName: __ZN9JobSystem10destroyJobEi, symObjAddr: 0x3B18, symBinAddr: 0x1000112A4, symSize: 0x2BC }
  - { offsetInCU: 0x28DF1, offset: 0x4C2DE, size: 0x8, addend: 0x0, symName: __ZNSt3__116__deque_iteratorIP3JobPS2_RS2_PS3_lLl512EEppB7v160006Ei, symObjAddr: 0x3DD4, symBinAddr: 0x100011560, symSize: 0x38 }
  - { offsetInCU: 0x28E31, offset: 0x4C31E, size: 0x8, addend: 0x0, symName: __ZNSt3__15mutexC2B7v160006Ev, symObjAddr: 0x3E0C, symBinAddr: 0x100011598, symSize: 0x44 }
  - { offsetInCU: 0x28E5B, offset: 0x4C348, size: 0x8, addend: 0x0, symName: __ZNKSt3__111__wrap_iterIPP15JobWorkerThreadE4baseB7v160006Ev, symObjAddr: 0x3E98, symBinAddr: 0x100011624, symSize: 0x18 }
  - { offsetInCU: 0x28E81, offset: 0x4C36E, size: 0x8, addend: 0x0, symName: __ZNSt3__111__wrap_iterIPKP15JobWorkerThreadEC2B7v160006IPS2_EERKNS0_IT_EEPNS_9enable_ifIXsr14is_convertibleIS8_S4_EE5valueEvE4typeE, symObjAddr: 0x3EB0, symBinAddr: 0x10001163C, symSize: 0x40 }
  - { offsetInCU: 0x28ECD, offset: 0x4C3BA, size: 0x8, addend: 0x0, symName: __ZN15JobHistoryEntryC2Ei9JobStatus, symObjAddr: 0x3EF0, symBinAddr: 0x10001167C, symSize: 0x2C }
  - { offsetInCU: 0x28F13, offset: 0x4C400, size: 0x8, addend: 0x0, symName: __ZN8nlohmann16json_abi_v3_11_26detail8json_refINS0_10basic_jsonINSt3__13mapENS4_6vectorENS4_12basic_stringIcNS4_11char_traitsIcEENS4_9allocatorIcEEEEbxydSA_NS0_14adl_serializerENS6_IhNSA_IhEEEEvEEED2Ev, symObjAddr: 0x3F1C, symBinAddr: 0x1000116A8, symSize: 0x2C }
  - { offsetInCU: 0x28F3D, offset: 0x4C42A, size: 0x8, addend: 0x0, symName: __ZN9CustomJobC2ERN8nlohmann16json_abi_v3_11_210basic_jsonINSt3__13mapENS3_6vectorENS3_12basic_stringIcNS3_11char_traitsIcEENS3_9allocatorIcEEEEbxydS9_NS1_14adl_serializerENS5_IhNS9_IhEEEEvEE, symObjAddr: 0x3F48, symBinAddr: 0x1000116D4, symSize: 0x58 }
  - { offsetInCU: 0x28F75, offset: 0x4C462, size: 0x8, addend: 0x0, symName: __ZNSt3__18functionIFvRN8nlohmann16json_abi_v3_11_210basic_jsonINS_3mapENS_6vectorENS_12basic_stringIcNS_11char_traitsIcEENS_9allocatorIcEEEEbxydS9_NS2_14adl_serializerENS5_IhNS9_IhEEEEvEEEEC1B7v160006Ev, symObjAddr: 0x40E4, symBinAddr: 0x100011870, symSize: 0x2C }
  - { offsetInCU: 0x28F9F, offset: 0x4C48C, size: 0x8, addend: 0x0, symName: __ZNSt3__13mapINS_12basic_stringIcNS_11char_traitsIcEENS_9allocatorIcEEEENS_6vectorI5ErrorNS4_IS8_EEEENS_4lessIS6_EENS4_INS_4pairIKS6_SA_EEEEEC1B7v160006Ev, symObjAddr: 0x4110, symBinAddr: 0x10001189C, symSize: 0x2C }
  - { offsetInCU: 0x28FC9, offset: 0x4C4B6, size: 0x8, addend: 0x0, symName: __ZN8nlohmann16json_abi_v3_11_210basic_jsonINSt3__13mapENS2_6vectorENS2_12basic_stringIcNS2_11char_traitsIcEENS2_9allocatorIcEEEEbxydS8_NS0_14adl_serializerENS4_IhNS8_IhEEEEvEC1ERKSE_, symObjAddr: 0x413C, symBinAddr: 0x1000118C8, symSize: 0x34 }
  - { offsetInCU: 0x29002, offset: 0x4C4EF, size: 0x8, addend: 0x0, symName: __ZNSt3__112basic_stringIcNS_11char_traitsIcEENS_9allocatorIcEEEaSB7v160006EOS5_, symObjAddr: 0x419C, symBinAddr: 0x1000118FC, symSize: 0x34 }
  - { offsetInCU: 0x29037, offset: 0x4C524, size: 0x8, addend: 0x0, symName: __ZNSt3__13mapINS_12basic_stringIcNS_11char_traitsIcEENS_9allocatorIcEEEENS_6vectorI5ErrorNS4_IS8_EEEENS_4lessIS6_EENS4_INS_4pairIKS6_SA_EEEEEC2B7v160006Ev, symObjAddr: 0x422C, symBinAddr: 0x100011930, symSize: 0x40 }
  - { offsetInCU: 0x29061, offset: 0x4C54E, size: 0x8, addend: 0x0, symName: __ZNSt3__119__map_value_compareINS_12basic_stringIcNS_11char_traitsIcEENS_9allocatorIcEEEENS_12__value_typeIS6_NS_6vectorI5ErrorNS4_IS9_EEEEEENS_4lessIS6_EELb1EEC1B7v160006ESE_, symObjAddr: 0x426C, symBinAddr: 0x100011970, symSize: 0x2C }
  - { offsetInCU: 0x2909A, offset: 0x4C587, size: 0x8, addend: 0x0, symName: __ZNSt3__16__treeINS_12__value_typeINS_12basic_stringIcNS_11char_traitsIcEENS_9allocatorIcEEEENS_6vectorI5ErrorNS5_IS9_EEEEEENS_19__map_value_compareIS7_SC_NS_4lessIS7_EELb1EEENS5_ISC_EEEC1ERKSG_, symObjAddr: 0x4298, symBinAddr: 0x10001199C, symSize: 0x34 }
  - { offsetInCU: 0x290D5, offset: 0x4C5C2, size: 0x8, addend: 0x0, symName: __ZNSt3__119__map_value_compareINS_12basic_stringIcNS_11char_traitsIcEENS_9allocatorIcEEEENS_12__value_typeIS6_NS_6vectorI5ErrorNS4_IS9_EEEEEENS_4lessIS6_EELb1EEC2B7v160006ESE_, symObjAddr: 0x42CC, symBinAddr: 0x1000119D0, symSize: 0x14 }
  - { offsetInCU: 0x2910E, offset: 0x4C5FB, size: 0x8, addend: 0x0, symName: __ZNSt3__16__treeINS_12__value_typeINS_12basic_stringIcNS_11char_traitsIcEENS_9allocatorIcEEEENS_6vectorI5ErrorNS5_IS9_EEEEEENS_19__map_value_compareIS7_SC_NS_4lessIS7_EELb1EEENS5_ISC_EEEC2ERKSG_, symObjAddr: 0x42E0, symBinAddr: 0x1000119E4, symSize: 0x7C }
  - { offsetInCU: 0x29149, offset: 0x4C636, size: 0x8, addend: 0x0, symName: __ZNSt3__117__compressed_pairINS_15__tree_end_nodeIPNS_16__tree_node_baseIPvEEEENS_9allocatorINS_11__tree_nodeINS_12__value_typeINS_12basic_stringIcNS_11char_traitsIcEENS7_IcEEEENS_6vectorI5ErrorNS7_ISG_EEEEEES3_EEEEEC1B7v160006ILb1EvEEv, symObjAddr: 0x435C, symBinAddr: 0x100011A60, symSize: 0x2C }
  - { offsetInCU: 0x2917E, offset: 0x4C66B, size: 0x8, addend: 0x0, symName: __ZNSt3__117__compressed_pairImNS_19__map_value_compareINS_12basic_stringIcNS_11char_traitsIcEENS_9allocatorIcEEEENS_12__value_typeIS7_NS_6vectorI5ErrorNS5_ISA_EEEEEENS_4lessIS7_EELb1EEEEC1B7v160006IiRKSG_EEOT_OT0_, symObjAddr: 0x4388, symBinAddr: 0x100011A8C, symSize: 0x3C }
  - { offsetInCU: 0x291D6, offset: 0x4C6C3, size: 0x8, addend: 0x0, symName: __ZNSt3__16__treeINS_12__value_typeINS_12basic_stringIcNS_11char_traitsIcEENS_9allocatorIcEEEENS_6vectorI5ErrorNS5_IS9_EEEEEENS_19__map_value_compareIS7_SC_NS_4lessIS7_EELb1EEENS5_ISC_EEE10__end_nodeB7v160006Ev, symObjAddr: 0x43C4, symBinAddr: 0x100011AC8, symSize: 0x2C }
  - { offsetInCU: 0x291FC, offset: 0x4C6E9, size: 0x8, addend: 0x0, symName: __ZNSt3__16__treeINS_12__value_typeINS_12basic_stringIcNS_11char_traitsIcEENS_9allocatorIcEEEENS_6vectorI5ErrorNS5_IS9_EEEEEENS_19__map_value_compareIS7_SC_NS_4lessIS7_EELb1EEENS5_ISC_EEE12__begin_nodeB7v160006Ev, symObjAddr: 0x43F0, symBinAddr: 0x100011AF4, symSize: 0x14 }
  - { offsetInCU: 0x29222, offset: 0x4C70F, size: 0x8, addend: 0x0, symName: __ZNSt3__117__compressed_pairINS_15__tree_end_nodeIPNS_16__tree_node_baseIPvEEEENS_9allocatorINS_11__tree_nodeINS_12__value_typeINS_12basic_stringIcNS_11char_traitsIcEENS7_IcEEEENS_6vectorI5ErrorNS7_ISG_EEEEEES3_EEEEEC2B7v160006ILb1EvEEv, symObjAddr: 0x4404, symBinAddr: 0x100011B08, symSize: 0x34 }
  - { offsetInCU: 0x29257, offset: 0x4C744, size: 0x8, addend: 0x0, symName: __ZNSt3__122__compressed_pair_elemINS_9allocatorINS_11__tree_nodeINS_12__value_typeINS_12basic_stringIcNS_11char_traitsIcEENS1_IcEEEENS_6vectorI5ErrorNS1_ISA_EEEEEEPvEEEELi1ELb1EEC2B7v160006ENS_16__value_init_tagE, symObjAddr: 0x4464, symBinAddr: 0x100011B3C, symSize: 0x2C }
  - { offsetInCU: 0x2928C, offset: 0x4C779, size: 0x8, addend: 0x0, symName: __ZNSt3__19allocatorINS_11__tree_nodeINS_12__value_typeINS_12basic_stringIcNS_11char_traitsIcEENS0_IcEEEENS_6vectorI5ErrorNS0_IS9_EEEEEEPvEEEC2B7v160006Ev, symObjAddr: 0x44D4, symBinAddr: 0x100011B68, symSize: 0x2C }
  - { offsetInCU: 0x292B6, offset: 0x4C7A3, size: 0x8, addend: 0x0, symName: __ZNSt3__116__non_trivial_ifILb1ENS_9allocatorINS_11__tree_nodeINS_12__value_typeINS_12basic_stringIcNS_11char_traitsIcEENS1_IcEEEENS_6vectorI5ErrorNS1_ISA_EEEEEEPvEEEEEC2B7v160006Ev, symObjAddr: 0x4500, symBinAddr: 0x100011B94, symSize: 0x14 }
  - { offsetInCU: 0x292E0, offset: 0x4C7CD, size: 0x8, addend: 0x0, symName: __ZNSt3__117__compressed_pairImNS_19__map_value_compareINS_12basic_stringIcNS_11char_traitsIcEENS_9allocatorIcEEEENS_12__value_typeIS7_NS_6vectorI5ErrorNS5_ISA_EEEEEENS_4lessIS7_EELb1EEEEC2B7v160006IiRKSG_EEOT_OT0_, symObjAddr: 0x4514, symBinAddr: 0x100011BA8, symSize: 0x44 }
  - { offsetInCU: 0x29338, offset: 0x4C825, size: 0x8, addend: 0x0, symName: __ZNSt3__122__compressed_pair_elemINS_19__map_value_compareINS_12basic_stringIcNS_11char_traitsIcEENS_9allocatorIcEEEENS_12__value_typeIS7_NS_6vectorI5ErrorNS5_ISA_EEEEEENS_4lessIS7_EELb1EEELi1ELb1EEC2B7v160006IRKSG_vEEOT_, symObjAddr: 0x457C, symBinAddr: 0x100011BEC, symSize: 0x18 }
  - { offsetInCU: 0x2937A, offset: 0x4C867, size: 0x8, addend: 0x0, symName: __ZNSt3__117__compressed_pairINS_15__tree_end_nodeIPNS_16__tree_node_baseIPvEEEENS_9allocatorINS_11__tree_nodeINS_12__value_typeINS_12basic_stringIcNS_11char_traitsIcEENS7_IcEEEENS_6vectorI5ErrorNS7_ISG_EEEEEES3_EEEEE5firstB7v160006Ev, symObjAddr: 0x45A8, symBinAddr: 0x100011C04, symSize: 0x24 }
  - { offsetInCU: 0x293A0, offset: 0x4C88D, size: 0x8, addend: 0x0, symName: __ZN8nlohmann16json_abi_v3_11_210basic_jsonINSt3__13mapENS2_6vectorENS2_12basic_stringIcNS2_11char_traitsIcEENS2_9allocatorIcEEEEbxydS8_NS0_14adl_serializerENS4_IhNS8_IhEEEEvEC2ERKSE_, symObjAddr: 0x45E0, symBinAddr: 0x100011C28, symSize: 0x1FC }
  - { offsetInCU: 0x293D9, offset: 0x4C8C6, size: 0x8, addend: 0x0, symName: __ZN8nlohmann16json_abi_v3_11_210basic_jsonINSt3__13mapENS2_6vectorENS2_12basic_stringIcNS2_11char_traitsIcEENS2_9allocatorIcEEEEbxydS8_NS0_14adl_serializerENS4_IhNS8_IhEEEEvE4dataC1Ev, symObjAddr: 0x4804, symBinAddr: 0x100011E4C, symSize: 0x2C }
  - { offsetInCU: 0x29403, offset: 0x4C8F0, size: 0x8, addend: 0x0, symName: __ZN8nlohmann16json_abi_v3_11_210basic_jsonINSt3__13mapENS2_6vectorENS2_12basic_stringIcNS2_11char_traitsIcEENS2_9allocatorIcEEEEbxydS8_NS0_14adl_serializerENS4_IhNS8_IhEEEEvE10json_valueC1ERKNS3_ISA_SE_NS2_4lessIvEENS8_INS2_4pairIKSA_SE_EEEEEE, symObjAddr: 0x4A20, symBinAddr: 0x100011E78, symSize: 0x34 }
  - { offsetInCU: 0x2943C, offset: 0x4C929, size: 0x8, addend: 0x0, symName: __ZN8nlohmann16json_abi_v3_11_210basic_jsonINSt3__13mapENS2_6vectorENS2_12basic_stringIcNS2_11char_traitsIcEENS2_9allocatorIcEEEEbxydS8_NS0_14adl_serializerENS4_IhNS8_IhEEEEvE10json_valueC1ERKNS4_ISE_NS8_ISE_EEEE, symObjAddr: 0x4A54, symBinAddr: 0x100011EAC, symSize: 0x34 }
  - { offsetInCU: 0x29475, offset: 0x4C962, size: 0x8, addend: 0x0, symName: __ZN8nlohmann16json_abi_v3_11_210basic_jsonINSt3__13mapENS2_6vectorENS2_12basic_stringIcNS2_11char_traitsIcEENS2_9allocatorIcEEEEbxydS8_NS0_14adl_serializerENS4_IhNS8_IhEEEEvE10json_valueC1ERKSA_, symObjAddr: 0x4A88, symBinAddr: 0x100011EE0, symSize: 0x34 }
  - { offsetInCU: 0x294AE, offset: 0x4C99B, size: 0x8, addend: 0x0, symName: __ZN8nlohmann16json_abi_v3_11_210basic_jsonINSt3__13mapENS2_6vectorENS2_12basic_stringIcNS2_11char_traitsIcEENS2_9allocatorIcEEEEbxydS8_NS0_14adl_serializerENS4_IhNS8_IhEEEEvE10json_valueC1Eb, symObjAddr: 0x4ABC, symBinAddr: 0x100011F14, symSize: 0x40 }
  - { offsetInCU: 0x294E7, offset: 0x4C9D4, size: 0x8, addend: 0x0, symName: __ZN8nlohmann16json_abi_v3_11_210basic_jsonINSt3__13mapENS2_6vectorENS2_12basic_stringIcNS2_11char_traitsIcEENS2_9allocatorIcEEEEbxydS8_NS0_14adl_serializerENS4_IhNS8_IhEEEEvE10json_valueC1Ex, symObjAddr: 0x4AFC, symBinAddr: 0x100011F54, symSize: 0x34 }
  - { offsetInCU: 0x29520, offset: 0x4CA0D, size: 0x8, addend: 0x0, symName: __ZN8nlohmann16json_abi_v3_11_210basic_jsonINSt3__13mapENS2_6vectorENS2_12basic_stringIcNS2_11char_traitsIcEENS2_9allocatorIcEEEEbxydS8_NS0_14adl_serializerENS4_IhNS8_IhEEEEvE10json_valueC1Ey, symObjAddr: 0x4B30, symBinAddr: 0x100011F88, symSize: 0x34 }
  - { offsetInCU: 0x29559, offset: 0x4CA46, size: 0x8, addend: 0x0, symName: __ZN8nlohmann16json_abi_v3_11_210basic_jsonINSt3__13mapENS2_6vectorENS2_12basic_stringIcNS2_11char_traitsIcEENS2_9allocatorIcEEEEbxydS8_NS0_14adl_serializerENS4_IhNS8_IhEEEEvE10json_valueC1Ed, symObjAddr: 0x4B64, symBinAddr: 0x100011FBC, symSize: 0x34 }
  - { offsetInCU: 0x29592, offset: 0x4CA7F, size: 0x8, addend: 0x0, symName: __ZN8nlohmann16json_abi_v3_11_210basic_jsonINSt3__13mapENS2_6vectorENS2_12basic_stringIcNS2_11char_traitsIcEENS2_9allocatorIcEEEEbxydS8_NS0_14adl_serializerENS4_IhNS8_IhEEEEvE10json_valueC1ERKNS0_27byte_container_with_subtypeISD_EE, symObjAddr: 0x4B98, symBinAddr: 0x100011FF0, symSize: 0x34 }
  - { offsetInCU: 0x295CB, offset: 0x4CAB8, size: 0x8, addend: 0x0, symName: __ZN8nlohmann16json_abi_v3_11_210basic_jsonINSt3__13mapENS2_6vectorENS2_12basic_stringIcNS2_11char_traitsIcEENS2_9allocatorIcEEEEbxydS8_NS0_14adl_serializerENS4_IhNS8_IhEEEEvE4dataC2Ev, symObjAddr: 0x4C08, symBinAddr: 0x100012024, symSize: 0x1C }
  - { offsetInCU: 0x295F5, offset: 0x4CAE2, size: 0x8, addend: 0x0, symName: __ZN8nlohmann16json_abi_v3_11_210basic_jsonINSt3__13mapENS2_6vectorENS2_12basic_stringIcNS2_11char_traitsIcEENS2_9allocatorIcEEEEbxydS8_NS0_14adl_serializerENS4_IhNS8_IhEEEEvE10json_valueC2ERKNS3_ISA_SE_NS2_4lessIvEENS8_INS2_4pairIKSA_SE_EEEEEE, symObjAddr: 0x4C24, symBinAddr: 0x100012040, symSize: 0x3C }
  - { offsetInCU: 0x2962E, offset: 0x4CB1B, size: 0x8, addend: 0x0, symName: __ZN8nlohmann16json_abi_v3_11_210basic_jsonINSt3__13mapENS2_6vectorENS2_12basic_stringIcNS2_11char_traitsIcEENS2_9allocatorIcEEEEbxydS8_NS0_14adl_serializerENS4_IhNS8_IhEEEEvE6createINS3_ISA_SE_NS2_4lessIvEENS8_INS2_4pairIKSA_SE_EEEEEEJRKSM_EEEPT_DpOT0_, symObjAddr: 0x4C60, symBinAddr: 0x10001207C, symSize: 0xF4 }
  - { offsetInCU: 0x2977A, offset: 0x4CC67, size: 0x8, addend: 0x0, symName: __ZNSt3__110unique_ptrINS_3mapINS_12basic_stringIcNS_11char_traitsIcEENS_9allocatorIcEEEEN8nlohmann16json_abi_v3_11_210basic_jsonIS1_NS_6vectorES7_bxydS5_NS9_14adl_serializerENSB_IhNS5_IhEEEEvEENS_4lessIvEENS5_INS_4pairIKS7_SF_EEEEEEZNSF_6createISM_JRKSM_EEEPT_DpOT0_EUlPSM_E_EC1B7v160006ILb1EvEESV_NS_16__dependent_typeINS_27__unique_ptr_deleter_sfinaeISW_EEXT_EE15__lval_ref_typeE, symObjAddr: 0x4DAC, symBinAddr: 0x100012170, symSize: 0x3C }
  - { offsetInCU: 0x297CB, offset: 0x4CCB8, size: 0x8, addend: 0x0, symName: __ZNSt3__116allocator_traitsINS_9allocatorINS_3mapINS_12basic_stringIcNS_11char_traitsIcEENS1_IcEEEEN8nlohmann16json_abi_v3_11_210basic_jsonIS2_NS_6vectorES7_bxydS1_NS9_14adl_serializerENSB_IhNS1_IhEEEEvEENS_4lessIvEENS1_INS_4pairIKS7_SF_EEEEEEEEE9constructB7v160006ISM_JRKSM_EvEEvRSN_PT_DpOT0_, symObjAddr: 0x4DE8, symBinAddr: 0x1000121AC, symSize: 0x34 }
  - { offsetInCU: 0x29822, offset: 0x4CD0F, size: 0x8, addend: 0x0, symName: __ZNKSt3__110unique_ptrINS_3mapINS_12basic_stringIcNS_11char_traitsIcEENS_9allocatorIcEEEEN8nlohmann16json_abi_v3_11_210basic_jsonIS1_NS_6vectorES7_bxydS5_NS9_14adl_serializerENSB_IhNS5_IhEEEEvEENS_4lessIvEENS5_INS_4pairIKS7_SF_EEEEEEZNSF_6createISM_JRKSM_EEEPT_DpOT0_EUlPSM_E_E3getB7v160006Ev, symObjAddr: 0x4E1C, symBinAddr: 0x1000121E0, symSize: 0x28 }
  - { offsetInCU: 0x29848, offset: 0x4CD35, size: 0x8, addend: 0x0, symName: __ZNSt3__110unique_ptrINS_3mapINS_12basic_stringIcNS_11char_traitsIcEENS_9allocatorIcEEEEN8nlohmann16json_abi_v3_11_210basic_jsonIS1_NS_6vectorES7_bxydS5_NS9_14adl_serializerENSB_IhNS5_IhEEEEvEENS_4lessIvEENS5_INS_4pairIKS7_SF_EEEEEEZNSF_6createISM_JRKSM_EEEPT_DpOT0_EUlPSM_E_E7releaseB7v160006Ev, symObjAddr: 0x4E70, symBinAddr: 0x100012234, symSize: 0x44 }
  - { offsetInCU: 0x2987D, offset: 0x4CD6A, size: 0x8, addend: 0x0, symName: __ZNSt3__110unique_ptrINS_3mapINS_12basic_stringIcNS_11char_traitsIcEENS_9allocatorIcEEEEN8nlohmann16json_abi_v3_11_210basic_jsonIS1_NS_6vectorES7_bxydS5_NS9_14adl_serializerENSB_IhNS5_IhEEEEvEENS_4lessIvEENS5_INS_4pairIKS7_SF_EEEEEEZNSF_6createISM_JRKSM_EEEPT_DpOT0_EUlPSM_E_ED1B7v160006Ev, symObjAddr: 0x4EB4, symBinAddr: 0x100012278, symSize: 0x2C }
  - { offsetInCU: 0x298B2, offset: 0x4CD9F, size: 0x8, addend: 0x0, symName: __ZNSt3__110unique_ptrINS_3mapINS_12basic_stringIcNS_11char_traitsIcEENS_9allocatorIcEEEEN8nlohmann16json_abi_v3_11_210basic_jsonIS1_NS_6vectorES7_bxydS5_NS9_14adl_serializerENSB_IhNS5_IhEEEEvEENS_4lessIvEENS5_INS_4pairIKS7_SF_EEEEEEZNSF_6createISM_JRKSM_EEEPT_DpOT0_EUlPSM_E_EC2B7v160006ILb1EvEESV_NS_16__dependent_typeINS_27__unique_ptr_deleter_sfinaeISW_EEXT_EE15__lval_ref_typeE, symObjAddr: 0x50BC, symBinAddr: 0x1000122A4, symSize: 0x48 }
  - { offsetInCU: 0x29903, offset: 0x4CDF0, size: 0x8, addend: 0x0, symName: __ZNSt3__117__compressed_pairIPNS_3mapINS_12basic_stringIcNS_11char_traitsIcEENS_9allocatorIcEEEEN8nlohmann16json_abi_v3_11_210basic_jsonIS1_NS_6vectorES7_bxydS5_NS9_14adl_serializerENSB_IhNS5_IhEEEEvEENS_4lessIvEENS5_INS_4pairIKS7_SF_EEEEEEZNSF_6createISM_JRKSM_EEEPT_DpOT0_EUlSN_E_EC1B7v160006IRSN_RKSW_EEOSR_OT0_, symObjAddr: 0x5104, symBinAddr: 0x1000122EC, symSize: 0x3C }
  - { offsetInCU: 0x2995B, offset: 0x4CE48, size: 0x8, addend: 0x0, symName: __ZNSt3__117__compressed_pairIPNS_3mapINS_12basic_stringIcNS_11char_traitsIcEENS_9allocatorIcEEEEN8nlohmann16json_abi_v3_11_210basic_jsonIS1_NS_6vectorES7_bxydS5_NS9_14adl_serializerENSB_IhNS5_IhEEEEvEENS_4lessIvEENS5_INS_4pairIKS7_SF_EEEEEEZNSF_6createISM_JRKSM_EEEPT_DpOT0_EUlSN_E_EC2B7v160006IRSN_RKSW_EEOSR_OT0_, symObjAddr: 0x5140, symBinAddr: 0x100012328, symSize: 0x48 }
  - { offsetInCU: 0x299B3, offset: 0x4CEA0, size: 0x8, addend: 0x0, symName: __ZNSt3__122__compressed_pair_elemIZN8nlohmann16json_abi_v3_11_210basic_jsonINS_3mapENS_6vectorENS_12basic_stringIcNS_11char_traitsIcEENS_9allocatorIcEEEEbxydS9_NS2_14adl_serializerENS5_IhNS9_IhEEEEvE6createINS4_ISB_SF_NS_4lessIvEENS9_INS_4pairIKSB_SF_EEEEEEJRKSN_EEEPT_DpOT0_EUlPSN_E_Li1ELb0EEC2B7v160006IRKSW_vEEOSQ_, symObjAddr: 0x51AC, symBinAddr: 0x100012370, symSize: 0x24 }
  - { offsetInCU: 0x299F5, offset: 0x4CEE2, size: 0x8, addend: 0x0, symName: __ZNSt3__19allocatorINS_3mapINS_12basic_stringIcNS_11char_traitsIcEENS0_IcEEEEN8nlohmann16json_abi_v3_11_210basic_jsonIS1_NS_6vectorES6_bxydS0_NS8_14adl_serializerENSA_IhNS0_IhEEEEvEENS_4lessIvEENS0_INS_4pairIKS6_SE_EEEEEEE9constructB7v160006ISL_JRKSL_EEEvPT_DpOT0_, symObjAddr: 0x51D0, symBinAddr: 0x100012394, symSize: 0x30 }
  - { offsetInCU: 0x29A4B, offset: 0x4CF38, size: 0x8, addend: 0x0, symName: __ZNSt3__13mapINS_12basic_stringIcNS_11char_traitsIcEENS_9allocatorIcEEEEN8nlohmann16json_abi_v3_11_210basic_jsonIS0_NS_6vectorES6_bxydS4_NS8_14adl_serializerENSA_IhNS4_IhEEEEvEENS_4lessIvEENS4_INS_4pairIKS6_SE_EEEEEC1B7v160006ERKSL_, symObjAddr: 0x5200, symBinAddr: 0x1000123C4, symSize: 0x34 }
  - { offsetInCU: 0x29A84, offset: 0x4CF71, size: 0x8, addend: 0x0, symName: __ZNSt3__13mapINS_12basic_stringIcNS_11char_traitsIcEENS_9allocatorIcEEEEN8nlohmann16json_abi_v3_11_210basic_jsonIS0_NS_6vectorES6_bxydS4_NS8_14adl_serializerENSA_IhNS4_IhEEEEvEENS_4lessIvEENS4_INS_4pairIKS6_SE_EEEEEC2B7v160006ERKSL_, symObjAddr: 0x5234, symBinAddr: 0x1000123F8, symSize: 0x88 }
  - { offsetInCU: 0x29ABD, offset: 0x4CFAA, size: 0x8, addend: 0x0, symName: __ZNSt3__16__treeINS_12__value_typeINS_12basic_stringIcNS_11char_traitsIcEENS_9allocatorIcEEEEN8nlohmann16json_abi_v3_11_210basic_jsonINS_3mapENS_6vectorES7_bxydS5_NS9_14adl_serializerENSC_IhNS5_IhEEEEvEEEENS_19__map_value_compareIS7_SH_NS_4lessIvEELb1EEENS5_ISH_EEEC1ERKSN_, symObjAddr: 0x52BC, symBinAddr: 0x100012480, symSize: 0x34 }
  - { offsetInCU: 0x29AF8, offset: 0x4CFE5, size: 0x8, addend: 0x0, symName: __ZNSt3__13mapINS_12basic_stringIcNS_11char_traitsIcEENS_9allocatorIcEEEEN8nlohmann16json_abi_v3_11_210basic_jsonIS0_NS_6vectorES6_bxydS4_NS8_14adl_serializerENSA_IhNS4_IhEEEEvEENS_4lessIvEENS4_INS_4pairIKS6_SE_EEEEE6insertB7v160006INS_20__map_const_iteratorINS_21__tree_const_iteratorINS_12__value_typeIS6_SE_EEPNS_11__tree_nodeISQ_PvEElEEEEEEvT_SX_, symObjAddr: 0x52F0, symBinAddr: 0x1000124B4, symSize: 0x8C }
  - { offsetInCU: 0x29B63, offset: 0x4D050, size: 0x8, addend: 0x0, symName: __ZNKSt3__13mapINS_12basic_stringIcNS_11char_traitsIcEENS_9allocatorIcEEEEN8nlohmann16json_abi_v3_11_210basic_jsonIS0_NS_6vectorES6_bxydS4_NS8_14adl_serializerENSA_IhNS4_IhEEEEvEENS_4lessIvEENS4_INS_4pairIKS6_SE_EEEEE5beginB7v160006Ev, symObjAddr: 0x537C, symBinAddr: 0x100012540, symSize: 0x38 }
  - { offsetInCU: 0x29B89, offset: 0x4D076, size: 0x8, addend: 0x0, symName: __ZNKSt3__13mapINS_12basic_stringIcNS_11char_traitsIcEENS_9allocatorIcEEEEN8nlohmann16json_abi_v3_11_210basic_jsonIS0_NS_6vectorES6_bxydS4_NS8_14adl_serializerENSA_IhNS4_IhEEEEvEENS_4lessIvEENS4_INS_4pairIKS6_SE_EEEEE3endB7v160006Ev, symObjAddr: 0x53B4, symBinAddr: 0x100012578, symSize: 0x38 }
  - { offsetInCU: 0x29BAF, offset: 0x4D09C, size: 0x8, addend: 0x0, symName: __ZNSt3__16__treeINS_12__value_typeINS_12basic_stringIcNS_11char_traitsIcEENS_9allocatorIcEEEEN8nlohmann16json_abi_v3_11_210basic_jsonINS_3mapENS_6vectorES7_bxydS5_NS9_14adl_serializerENSC_IhNS5_IhEEEEvEEEENS_19__map_value_compareIS7_SH_NS_4lessIvEELb1EEENS5_ISH_EEEC2ERKSN_, symObjAddr: 0x5418, symBinAddr: 0x1000125B0, symSize: 0x9C }
  - { offsetInCU: 0x29BF5, offset: 0x4D0E2, size: 0x8, addend: 0x0, symName: __ZNSt3__116allocator_traitsINS_9allocatorINS_11__tree_nodeINS_12__value_typeINS_12basic_stringIcNS_11char_traitsIcEENS1_IcEEEEN8nlohmann16json_abi_v3_11_210basic_jsonINS_3mapENS_6vectorES8_bxydS1_NSA_14adl_serializerENSD_IhNS1_IhEEEEvEEEEPvEEEEE37select_on_container_copy_constructionB7v160006ISL_vvEESL_RKSL_, symObjAddr: 0x54B4, symBinAddr: 0x10001264C, symSize: 0x10 }
  - { offsetInCU: 0x29C24, offset: 0x4D111, size: 0x8, addend: 0x0, symName: __ZNKSt3__16__treeINS_12__value_typeINS_12basic_stringIcNS_11char_traitsIcEENS_9allocatorIcEEEEN8nlohmann16json_abi_v3_11_210basic_jsonINS_3mapENS_6vectorES7_bxydS5_NS9_14adl_serializerENSC_IhNS5_IhEEEEvEEEENS_19__map_value_compareIS7_SH_NS_4lessIvEELb1EEENS5_ISH_EEE12__node_allocB7v160006Ev, symObjAddr: 0x54C4, symBinAddr: 0x10001265C, symSize: 0x28 }
  - { offsetInCU: 0x29C56, offset: 0x4D143, size: 0x8, addend: 0x0, symName: __ZNSt3__117__compressed_pairINS_15__tree_end_nodeIPNS_16__tree_node_baseIPvEEEENS_9allocatorINS_11__tree_nodeINS_12__value_typeINS_12basic_stringIcNS_11char_traitsIcEENS7_IcEEEEN8nlohmann16json_abi_v3_11_210basic_jsonINS_3mapENS_6vectorESE_bxydS7_NSG_14adl_serializerENSJ_IhNS7_IhEEEEvEEEES3_EEEEEC1B7v160006INS_18__default_init_tagESQ_EEOT_OT0_, symObjAddr: 0x54EC, symBinAddr: 0x100012684, symSize: 0x3C }
  - { offsetInCU: 0x29CAE, offset: 0x4D19B, size: 0x8, addend: 0x0, symName: __ZNKSt3__16__treeINS_12__value_typeINS_12basic_stringIcNS_11char_traitsIcEENS_9allocatorIcEEEEN8nlohmann16json_abi_v3_11_210basic_jsonINS_3mapENS_6vectorES7_bxydS5_NS9_14adl_serializerENSC_IhNS5_IhEEEEvEEEENS_19__map_value_compareIS7_SH_NS_4lessIvEELb1EEENS5_ISH_EEE10value_compB7v160006Ev, symObjAddr: 0x5528, symBinAddr: 0x1000126C0, symSize: 0x28 }
  - { offsetInCU: 0x29CD4, offset: 0x4D1C1, size: 0x8, addend: 0x0, symName: __ZNKSt3__117__compressed_pairINS_15__tree_end_nodeIPNS_16__tree_node_baseIPvEEEENS_9allocatorINS_11__tree_nodeINS_12__value_typeINS_12basic_stringIcNS_11char_traitsIcEENS7_IcEEEEN8nlohmann16json_abi_v3_11_210basic_jsonINS_3mapENS_6vectorESE_bxydS7_NSG_14adl_serializerENSJ_IhNS7_IhEEEEvEEEES3_EEEEE6secondB7v160006Ev, symObjAddr: 0x55CC, symBinAddr: 0x1000126E8, symSize: 0x24 }
  - { offsetInCU: 0x29CFA, offset: 0x4D1E7, size: 0x8, addend: 0x0, symName: __ZNKSt3__122__compressed_pair_elemINS_9allocatorINS_11__tree_nodeINS_12__value_typeINS_12basic_stringIcNS_11char_traitsIcEENS1_IcEEEEN8nlohmann16json_abi_v3_11_210basic_jsonINS_3mapENS_6vectorES8_bxydS1_NSA_14adl_serializerENSD_IhNS1_IhEEEEvEEEEPvEEEELi1ELb1EE5__getB7v160006Ev, symObjAddr: 0x55F0, symBinAddr: 0x10001270C, symSize: 0x14 }
  - { offsetInCU: 0x29D20, offset: 0x4D20D, size: 0x8, addend: 0x0, symName: __ZNSt3__117__compressed_pairINS_15__tree_end_nodeIPNS_16__tree_node_baseIPvEEEENS_9allocatorINS_11__tree_nodeINS_12__value_typeINS_12basic_stringIcNS_11char_traitsIcEENS7_IcEEEEN8nlohmann16json_abi_v3_11_210basic_jsonINS_3mapENS_6vectorESE_bxydS7_NSG_14adl_serializerENSJ_IhNS7_IhEEEEvEEEES3_EEEEEC2B7v160006INS_18__default_init_tagESQ_EEOT_OT0_, symObjAddr: 0x5604, symBinAddr: 0x100012720, symSize: 0x40 }
  - { offsetInCU: 0x29D78, offset: 0x4D265, size: 0x8, addend: 0x0, symName: __ZNSt3__122__compressed_pair_elemINS_15__tree_end_nodeIPNS_16__tree_node_baseIPvEEEELi0ELb0EEC2B7v160006ENS_18__default_init_tagE, symObjAddr: 0x5644, symBinAddr: 0x100012760, symSize: 0x2C }
  - { offsetInCU: 0x29DAD, offset: 0x4D29A, size: 0x8, addend: 0x0, symName: __ZNSt3__122__compressed_pair_elemINS_9allocatorINS_11__tree_nodeINS_12__value_typeINS_12basic_stringIcNS_11char_traitsIcEENS1_IcEEEEN8nlohmann16json_abi_v3_11_210basic_jsonINS_3mapENS_6vectorES8_bxydS1_NSA_14adl_serializerENSD_IhNS1_IhEEEEvEEEEPvEEEELi1ELb1EEC2B7v160006ISL_vEEOT_, symObjAddr: 0x5670, symBinAddr: 0x10001278C, symSize: 0x18 }
  - { offsetInCU: 0x29DEF, offset: 0x4D2DC, size: 0x8, addend: 0x0, symName: __ZNKSt3__117__compressed_pairImNS_19__map_value_compareINS_12basic_stringIcNS_11char_traitsIcEENS_9allocatorIcEEEENS_12__value_typeIS7_N8nlohmann16json_abi_v3_11_210basic_jsonINS_3mapENS_6vectorES7_bxydS5_NSA_14adl_serializerENSD_IhNS5_IhEEEEvEEEENS_4lessIvEELb1EEEE6secondB7v160006Ev, symObjAddr: 0x5688, symBinAddr: 0x1000127A4, symSize: 0x24 }
  - { offsetInCU: 0x29E15, offset: 0x4D302, size: 0x8, addend: 0x0, symName: __ZNKSt3__122__compressed_pair_elemINS_19__map_value_compareINS_12basic_stringIcNS_11char_traitsIcEENS_9allocatorIcEEEENS_12__value_typeIS7_N8nlohmann16json_abi_v3_11_210basic_jsonINS_3mapENS_6vectorES7_bxydS5_NSA_14adl_serializerENSD_IhNS5_IhEEEEvEEEENS_4lessIvEELb1EEELi1ELb1EE5__getB7v160006Ev, symObjAddr: 0x56AC, symBinAddr: 0x1000127C8, symSize: 0x14 }
  - { offsetInCU: 0x29E3B, offset: 0x4D328, size: 0x8, addend: 0x0, symName: __ZNKSt3__13mapINS_12basic_stringIcNS_11char_traitsIcEENS_9allocatorIcEEEEN8nlohmann16json_abi_v3_11_210basic_jsonIS0_NS_6vectorES6_bxydS4_NS8_14adl_serializerENSA_IhNS4_IhEEEEvEENS_4lessIvEENS4_INS_4pairIKS6_SE_EEEEE4cendB7v160006Ev, symObjAddr: 0x5740, symBinAddr: 0x1000127DC, symSize: 0x2C }
  - { offsetInCU: 0x29E61, offset: 0x4D34E, size: 0x8, addend: 0x0, symName: __ZNSt3__13mapINS_12basic_stringIcNS_11char_traitsIcEENS_9allocatorIcEEEEN8nlohmann16json_abi_v3_11_210basic_jsonIS0_NS_6vectorES6_bxydS4_NS8_14adl_serializerENSA_IhNS4_IhEEEEvEENS_4lessIvEENS4_INS_4pairIKS6_SE_EEEEE6insertB7v160006ENS_20__map_const_iteratorINS_21__tree_const_iteratorINS_12__value_typeIS6_SE_EEPNS_11__tree_nodeISP_PvEElEEEERKSJ_, symObjAddr: 0x579C, symBinAddr: 0x100012838, symSize: 0x50 }
  - { offsetInCU: 0x29EA5, offset: 0x4D392, size: 0x8, addend: 0x0, symName: __ZNSt3__120__map_const_iteratorINS_21__tree_const_iteratorINS_12__value_typeINS_12basic_stringIcNS_11char_traitsIcEENS_9allocatorIcEEEEN8nlohmann16json_abi_v3_11_210basic_jsonINS_3mapENS_6vectorES8_bxydS6_NSA_14adl_serializerENSD_IhNS6_IhEEEEvEEEEPNS_11__tree_nodeISI_PvEElEEEC1B7v160006ESN_, symObjAddr: 0x57EC, symBinAddr: 0x100012888, symSize: 0x34 }
  - { offsetInCU: 0x29EDE, offset: 0x4D3CB, size: 0x8, addend: 0x0, symName: __ZNKSt3__120__map_const_iteratorINS_21__tree_const_iteratorINS_12__value_typeINS_12basic_stringIcNS_11char_traitsIcEENS_9allocatorIcEEEEN8nlohmann16json_abi_v3_11_210basic_jsonINS_3mapENS_6vectorES8_bxydS6_NSA_14adl_serializerENSD_IhNS6_IhEEEEvEEEEPNS_11__tree_nodeISI_PvEElEEEdeB7v160006Ev, symObjAddr: 0x5820, symBinAddr: 0x1000128BC, symSize: 0x28 }
  - { offsetInCU: 0x29F04, offset: 0x4D3F1, size: 0x8, addend: 0x0, symName: __ZNSt3__120__map_const_iteratorINS_21__tree_const_iteratorINS_12__value_typeINS_12basic_stringIcNS_11char_traitsIcEENS_9allocatorIcEEEEN8nlohmann16json_abi_v3_11_210basic_jsonINS_3mapENS_6vectorES8_bxydS6_NSA_14adl_serializerENSD_IhNS6_IhEEEEvEEEEPNS_11__tree_nodeISI_PvEElEEEppB7v160006Ev, symObjAddr: 0x5848, symBinAddr: 0x1000128E4, symSize: 0x2C }
  - { offsetInCU: 0x29F2A, offset: 0x4D417, size: 0x8, addend: 0x0, symName: __ZNSt3__16__treeINS_12__value_typeINS_12basic_stringIcNS_11char_traitsIcEENS_9allocatorIcEEEEN8nlohmann16json_abi_v3_11_210basic_jsonINS_3mapENS_6vectorES7_bxydS5_NS9_14adl_serializerENSC_IhNS5_IhEEEEvEEEENS_19__map_value_compareIS7_SH_NS_4lessIvEELb1EEENS5_ISH_EEE15__insert_uniqueB7v160006ENS_21__tree_const_iteratorISH_PNS_11__tree_nodeISH_PvEElEERKNS_4pairIKS7_SG_EE, symObjAddr: 0x58D8, symBinAddr: 0x100012974, symSize: 0x64 }
  - { offsetInCU: 0x29F6E, offset: 0x4D45B, size: 0x8, addend: 0x0, symName: __ZNSt3__16__treeINS_12__value_typeINS_12basic_stringIcNS_11char_traitsIcEENS_9allocatorIcEEEEN8nlohmann16json_abi_v3_11_210basic_jsonINS_3mapENS_6vectorES7_bxydS5_NS9_14adl_serializerENSC_IhNS5_IhEEEEvEEEENS_19__map_value_compareIS7_SH_NS_4lessIvEELb1EEENS5_ISH_EEE30__emplace_hint_unique_key_argsIS7_JRKNS_4pairIKS7_SG_EEEEENSP_INS_15__tree_iteratorISH_PNS_11__tree_nodeISH_PvEElEEbEENS_21__tree_const_iteratorISH_SY_lEERKT_DpOT0_, symObjAddr: 0x5970, symBinAddr: 0x1000129D8, symSize: 0x104 }
  - { offsetInCU: 0x2A03A, offset: 0x4D527, size: 0x8, addend: 0x0, symName: __ZNSt3__122__tree_key_value_typesINS_12__value_typeINS_12basic_stringIcNS_11char_traitsIcEENS_9allocatorIcEEEEN8nlohmann16json_abi_v3_11_210basic_jsonINS_3mapENS_6vectorES7_bxydS5_NS9_14adl_serializerENSC_IhNS5_IhEEEEvEEEEE9__get_keyB7v160006IKNS_4pairIKS7_SG_EEEENS_9enable_ifIXsr17__is_same_uncvrefIT_SM_EE5valueERSL_E4typeERSP_, symObjAddr: 0x5A74, symBinAddr: 0x100012ADC, symSize: 0x14 }
  - { offsetInCU: 0x2A067, offset: 0x4D554, size: 0x8, addend: 0x0, symName: __ZNSt3__16__treeINS_12__value_typeINS_12basic_stringIcNS_11char_traitsIcEENS_9allocatorIcEEEEN8nlohmann16json_abi_v3_11_210basic_jsonINS_3mapENS_6vectorES7_bxydS5_NS9_14adl_serializerENSC_IhNS5_IhEEEEvEEEENS_19__map_value_compareIS7_SH_NS_4lessIvEELb1EEENS5_ISH_EEE12__find_equalIS7_EERPNS_16__tree_node_baseIPvEENS_21__tree_const_iteratorISH_PNS_11__tree_nodeISH_SQ_EElEERPNS_15__tree_end_nodeISS_EEST_RKT_, symObjAddr: 0x5A88, symBinAddr: 0x100012AF0, symSize: 0x304 }
  - { offsetInCU: 0x2A112, offset: 0x4D5FF, size: 0x8, addend: 0x0, symName: __ZNSt3__16__treeINS_12__value_typeINS_12basic_stringIcNS_11char_traitsIcEENS_9allocatorIcEEEEN8nlohmann16json_abi_v3_11_210basic_jsonINS_3mapENS_6vectorES7_bxydS5_NS9_14adl_serializerENSC_IhNS5_IhEEEEvEEEENS_19__map_value_compareIS7_SH_NS_4lessIvEELb1EEENS5_ISH_EEE16__construct_nodeIJRKNS_4pairIKS7_SG_EEEEENS_10unique_ptrINS_11__tree_nodeISH_PvEENS_22__tree_node_destructorINS5_ISX_EEEEEEDpOT_, symObjAddr: 0x5D8C, symBinAddr: 0x100012DF4, symSize: 0x110 }
  - { offsetInCU: 0x2A17F, offset: 0x4D66C, size: 0x8, addend: 0x0, symName: __ZNSt3__121__tree_const_iteratorINS_12__value_typeINS_12basic_stringIcNS_11char_traitsIcEENS_9allocatorIcEEEEN8nlohmann16json_abi_v3_11_210basic_jsonINS_3mapENS_6vectorES7_bxydS5_NS9_14adl_serializerENSC_IhNS5_IhEEEEvEEEEPNS_11__tree_nodeISH_PvEElEC1B7v160006ENS_15__tree_iteratorISH_SL_lEE, symObjAddr: 0x60A4, symBinAddr: 0x100012F04, symSize: 0x34 }
  - { offsetInCU: 0x2A1B8, offset: 0x4D6A5, size: 0x8, addend: 0x0, symName: __ZNKSt3__121__tree_const_iteratorINS_12__value_typeINS_12basic_stringIcNS_11char_traitsIcEENS_9allocatorIcEEEEN8nlohmann16json_abi_v3_11_210basic_jsonINS_3mapENS_6vectorES7_bxydS5_NS9_14adl_serializerENSC_IhNS5_IhEEEEvEEEEPNS_11__tree_nodeISH_PvEElEdeB7v160006Ev, symObjAddr: 0x6150, symBinAddr: 0x100012F38, symSize: 0x28 }
  - { offsetInCU: 0x2A1DE, offset: 0x4D6CB, size: 0x8, addend: 0x0, symName: __ZNSt3__121__tree_const_iteratorINS_12__value_typeINS_12basic_stringIcNS_11char_traitsIcEENS_9allocatorIcEEEEN8nlohmann16json_abi_v3_11_210basic_jsonINS_3mapENS_6vectorES7_bxydS5_NS9_14adl_serializerENSC_IhNS5_IhEEEEvEEEEPNS_11__tree_nodeISH_PvEElEmmB7v160006Ev, symObjAddr: 0x61F4, symBinAddr: 0x100012F60, symSize: 0x38 }
  - { offsetInCU: 0x2A204, offset: 0x4D6F1, size: 0x8, addend: 0x0, symName: __ZNKSt3__121__tree_const_iteratorINS_12__value_typeINS_12basic_stringIcNS_11char_traitsIcEENS_9allocatorIcEEEEN8nlohmann16json_abi_v3_11_210basic_jsonINS_3mapENS_6vectorES7_bxydS5_NS9_14adl_serializerENSC_IhNS5_IhEEEEvEEEEPNS_11__tree_nodeISH_PvEElE8__get_npB7v160006Ev, symObjAddr: 0x6400, symBinAddr: 0x100012FE8, symSize: 0x18 }
  - { offsetInCU: 0x2A22A, offset: 0x4D717, size: 0x8, addend: 0x0, symName: __ZNSt3__121__tree_const_iteratorINS_12__value_typeINS_12basic_stringIcNS_11char_traitsIcEENS_9allocatorIcEEEEN8nlohmann16json_abi_v3_11_210basic_jsonINS_3mapENS_6vectorES7_bxydS5_NS9_14adl_serializerENSC_IhNS5_IhEEEEvEEEEPNS_11__tree_nodeISH_PvEElEC2B7v160006ENS_15__tree_iteratorISH_SL_lEE, symObjAddr: 0x646C, symBinAddr: 0x100013000, symSize: 0x20 }
  - { offsetInCU: 0x2A263, offset: 0x4D750, size: 0x8, addend: 0x0, symName: __ZNSt3__121__tree_const_iteratorINS_12__value_typeINS_12basic_stringIcNS_11char_traitsIcEENS_9allocatorIcEEEEN8nlohmann16json_abi_v3_11_210basic_jsonINS_3mapENS_6vectorES7_bxydS5_NS9_14adl_serializerENSC_IhNS5_IhEEEEvEEEEPNS_11__tree_nodeISH_PvEElEppB7v160006Ev, symObjAddr: 0x6E58, symBinAddr: 0x10001320C, symSize: 0x38 }
  - { offsetInCU: 0x2A289, offset: 0x4D776, size: 0x8, addend: 0x0, symName: __ZNSt3__116allocator_traitsINS_9allocatorINS_11__tree_nodeINS_12__value_typeINS_12basic_stringIcNS_11char_traitsIcEENS1_IcEEEEN8nlohmann16json_abi_v3_11_210basic_jsonINS_3mapENS_6vectorES8_bxydS1_NSA_14adl_serializerENSD_IhNS1_IhEEEEvEEEEPvEEEEE9constructB7v160006INS_4pairIKS8_SH_EEJRKSQ_EvEEvRSL_PT_DpOT0_, symObjAddr: 0x7028, symBinAddr: 0x100013244, symSize: 0x34 }
  - { offsetInCU: 0x2A2E0, offset: 0x4D7CD, size: 0x8, addend: 0x0, symName: __ZNSt3__19allocatorINS_11__tree_nodeINS_12__value_typeINS_12basic_stringIcNS_11char_traitsIcEENS0_IcEEEEN8nlohmann16json_abi_v3_11_210basic_jsonINS_3mapENS_6vectorES7_bxydS0_NS9_14adl_serializerENSC_IhNS0_IhEEEEvEEEEPvEEE9constructB7v160006INS_4pairIKS7_SG_EEJRKSO_EEEvPT_DpOT0_, symObjAddr: 0x72F0, symBinAddr: 0x100013278, symSize: 0x30 }
  - { offsetInCU: 0x2A336, offset: 0x4D823, size: 0x8, addend: 0x0, symName: __ZNSt3__14pairIKNS_12basic_stringIcNS_11char_traitsIcEENS_9allocatorIcEEEEN8nlohmann16json_abi_v3_11_210basic_jsonINS_3mapENS_6vectorES6_bxydS4_NS9_14adl_serializerENSC_IhNS4_IhEEEEvEEEC1ERKSH_, symObjAddr: 0x7320, symBinAddr: 0x1000132A8, symSize: 0x34 }
  - { offsetInCU: 0x2A36B, offset: 0x4D858, size: 0x8, addend: 0x0, symName: __ZNSt3__14pairIKNS_12basic_stringIcNS_11char_traitsIcEENS_9allocatorIcEEEEN8nlohmann16json_abi_v3_11_210basic_jsonINS_3mapENS_6vectorES6_bxydS4_NS9_14adl_serializerENSC_IhNS4_IhEEEEvEEEC2ERKSH_, symObjAddr: 0x7354, symBinAddr: 0x1000132DC, symSize: 0x70 }
  - { offsetInCU: 0x2A3A0, offset: 0x4D88D, size: 0x8, addend: 0x0, symName: __ZNSt3__120__map_const_iteratorINS_21__tree_const_iteratorINS_12__value_typeINS_12basic_stringIcNS_11char_traitsIcEENS_9allocatorIcEEEEN8nlohmann16json_abi_v3_11_210basic_jsonINS_3mapENS_6vectorES8_bxydS6_NSA_14adl_serializerENSD_IhNS6_IhEEEEvEEEEPNS_11__tree_nodeISI_PvEElEEEC2B7v160006ESN_, symObjAddr: 0x7D30, symBinAddr: 0x10001334C, symSize: 0x20 }
  - { offsetInCU: 0x2A3D9, offset: 0x4D8C6, size: 0x8, addend: 0x0, symName: __ZNKSt3__121__tree_const_iteratorINS_12__value_typeINS_12basic_stringIcNS_11char_traitsIcEENS_9allocatorIcEEEEN8nlohmann16json_abi_v3_11_210basic_jsonINS_3mapENS_6vectorES7_bxydS5_NS9_14adl_serializerENSC_IhNS5_IhEEEEvEEEEPNS_11__tree_nodeISH_PvEElEptB7v160006Ev, symObjAddr: 0x7D50, symBinAddr: 0x10001336C, symSize: 0x2C }
  - { offsetInCU: 0x2A3FF, offset: 0x4D8EC, size: 0x8, addend: 0x0, symName: __ZNSt3__114pointer_traitsIPKNS_12__value_typeINS_12basic_stringIcNS_11char_traitsIcEENS_9allocatorIcEEEEN8nlohmann16json_abi_v3_11_210basic_jsonINS_3mapENS_6vectorES7_bxydS5_NS9_14adl_serializerENSC_IhNS5_IhEEEEvEEEEE10pointer_toB7v160006ERSI_, symObjAddr: 0x7D7C, symBinAddr: 0x100013398, symSize: 0x14 }
  - { offsetInCU: 0x2A422, offset: 0x4D90F, size: 0x8, addend: 0x0, symName: __ZNKSt3__16__treeINS_12__value_typeINS_12basic_stringIcNS_11char_traitsIcEENS_9allocatorIcEEEEN8nlohmann16json_abi_v3_11_210basic_jsonINS_3mapENS_6vectorES7_bxydS5_NS9_14adl_serializerENSC_IhNS5_IhEEEEvEEEENS_19__map_value_compareIS7_SH_NS_4lessIvEELb1EEENS5_ISH_EEE5beginB7v160006Ev, symObjAddr: 0x7D90, symBinAddr: 0x1000133AC, symSize: 0x34 }
  - { offsetInCU: 0x2A448, offset: 0x4D935, size: 0x8, addend: 0x0, symName: __ZNKSt3__16__treeINS_12__value_typeINS_12basic_stringIcNS_11char_traitsIcEENS_9allocatorIcEEEEN8nlohmann16json_abi_v3_11_210basic_jsonINS_3mapENS_6vectorES7_bxydS5_NS9_14adl_serializerENSC_IhNS5_IhEEEEvEEEENS_19__map_value_compareIS7_SH_NS_4lessIvEELb1EEENS5_ISH_EEE12__begin_nodeB7v160006Ev, symObjAddr: 0x7DC4, symBinAddr: 0x1000133E0, symSize: 0x14 }
  - { offsetInCU: 0x2A46E, offset: 0x4D95B, size: 0x8, addend: 0x0, symName: __ZNSt3__121__tree_const_iteratorINS_12__value_typeINS_12basic_stringIcNS_11char_traitsIcEENS_9allocatorIcEEEEN8nlohmann16json_abi_v3_11_210basic_jsonINS_3mapENS_6vectorES7_bxydS5_NS9_14adl_serializerENSC_IhNS5_IhEEEEvEEEEPNS_11__tree_nodeISH_PvEElEC1B7v160006EPNS_15__tree_end_nodeIPNS_16__tree_node_baseISJ_EEEE, symObjAddr: 0x7DD8, symBinAddr: 0x1000133F4, symSize: 0x34 }
  - { offsetInCU: 0x2A4A7, offset: 0x4D994, size: 0x8, addend: 0x0, symName: __ZNSt3__121__tree_const_iteratorINS_12__value_typeINS_12basic_stringIcNS_11char_traitsIcEENS_9allocatorIcEEEEN8nlohmann16json_abi_v3_11_210basic_jsonINS_3mapENS_6vectorES7_bxydS5_NS9_14adl_serializerENSC_IhNS5_IhEEEEvEEEEPNS_11__tree_nodeISH_PvEElEC2B7v160006EPNS_15__tree_end_nodeIPNS_16__tree_node_baseISJ_EEEE, symObjAddr: 0x7E0C, symBinAddr: 0x100013428, symSize: 0x20 }
  - { offsetInCU: 0x2A4E0, offset: 0x4D9CD, size: 0x8, addend: 0x0, symName: __ZNKSt3__16__treeINS_12__value_typeINS_12basic_stringIcNS_11char_traitsIcEENS_9allocatorIcEEEEN8nlohmann16json_abi_v3_11_210basic_jsonINS_3mapENS_6vectorES7_bxydS5_NS9_14adl_serializerENSC_IhNS5_IhEEEEvEEEENS_19__map_value_compareIS7_SH_NS_4lessIvEELb1EEENS5_ISH_EEE3endB7v160006Ev, symObjAddr: 0x7E2C, symBinAddr: 0x100013448, symSize: 0x34 }
  - { offsetInCU: 0x2A506, offset: 0x4D9F3, size: 0x8, addend: 0x0, symName: __ZNKSt3__117__compressed_pairIPNS_3mapINS_12basic_stringIcNS_11char_traitsIcEENS_9allocatorIcEEEEN8nlohmann16json_abi_v3_11_210basic_jsonIS1_NS_6vectorES7_bxydS5_NS9_14adl_serializerENSB_IhNS5_IhEEEEvEENS_4lessIvEENS5_INS_4pairIKS7_SF_EEEEEEZNSF_6createISM_JRKSM_EEEPT_DpOT0_EUlSN_E_E5firstB7v160006Ev, symObjAddr: 0x7F40, symBinAddr: 0x10001347C, symSize: 0x24 }
  - { offsetInCU: 0x2A52C, offset: 0x4DA19, size: 0x8, addend: 0x0, symName: __ZNKSt3__110unique_ptrINS_3mapINS_12basic_stringIcNS_11char_traitsIcEENS_9allocatorIcEEEEN8nlohmann16json_abi_v3_11_210basic_jsonIS1_NS_6vectorES7_bxydS5_NS9_14adl_serializerENSB_IhNS5_IhEEEEvEENS_4lessIvEENS5_INS_4pairIKS7_SF_EEEEEEZNSF_6createISM_JRKSM_EEEPT_DpOT0_EUlPSM_E_EcvbB7v160006Ev, symObjAddr: 0x7F78, symBinAddr: 0x1000134A0, symSize: 0x34 }
  - { offsetInCU: 0x2A552, offset: 0x4DA3F, size: 0x8, addend: 0x0, symName: __ZNSt3__117__compressed_pairIPNS_3mapINS_12basic_stringIcNS_11char_traitsIcEENS_9allocatorIcEEEEN8nlohmann16json_abi_v3_11_210basic_jsonIS1_NS_6vectorES7_bxydS5_NS9_14adl_serializerENSB_IhNS5_IhEEEEvEENS_4lessIvEENS5_INS_4pairIKS7_SF_EEEEEEZNSF_6createISM_JRKSM_EEEPT_DpOT0_EUlSN_E_E5firstB7v160006Ev, symObjAddr: 0x7FAC, symBinAddr: 0x1000134D4, symSize: 0x24 }
  - { offsetInCU: 0x2A578, offset: 0x4DA65, size: 0x8, addend: 0x0, symName: __ZNSt3__110unique_ptrINS_3mapINS_12basic_stringIcNS_11char_traitsIcEENS_9allocatorIcEEEEN8nlohmann16json_abi_v3_11_210basic_jsonIS1_NS_6vectorES7_bxydS5_NS9_14adl_serializerENSB_IhNS5_IhEEEEvEENS_4lessIvEENS5_INS_4pairIKS7_SF_EEEEEEZNSF_6createISM_JRKSM_EEEPT_DpOT0_EUlPSM_E_ED2B7v160006Ev, symObjAddr: 0x7FE4, symBinAddr: 0x1000134F8, symSize: 0x30 }
  - { offsetInCU: 0x2A5A2, offset: 0x4DA8F, size: 0x8, addend: 0x0, symName: __ZNSt3__110unique_ptrINS_3mapINS_12basic_stringIcNS_11char_traitsIcEENS_9allocatorIcEEEEN8nlohmann16json_abi_v3_11_210basic_jsonIS1_NS_6vectorES7_bxydS5_NS9_14adl_serializerENSB_IhNS5_IhEEEEvEENS_4lessIvEENS5_INS_4pairIKS7_SF_EEEEEEZNSF_6createISM_JRKSM_EEEPT_DpOT0_EUlPSM_E_E5resetB7v160006ESV_, symObjAddr: 0x8014, symBinAddr: 0x100013528, symSize: 0x80 }
  - { offsetInCU: 0x2A5E6, offset: 0x4DAD3, size: 0x8, addend: 0x0, symName: __ZNSt3__117__compressed_pairIPNS_3mapINS_12basic_stringIcNS_11char_traitsIcEENS_9allocatorIcEEEEN8nlohmann16json_abi_v3_11_210basic_jsonIS1_NS_6vectorES7_bxydS5_NS9_14adl_serializerENSB_IhNS5_IhEEEEvEENS_4lessIvEENS5_INS_4pairIKS7_SF_EEEEEEZNSF_6createISM_JRKSM_EEEPT_DpOT0_EUlSN_E_E6secondB7v160006Ev, symObjAddr: 0x8094, symBinAddr: 0x1000135A8, symSize: 0x28 }
  - { offsetInCU: 0x2A612, offset: 0x4DAFF, size: 0x8, addend: 0x0, symName: __ZZN8nlohmann16json_abi_v3_11_210basic_jsonINSt3__13mapENS2_6vectorENS2_12basic_stringIcNS2_11char_traitsIcEENS2_9allocatorIcEEEEbxydS8_NS0_14adl_serializerENS4_IhNS8_IhEEEEvE6createINS3_ISA_SE_NS2_4lessIvEENS8_INS2_4pairIKSA_SE_EEEEEEJRKSM_EEEPT_DpOT0_ENKUlPSM_E_clESU_, symObjAddr: 0x80BC, symBinAddr: 0x1000135D0, symSize: 0x34 }
  - { offsetInCU: 0x2A64B, offset: 0x4DB38, size: 0x8, addend: 0x0, symName: __ZNSt3__122__compressed_pair_elemIZN8nlohmann16json_abi_v3_11_210basic_jsonINS_3mapENS_6vectorENS_12basic_stringIcNS_11char_traitsIcEENS_9allocatorIcEEEEbxydS9_NS2_14adl_serializerENS5_IhNS9_IhEEEEvE6createINS4_ISB_SF_NS_4lessIvEENS9_INS_4pairIKSB_SF_EEEEEEJRKSN_EEEPT_DpOT0_EUlPSN_E_Li1ELb0EE5__getB7v160006Ev, symObjAddr: 0x80F0, symBinAddr: 0x100013604, symSize: 0x14 }
  - { offsetInCU: 0x2A671, offset: 0x4DB5E, size: 0x8, addend: 0x0, symName: __ZN8nlohmann16json_abi_v3_11_210basic_jsonINSt3__13mapENS2_6vectorENS2_12basic_stringIcNS2_11char_traitsIcEENS2_9allocatorIcEEEEbxydS8_NS0_14adl_serializerENS4_IhNS8_IhEEEEvE10json_valueC2ERKNS4_ISE_NS8_ISE_EEEE, symObjAddr: 0x817C, symBinAddr: 0x100013618, symSize: 0x3C }
  - { offsetInCU: 0x2A6AA, offset: 0x4DB97, size: 0x8, addend: 0x0, symName: __ZN8nlohmann16json_abi_v3_11_210basic_jsonINSt3__13mapENS2_6vectorENS2_12basic_stringIcNS2_11char_traitsIcEENS2_9allocatorIcEEEEbxydS8_NS0_14adl_serializerENS4_IhNS8_IhEEEEvE6createINS4_ISE_NS8_ISE_EEEEJRKSH_EEEPT_DpOT0_, symObjAddr: 0x81B8, symBinAddr: 0x100013654, symSize: 0xF4 }
  - { offsetInCU: 0x2A7F6, offset: 0x4DCE3, size: 0x8, addend: 0x0, symName: __ZNSt3__110unique_ptrINS_6vectorIN8nlohmann16json_abi_v3_11_210basic_jsonINS_3mapES1_NS_12basic_stringIcNS_11char_traitsIcEENS_9allocatorIcEEEEbxydS9_NS3_14adl_serializerENS1_IhNS9_IhEEEEvEENS9_ISF_EEEEZNSF_6createISH_JRKSH_EEEPT_DpOT0_EUlPSH_E_EC1B7v160006ILb1EvEESQ_NS_16__dependent_typeINS_27__unique_ptr_deleter_sfinaeISR_EEXT_EE15__lval_ref_typeE, symObjAddr: 0x8304, symBinAddr: 0x100013748, symSize: 0x3C }
  - { offsetInCU: 0x2A847, offset: 0x4DD34, size: 0x8, addend: 0x0, symName: __ZNSt3__116allocator_traitsINS_9allocatorINS_6vectorIN8nlohmann16json_abi_v3_11_210basic_jsonINS_3mapES2_NS_12basic_stringIcNS_11char_traitsIcEENS1_IcEEEEbxydS1_NS4_14adl_serializerENS2_IhNS1_IhEEEEvEENS1_ISF_EEEEEEE9constructB7v160006ISH_JRKSH_EvEEvRSI_PT_DpOT0_, symObjAddr: 0x8340, symBinAddr: 0x100013784, symSize: 0x34 }
  - { offsetInCU: 0x2A89E, offset: 0x4DD8B, size: 0x8, addend: 0x0, symName: __ZNKSt3__110unique_ptrINS_6vectorIN8nlohmann16json_abi_v3_11_210basic_jsonINS_3mapES1_NS_12basic_stringIcNS_11char_traitsIcEENS_9allocatorIcEEEEbxydS9_NS3_14adl_serializerENS1_IhNS9_IhEEEEvEENS9_ISF_EEEEZNSF_6createISH_JRKSH_EEEPT_DpOT0_EUlPSH_E_E3getB7v160006Ev, symObjAddr: 0x8374, symBinAddr: 0x1000137B8, symSize: 0x28 }
  - { offsetInCU: 0x2A8C4, offset: 0x4DDB1, size: 0x8, addend: 0x0, symName: __ZNSt3__110unique_ptrINS_6vectorIN8nlohmann16json_abi_v3_11_210basic_jsonINS_3mapES1_NS_12basic_stringIcNS_11char_traitsIcEENS_9allocatorIcEEEEbxydS9_NS3_14adl_serializerENS1_IhNS9_IhEEEEvEENS9_ISF_EEEEZNSF_6createISH_JRKSH_EEEPT_DpOT0_EUlPSH_E_E7releaseB7v160006Ev, symObjAddr: 0x83C8, symBinAddr: 0x10001380C, symSize: 0x44 }
  - { offsetInCU: 0x2A8F9, offset: 0x4DDE6, size: 0x8, addend: 0x0, symName: __ZNSt3__110unique_ptrINS_6vectorIN8nlohmann16json_abi_v3_11_210basic_jsonINS_3mapES1_NS_12basic_stringIcNS_11char_traitsIcEENS_9allocatorIcEEEEbxydS9_NS3_14adl_serializerENS1_IhNS9_IhEEEEvEENS9_ISF_EEEEZNSF_6createISH_JRKSH_EEEPT_DpOT0_EUlPSH_E_ED1B7v160006Ev, symObjAddr: 0x840C, symBinAddr: 0x100013850, symSize: 0x2C }
  - { offsetInCU: 0x2A92E, offset: 0x4DE1B, size: 0x8, addend: 0x0, symName: __ZNSt3__110unique_ptrINS_6vectorIN8nlohmann16json_abi_v3_11_210basic_jsonINS_3mapES1_NS_12basic_stringIcNS_11char_traitsIcEENS_9allocatorIcEEEEbxydS9_NS3_14adl_serializerENS1_IhNS9_IhEEEEvEENS9_ISF_EEEEZNSF_6createISH_JRKSH_EEEPT_DpOT0_EUlPSH_E_EC2B7v160006ILb1EvEESQ_NS_16__dependent_typeINS_27__unique_ptr_deleter_sfinaeISR_EEXT_EE15__lval_ref_typeE, symObjAddr: 0x8510, symBinAddr: 0x10001387C, symSize: 0x48 }
  - { offsetInCU: 0x2A97F, offset: 0x4DE6C, size: 0x8, addend: 0x0, symName: __ZNSt3__117__compressed_pairIPNS_6vectorIN8nlohmann16json_abi_v3_11_210basic_jsonINS_3mapES1_NS_12basic_stringIcNS_11char_traitsIcEENS_9allocatorIcEEEEbxydS9_NS3_14adl_serializerENS1_IhNS9_IhEEEEvEENS9_ISF_EEEEZNSF_6createISH_JRKSH_EEEPT_DpOT0_EUlSI_E_EC1B7v160006IRSI_RKSR_EEOSM_OT0_, symObjAddr: 0x8558, symBinAddr: 0x1000138C4, symSize: 0x3C }
  - { offsetInCU: 0x2A9D7, offset: 0x4DEC4, size: 0x8, addend: 0x0, symName: __ZNSt3__117__compressed_pairIPNS_6vectorIN8nlohmann16json_abi_v3_11_210basic_jsonINS_3mapES1_NS_12basic_stringIcNS_11char_traitsIcEENS_9allocatorIcEEEEbxydS9_NS3_14adl_serializerENS1_IhNS9_IhEEEEvEENS9_ISF_EEEEZNSF_6createISH_JRKSH_EEEPT_DpOT0_EUlSI_E_EC2B7v160006IRSI_RKSR_EEOSM_OT0_, symObjAddr: 0x8594, symBinAddr: 0x100013900, symSize: 0x48 }
  - { offsetInCU: 0x2AA2F, offset: 0x4DF1C, size: 0x8, addend: 0x0, symName: __ZNSt3__122__compressed_pair_elemIZN8nlohmann16json_abi_v3_11_210basic_jsonINS_3mapENS_6vectorENS_12basic_stringIcNS_11char_traitsIcEENS_9allocatorIcEEEEbxydS9_NS2_14adl_serializerENS5_IhNS9_IhEEEEvE6createINS5_ISF_NS9_ISF_EEEEJRKSI_EEEPT_DpOT0_EUlPSI_E_Li1ELb0EEC2B7v160006IRKSR_vEEOSL_, symObjAddr: 0x8600, symBinAddr: 0x100013948, symSize: 0x24 }
  - { offsetInCU: 0x2AA71, offset: 0x4DF5E, size: 0x8, addend: 0x0, symName: __ZNSt3__19allocatorINS_6vectorIN8nlohmann16json_abi_v3_11_210basic_jsonINS_3mapES1_NS_12basic_stringIcNS_11char_traitsIcEENS0_IcEEEEbxydS0_NS3_14adl_serializerENS1_IhNS0_IhEEEEvEENS0_ISE_EEEEE9constructB7v160006ISG_JRKSG_EEEvPT_DpOT0_, symObjAddr: 0x8624, symBinAddr: 0x10001396C, symSize: 0x30 }
  - { offsetInCU: 0x2AAC7, offset: 0x4DFB4, size: 0x8, addend: 0x0, symName: __ZNSt3__16vectorIN8nlohmann16json_abi_v3_11_210basic_jsonINS_3mapES0_NS_12basic_stringIcNS_11char_traitsIcEENS_9allocatorIcEEEEbxydS8_NS2_14adl_serializerENS0_IhNS8_IhEEEEvEENS8_ISE_EEEC1ERKSG_, symObjAddr: 0x8654, symBinAddr: 0x10001399C, symSize: 0x34 }
  - { offsetInCU: 0x2AB02, offset: 0x4DFEF, size: 0x8, addend: 0x0, symName: __ZNSt3__16vectorIN8nlohmann16json_abi_v3_11_210basic_jsonINS_3mapES0_NS_12basic_stringIcNS_11char_traitsIcEENS_9allocatorIcEEEEbxydS8_NS2_14adl_serializerENS0_IhNS8_IhEEEEvEENS8_ISE_EEEC2ERKSG_, symObjAddr: 0x8688, symBinAddr: 0x1000139D0, symSize: 0x114 }
  - { offsetInCU: 0x2AB6C, offset: 0x4E059, size: 0x8, addend: 0x0, symName: __ZNSt3__116allocator_traitsINS_9allocatorIN8nlohmann16json_abi_v3_11_210basic_jsonINS_3mapENS_6vectorENS_12basic_stringIcNS_11char_traitsIcEENS1_IcEEEEbxydS1_NS3_14adl_serializerENS6_IhNS1_IhEEEEvEEEEE37select_on_container_copy_constructionB7v160006ISG_vvEESG_RKSG_, symObjAddr: 0x879C, symBinAddr: 0x100013AE4, symSize: 0x10 }
  - { offsetInCU: 0x2ABA7, offset: 0x4E094, size: 0x8, addend: 0x0, symName: __ZNSt3__117__compressed_pairIPN8nlohmann16json_abi_v3_11_210basic_jsonINS_3mapENS_6vectorENS_12basic_stringIcNS_11char_traitsIcEENS_9allocatorIcEEEEbxydS9_NS2_14adl_serializerENS5_IhNS9_IhEEEEvEENS9_ISF_EEEC1B7v160006IDnSH_EEOT_OT0_, symObjAddr: 0x87D4, symBinAddr: 0x100013AF4, symSize: 0x3C }
  - { offsetInCU: 0x2ABFF, offset: 0x4E0EC, size: 0x8, addend: 0x0, symName: __ZNSt3__16vectorIN8nlohmann16json_abi_v3_11_210basic_jsonINS_3mapES0_NS_12basic_stringIcNS_11char_traitsIcEENS_9allocatorIcEEEEbxydS8_NS2_14adl_serializerENS0_IhNS8_IhEEEEvEENS8_ISE_EEE11__vallocateB7v160006Em, symObjAddr: 0x88BC, symBinAddr: 0x100013B70, symSize: 0xAC }
  - { offsetInCU: 0x2AC43, offset: 0x4E130, size: 0x8, addend: 0x0, symName: __ZNSt3__16vectorIN8nlohmann16json_abi_v3_11_210basic_jsonINS_3mapES0_NS_12basic_stringIcNS_11char_traitsIcEENS_9allocatorIcEEEEbxydS8_NS2_14adl_serializerENS0_IhNS8_IhEEEEvEENS8_ISE_EEE18__construct_at_endIPSE_Li0EEEvT_SJ_m, symObjAddr: 0x8968, symBinAddr: 0x100013C1C, symSize: 0x8C }
  - { offsetInCU: 0x2ACB6, offset: 0x4E1A3, size: 0x8, addend: 0x0, symName: __ZNSt3__128__exception_guard_exceptionsINS_6vectorIN8nlohmann16json_abi_v3_11_210basic_jsonINS_3mapES1_NS_12basic_stringIcNS_11char_traitsIcEENS_9allocatorIcEEEEbxydS9_NS3_14adl_serializerENS1_IhNS9_IhEEEEvEENS9_ISF_EEE16__destroy_vectorEE10__completeB7v160006Ev, symObjAddr: 0x89F4, symBinAddr: 0x100013CA8, symSize: 0x1C }
  - { offsetInCU: 0x2ACDC, offset: 0x4E1C9, size: 0x8, addend: 0x0, symName: __ZNSt3__128__exception_guard_exceptionsINS_6vectorIN8nlohmann16json_abi_v3_11_210basic_jsonINS_3mapES1_NS_12basic_stringIcNS_11char_traitsIcEENS_9allocatorIcEEEEbxydS9_NS3_14adl_serializerENS1_IhNS9_IhEEEEvEENS9_ISF_EEE16__destroy_vectorEED1B7v160006Ev, symObjAddr: 0x8A10, symBinAddr: 0x100013CC4, symSize: 0x2C }
  - { offsetInCU: 0x2AD06, offset: 0x4E1F3, size: 0x8, addend: 0x0, symName: __ZNSt3__117__compressed_pairIPN8nlohmann16json_abi_v3_11_210basic_jsonINS_3mapENS_6vectorENS_12basic_stringIcNS_11char_traitsIcEENS_9allocatorIcEEEEbxydS9_NS2_14adl_serializerENS5_IhNS9_IhEEEEvEENS9_ISF_EEEC2B7v160006IDnSH_EEOT_OT0_, symObjAddr: 0x8A74, symBinAddr: 0x100013CF0, symSize: 0x44 }
  - { offsetInCU: 0x2AD5E, offset: 0x4E24B, size: 0x8, addend: 0x0, symName: __ZNSt3__122__compressed_pair_elemINS_9allocatorIN8nlohmann16json_abi_v3_11_210basic_jsonINS_3mapENS_6vectorENS_12basic_stringIcNS_11char_traitsIcEENS1_IcEEEEbxydS1_NS3_14adl_serializerENS6_IhNS1_IhEEEEvEEEELi1ELb1EEC2B7v160006ISG_vEEOT_, symObjAddr: 0x8AD4, symBinAddr: 0x100013D34, symSize: 0x18 }
  - { offsetInCU: 0x2ADA0, offset: 0x4E28D, size: 0x8, addend: 0x0, symName: __ZNSt3__128__exception_guard_exceptionsINS_6vectorIN8nlohmann16json_abi_v3_11_210basic_jsonINS_3mapES1_NS_12basic_stringIcNS_11char_traitsIcEENS_9allocatorIcEEEEbxydS9_NS3_14adl_serializerENS1_IhNS9_IhEEEEvEENS9_ISF_EEE16__destroy_vectorEEC1B7v160006ESI_, symObjAddr: 0x8AEC, symBinAddr: 0x100013D4C, symSize: 0x34 }
  - { offsetInCU: 0x2ADD8, offset: 0x4E2C5, size: 0x8, addend: 0x0, symName: __ZNSt3__128__exception_guard_exceptionsINS_6vectorIN8nlohmann16json_abi_v3_11_210basic_jsonINS_3mapES1_NS_12basic_stringIcNS_11char_traitsIcEENS_9allocatorIcEEEEbxydS9_NS3_14adl_serializerENS1_IhNS9_IhEEEEvEENS9_ISF_EEE16__destroy_vectorEEC2B7v160006ESI_, symObjAddr: 0x8B20, symBinAddr: 0x100013D80, symSize: 0x24 }
  - { offsetInCU: 0x2AE2C, offset: 0x4E319, size: 0x8, addend: 0x0, symName: __ZNSt3__129_AllocatorDestroyRangeReverseINS_9allocatorIN8nlohmann16json_abi_v3_11_210basic_jsonINS_3mapENS_6vectorENS_12basic_stringIcNS_11char_traitsIcEENS1_IcEEEEbxydS1_NS3_14adl_serializerENS6_IhNS1_IhEEEEvEEEEPSF_EC1B7v160006ERSG_RSH_SK_, symObjAddr: 0x9204, symBinAddr: 0x100013EE4, symSize: 0x44 }
  - { offsetInCU: 0x2AE83, offset: 0x4E370, size: 0x8, addend: 0x0, symName: __ZNSt3__116allocator_traitsINS_9allocatorIN8nlohmann16json_abi_v3_11_210basic_jsonINS_3mapENS_6vectorENS_12basic_stringIcNS_11char_traitsIcEENS1_IcEEEEbxydS1_NS3_14adl_serializerENS6_IhNS1_IhEEEEvEEEEE9constructB7v160006ISF_JRSF_EvEEvRSG_PT_DpOT0_, symObjAddr: 0x9248, symBinAddr: 0x100013F28, symSize: 0x34 }
  - { offsetInCU: 0x2AEDA, offset: 0x4E3C7, size: 0x8, addend: 0x0, symName: __ZNSt3__128__exception_guard_exceptionsINS_29_AllocatorDestroyRangeReverseINS_9allocatorIN8nlohmann16json_abi_v3_11_210basic_jsonINS_3mapENS_6vectorENS_12basic_stringIcNS_11char_traitsIcEENS2_IcEEEEbxydS2_NS4_14adl_serializerENS7_IhNS2_IhEEEEvEEEEPSG_EEE10__completeB7v160006Ev, symObjAddr: 0x927C, symBinAddr: 0x100013F5C, symSize: 0x1C }
  - { offsetInCU: 0x2AF00, offset: 0x4E3ED, size: 0x8, addend: 0x0, symName: __ZNSt3__128__exception_guard_exceptionsINS_29_AllocatorDestroyRangeReverseINS_9allocatorIN8nlohmann16json_abi_v3_11_210basic_jsonINS_3mapENS_6vectorENS_12basic_stringIcNS_11char_traitsIcEENS2_IcEEEEbxydS2_NS4_14adl_serializerENS7_IhNS2_IhEEEEvEEEEPSG_EEED1B7v160006Ev, symObjAddr: 0x9298, symBinAddr: 0x100013F78, symSize: 0x2C }
  - { offsetInCU: 0x2AF2A, offset: 0x4E417, size: 0x8, addend: 0x0, symName: __ZNSt3__128__exception_guard_exceptionsINS_29_AllocatorDestroyRangeReverseINS_9allocatorIN8nlohmann16json_abi_v3_11_210basic_jsonINS_3mapENS_6vectorENS_12basic_stringIcNS_11char_traitsIcEENS2_IcEEEEbxydS2_NS4_14adl_serializerENS7_IhNS2_IhEEEEvEEEEPSG_EEEC1B7v160006ESJ_, symObjAddr: 0x92C4, symBinAddr: 0x100013FA4, symSize: 0x34 }
  - { offsetInCU: 0x2AF63, offset: 0x4E450, size: 0x8, addend: 0x0, symName: __ZNSt3__128__exception_guard_exceptionsINS_29_AllocatorDestroyRangeReverseINS_9allocatorIN8nlohmann16json_abi_v3_11_210basic_jsonINS_3mapENS_6vectorENS_12basic_stringIcNS_11char_traitsIcEENS2_IcEEEEbxydS2_NS4_14adl_serializerENS7_IhNS2_IhEEEEvEEEEPSG_EEEC2B7v160006ESJ_, symObjAddr: 0x92F8, symBinAddr: 0x100013FD8, symSize: 0x30 }
  - { offsetInCU: 0x2AF9C, offset: 0x4E489, size: 0x8, addend: 0x0, symName: __ZNSt3__129_AllocatorDestroyRangeReverseINS_9allocatorIN8nlohmann16json_abi_v3_11_210basic_jsonINS_3mapENS_6vectorENS_12basic_stringIcNS_11char_traitsIcEENS1_IcEEEEbxydS1_NS3_14adl_serializerENS6_IhNS1_IhEEEEvEEEEPSF_EC2B7v160006ERSG_RSH_SK_, symObjAddr: 0x9328, symBinAddr: 0x100014008, symSize: 0x38 }
  - { offsetInCU: 0x2AFF3, offset: 0x4E4E0, size: 0x8, addend: 0x0, symName: __ZNSt3__19allocatorIN8nlohmann16json_abi_v3_11_210basic_jsonINS_3mapENS_6vectorENS_12basic_stringIcNS_11char_traitsIcEENS0_IcEEEEbxydS0_NS2_14adl_serializerENS5_IhNS0_IhEEEEvEEE9constructB7v160006ISE_JRSE_EEEvPT_DpOT0_, symObjAddr: 0x9360, symBinAddr: 0x100014040, symSize: 0x30 }
  - { offsetInCU: 0x2B049, offset: 0x4E536, size: 0x8, addend: 0x0, symName: __ZNSt3__128__exception_guard_exceptionsINS_29_AllocatorDestroyRangeReverseINS_9allocatorIN8nlohmann16json_abi_v3_11_210basic_jsonINS_3mapENS_6vectorENS_12basic_stringIcNS_11char_traitsIcEENS2_IcEEEEbxydS2_NS4_14adl_serializerENS7_IhNS2_IhEEEEvEEEEPSG_EEED2B7v160006Ev, symObjAddr: 0x9390, symBinAddr: 0x100014070, symSize: 0x50 }
  - { offsetInCU: 0x2B073, offset: 0x4E560, size: 0x8, addend: 0x0, symName: __ZNKSt3__129_AllocatorDestroyRangeReverseINS_9allocatorIN8nlohmann16json_abi_v3_11_210basic_jsonINS_3mapENS_6vectorENS_12basic_stringIcNS_11char_traitsIcEENS1_IcEEEEbxydS1_NS3_14adl_serializerENS6_IhNS1_IhEEEEvEEEEPSF_EclB7v160006Ev, symObjAddr: 0x93E0, symBinAddr: 0x1000140C0, symSize: 0x68 }
  - { offsetInCU: 0x2B099, offset: 0x4E586, size: 0x8, addend: 0x0, symName: __ZNSt3__128__exception_guard_exceptionsINS_6vectorIN8nlohmann16json_abi_v3_11_210basic_jsonINS_3mapES1_NS_12basic_stringIcNS_11char_traitsIcEENS_9allocatorIcEEEEbxydS9_NS3_14adl_serializerENS1_IhNS9_IhEEEEvEENS9_ISF_EEE16__destroy_vectorEED2B7v160006Ev, symObjAddr: 0x96B0, symBinAddr: 0x100014198, symSize: 0x50 }
  - { offsetInCU: 0x2B0C3, offset: 0x4E5B0, size: 0x8, addend: 0x0, symName: __ZNKSt3__117__compressed_pairIPNS_6vectorIN8nlohmann16json_abi_v3_11_210basic_jsonINS_3mapES1_NS_12basic_stringIcNS_11char_traitsIcEENS_9allocatorIcEEEEbxydS9_NS3_14adl_serializerENS1_IhNS9_IhEEEEvEENS9_ISF_EEEEZNSF_6createISH_JRKSH_EEEPT_DpOT0_EUlSI_E_E5firstB7v160006Ev, symObjAddr: 0x998C, symBinAddr: 0x1000141E8, symSize: 0x24 }
  - { offsetInCU: 0x2B0E9, offset: 0x4E5D6, size: 0x8, addend: 0x0, symName: __ZNKSt3__110unique_ptrINS_6vectorIN8nlohmann16json_abi_v3_11_210basic_jsonINS_3mapES1_NS_12basic_stringIcNS_11char_traitsIcEENS_9allocatorIcEEEEbxydS9_NS3_14adl_serializerENS1_IhNS9_IhEEEEvEENS9_ISF_EEEEZNSF_6createISH_JRKSH_EEEPT_DpOT0_EUlPSH_E_EcvbB7v160006Ev, symObjAddr: 0x99C4, symBinAddr: 0x10001420C, symSize: 0x34 }
  - { offsetInCU: 0x2B10F, offset: 0x4E5FC, size: 0x8, addend: 0x0, symName: __ZNSt3__117__compressed_pairIPNS_6vectorIN8nlohmann16json_abi_v3_11_210basic_jsonINS_3mapES1_NS_12basic_stringIcNS_11char_traitsIcEENS_9allocatorIcEEEEbxydS9_NS3_14adl_serializerENS1_IhNS9_IhEEEEvEENS9_ISF_EEEEZNSF_6createISH_JRKSH_EEEPT_DpOT0_EUlSI_E_E5firstB7v160006Ev, symObjAddr: 0x99F8, symBinAddr: 0x100014240, symSize: 0x24 }
  - { offsetInCU: 0x2B135, offset: 0x4E622, size: 0x8, addend: 0x0, symName: __ZNSt3__110unique_ptrINS_6vectorIN8nlohmann16json_abi_v3_11_210basic_jsonINS_3mapES1_NS_12basic_stringIcNS_11char_traitsIcEENS_9allocatorIcEEEEbxydS9_NS3_14adl_serializerENS1_IhNS9_IhEEEEvEENS9_ISF_EEEEZNSF_6createISH_JRKSH_EEEPT_DpOT0_EUlPSH_E_ED2B7v160006Ev, symObjAddr: 0x9A30, symBinAddr: 0x100014264, symSize: 0x30 }
  - { offsetInCU: 0x2B15F, offset: 0x4E64C, size: 0x8, addend: 0x0, symName: __ZNSt3__110unique_ptrINS_6vectorIN8nlohmann16json_abi_v3_11_210basic_jsonINS_3mapES1_NS_12basic_stringIcNS_11char_traitsIcEENS_9allocatorIcEEEEbxydS9_NS3_14adl_serializerENS1_IhNS9_IhEEEEvEENS9_ISF_EEEEZNSF_6createISH_JRKSH_EEEPT_DpOT0_EUlPSH_E_E5resetB7v160006ESQ_, symObjAddr: 0x9A60, symBinAddr: 0x100014294, symSize: 0x80 }
  - { offsetInCU: 0x2B1A3, offset: 0x4E690, size: 0x8, addend: 0x0, symName: __ZNSt3__117__compressed_pairIPNS_6vectorIN8nlohmann16json_abi_v3_11_210basic_jsonINS_3mapES1_NS_12basic_stringIcNS_11char_traitsIcEENS_9allocatorIcEEEEbxydS9_NS3_14adl_serializerENS1_IhNS9_IhEEEEvEENS9_ISF_EEEEZNSF_6createISH_JRKSH_EEEPT_DpOT0_EUlSI_E_E6secondB7v160006Ev, symObjAddr: 0x9AE0, symBinAddr: 0x100014314, symSize: 0x28 }
  - { offsetInCU: 0x2B1CF, offset: 0x4E6BC, size: 0x8, addend: 0x0, symName: __ZZN8nlohmann16json_abi_v3_11_210basic_jsonINSt3__13mapENS2_6vectorENS2_12basic_stringIcNS2_11char_traitsIcEENS2_9allocatorIcEEEEbxydS8_NS0_14adl_serializerENS4_IhNS8_IhEEEEvE6createINS4_ISE_NS8_ISE_EEEEJRKSH_EEEPT_DpOT0_ENKUlPSH_E_clESP_, symObjAddr: 0x9B08, symBinAddr: 0x10001433C, symSize: 0x34 }
  - { offsetInCU: 0x2B208, offset: 0x4E6F5, size: 0x8, addend: 0x0, symName: __ZNSt3__122__compressed_pair_elemIZN8nlohmann16json_abi_v3_11_210basic_jsonINS_3mapENS_6vectorENS_12basic_stringIcNS_11char_traitsIcEENS_9allocatorIcEEEEbxydS9_NS2_14adl_serializerENS5_IhNS9_IhEEEEvE6createINS5_ISF_NS9_ISF_EEEEJRKSI_EEEPT_DpOT0_EUlPSI_E_Li1ELb0EE5__getB7v160006Ev, symObjAddr: 0x9B3C, symBinAddr: 0x100014370, symSize: 0x14 }
  - { offsetInCU: 0x2B22E, offset: 0x4E71B, size: 0x8, addend: 0x0, symName: __ZN8nlohmann16json_abi_v3_11_210basic_jsonINSt3__13mapENS2_6vectorENS2_12basic_stringIcNS2_11char_traitsIcEENS2_9allocatorIcEEEEbxydS8_NS0_14adl_serializerENS4_IhNS8_IhEEEEvE10json_valueC2ERKSA_, symObjAddr: 0x9BC8, symBinAddr: 0x100014384, symSize: 0x3C }
  - { offsetInCU: 0x2B267, offset: 0x4E754, size: 0x8, addend: 0x0, symName: __ZN8nlohmann16json_abi_v3_11_210basic_jsonINSt3__13mapENS2_6vectorENS2_12basic_stringIcNS2_11char_traitsIcEENS2_9allocatorIcEEEEbxydS8_NS0_14adl_serializerENS4_IhNS8_IhEEEEvE6createISA_JRKSA_EEEPT_DpOT0_, symObjAddr: 0x9C04, symBinAddr: 0x1000143C0, symSize: 0xF4 }
  - { offsetInCU: 0x2B368, offset: 0x4E855, size: 0x8, addend: 0x0, symName: __ZNSt3__110unique_ptrINS_12basic_stringIcNS_11char_traitsIcEENS_9allocatorIcEEEEZN8nlohmann16json_abi_v3_11_210basic_jsonINS_3mapENS_6vectorES6_bxydS4_NS8_14adl_serializerENSB_IhNS4_IhEEEEvE6createIS6_JRKS6_EEEPT_DpOT0_EUlPS6_E_EC1B7v160006ILb1EvEESO_NS_16__dependent_typeINS_27__unique_ptr_deleter_sfinaeISP_EEXT_EE15__lval_ref_typeE, symObjAddr: 0x9D50, symBinAddr: 0x1000144B4, symSize: 0x3C }
  - { offsetInCU: 0x2B3B9, offset: 0x4E8A6, size: 0x8, addend: 0x0, symName: __ZNSt3__116allocator_traitsINS_9allocatorINS_12basic_stringIcNS_11char_traitsIcEENS1_IcEEEEEEE9constructB7v160006IS6_JRKS6_EvEEvRS7_PT_DpOT0_, symObjAddr: 0x9D8C, symBinAddr: 0x1000144F0, symSize: 0x34 }
  - { offsetInCU: 0x2B410, offset: 0x4E8FD, size: 0x8, addend: 0x0, symName: __ZNKSt3__110unique_ptrINS_12basic_stringIcNS_11char_traitsIcEENS_9allocatorIcEEEEZN8nlohmann16json_abi_v3_11_210basic_jsonINS_3mapENS_6vectorES6_bxydS4_NS8_14adl_serializerENSB_IhNS4_IhEEEEvE6createIS6_JRKS6_EEEPT_DpOT0_EUlPS6_E_E3getB7v160006Ev, symObjAddr: 0x9DC0, symBinAddr: 0x100014524, symSize: 0x28 }
  - { offsetInCU: 0x2B436, offset: 0x4E923, size: 0x8, addend: 0x0, symName: __ZNSt3__110unique_ptrINS_12basic_stringIcNS_11char_traitsIcEENS_9allocatorIcEEEEZN8nlohmann16json_abi_v3_11_210basic_jsonINS_3mapENS_6vectorES6_bxydS4_NS8_14adl_serializerENSB_IhNS4_IhEEEEvE6createIS6_JRKS6_EEEPT_DpOT0_EUlPS6_E_E7releaseB7v160006Ev, symObjAddr: 0x9E14, symBinAddr: 0x100014578, symSize: 0x44 }
  - { offsetInCU: 0x2B46B, offset: 0x4E958, size: 0x8, addend: 0x0, symName: __ZNSt3__110unique_ptrINS_12basic_stringIcNS_11char_traitsIcEENS_9allocatorIcEEEEZN8nlohmann16json_abi_v3_11_210basic_jsonINS_3mapENS_6vectorES6_bxydS4_NS8_14adl_serializerENSB_IhNS4_IhEEEEvE6createIS6_JRKS6_EEEPT_DpOT0_EUlPS6_E_ED1B7v160006Ev, symObjAddr: 0x9E58, symBinAddr: 0x1000145BC, symSize: 0x2C }
  - { offsetInCU: 0x2B4A0, offset: 0x4E98D, size: 0x8, addend: 0x0, symName: __ZNSt3__110unique_ptrINS_12basic_stringIcNS_11char_traitsIcEENS_9allocatorIcEEEEZN8nlohmann16json_abi_v3_11_210basic_jsonINS_3mapENS_6vectorES6_bxydS4_NS8_14adl_serializerENSB_IhNS4_IhEEEEvE6createIS6_JRKS6_EEEPT_DpOT0_EUlPS6_E_EC2B7v160006ILb1EvEESO_NS_16__dependent_typeINS_27__unique_ptr_deleter_sfinaeISP_EEXT_EE15__lval_ref_typeE, symObjAddr: 0x9F5C, symBinAddr: 0x1000145E8, symSize: 0x48 }
  - { offsetInCU: 0x2B4F1, offset: 0x4E9DE, size: 0x8, addend: 0x0, symName: __ZNSt3__117__compressed_pairIPNS_12basic_stringIcNS_11char_traitsIcEENS_9allocatorIcEEEEZN8nlohmann16json_abi_v3_11_210basic_jsonINS_3mapENS_6vectorES6_bxydS4_NS9_14adl_serializerENSC_IhNS4_IhEEEEvE6createIS6_JRKS6_EEEPT_DpOT0_EUlS7_E_EC1B7v160006IRS7_RKSP_EEOSK_OT0_, symObjAddr: 0x9FA4, symBinAddr: 0x100014630, symSize: 0x3C }
  - { offsetInCU: 0x2B549, offset: 0x4EA36, size: 0x8, addend: 0x0, symName: __ZNSt3__117__compressed_pairIPNS_12basic_stringIcNS_11char_traitsIcEENS_9allocatorIcEEEEZN8nlohmann16json_abi_v3_11_210basic_jsonINS_3mapENS_6vectorES6_bxydS4_NS9_14adl_serializerENSC_IhNS4_IhEEEEvE6createIS6_JRKS6_EEEPT_DpOT0_EUlS7_E_EC2B7v160006IRS7_RKSP_EEOSK_OT0_, symObjAddr: 0x9FE0, symBinAddr: 0x10001466C, symSize: 0x48 }
  - { offsetInCU: 0x2B5A1, offset: 0x4EA8E, size: 0x8, addend: 0x0, symName: __ZNSt3__122__compressed_pair_elemIZN8nlohmann16json_abi_v3_11_210basic_jsonINS_3mapENS_6vectorENS_12basic_stringIcNS_11char_traitsIcEENS_9allocatorIcEEEEbxydS9_NS2_14adl_serializerENS5_IhNS9_IhEEEEvE6createISB_JRKSB_EEEPT_DpOT0_EUlPSB_E_Li1ELb0EEC2B7v160006IRKSP_vEEOSJ_, symObjAddr: 0xA04C, symBinAddr: 0x1000146B4, symSize: 0x24 }
  - { offsetInCU: 0x2B5E3, offset: 0x4EAD0, size: 0x8, addend: 0x0, symName: __ZNSt3__19allocatorINS_12basic_stringIcNS_11char_traitsIcEENS0_IcEEEEE9constructB7v160006IS5_JRKS5_EEEvPT_DpOT0_, symObjAddr: 0xA070, symBinAddr: 0x1000146D8, symSize: 0x30 }
  - { offsetInCU: 0x2B639, offset: 0x4EB26, size: 0x8, addend: 0x0, symName: __ZNKSt3__117__compressed_pairIPNS_12basic_stringIcNS_11char_traitsIcEENS_9allocatorIcEEEEZN8nlohmann16json_abi_v3_11_210basic_jsonINS_3mapENS_6vectorES6_bxydS4_NS9_14adl_serializerENSC_IhNS4_IhEEEEvE6createIS6_JRKS6_EEEPT_DpOT0_EUlS7_E_E5firstB7v160006Ev, symObjAddr: 0xA0A0, symBinAddr: 0x100014708, symSize: 0x24 }
  - { offsetInCU: 0x2B65F, offset: 0x4EB4C, size: 0x8, addend: 0x0, symName: __ZNKSt3__110unique_ptrINS_12basic_stringIcNS_11char_traitsIcEENS_9allocatorIcEEEEZN8nlohmann16json_abi_v3_11_210basic_jsonINS_3mapENS_6vectorES6_bxydS4_NS8_14adl_serializerENSB_IhNS4_IhEEEEvE6createIS6_JRKS6_EEEPT_DpOT0_EUlPS6_E_EcvbB7v160006Ev, symObjAddr: 0xA0D8, symBinAddr: 0x10001472C, symSize: 0x34 }
  - { offsetInCU: 0x2B685, offset: 0x4EB72, size: 0x8, addend: 0x0, symName: __ZNSt3__117__compressed_pairIPNS_12basic_stringIcNS_11char_traitsIcEENS_9allocatorIcEEEEZN8nlohmann16json_abi_v3_11_210basic_jsonINS_3mapENS_6vectorES6_bxydS4_NS9_14adl_serializerENSC_IhNS4_IhEEEEvE6createIS6_JRKS6_EEEPT_DpOT0_EUlS7_E_E5firstB7v160006Ev, symObjAddr: 0xA10C, symBinAddr: 0x100014760, symSize: 0x24 }
  - { offsetInCU: 0x2B6AB, offset: 0x4EB98, size: 0x8, addend: 0x0, symName: __ZNSt3__110unique_ptrINS_12basic_stringIcNS_11char_traitsIcEENS_9allocatorIcEEEEZN8nlohmann16json_abi_v3_11_210basic_jsonINS_3mapENS_6vectorES6_bxydS4_NS8_14adl_serializerENSB_IhNS4_IhEEEEvE6createIS6_JRKS6_EEEPT_DpOT0_EUlPS6_E_ED2B7v160006Ev, symObjAddr: 0xA144, symBinAddr: 0x100014784, symSize: 0x30 }
  - { offsetInCU: 0x2B6D5, offset: 0x4EBC2, size: 0x8, addend: 0x0, symName: __ZNSt3__110unique_ptrINS_12basic_stringIcNS_11char_traitsIcEENS_9allocatorIcEEEEZN8nlohmann16json_abi_v3_11_210basic_jsonINS_3mapENS_6vectorES6_bxydS4_NS8_14adl_serializerENSB_IhNS4_IhEEEEvE6createIS6_JRKS6_EEEPT_DpOT0_EUlPS6_E_E5resetB7v160006ESO_, symObjAddr: 0xA174, symBinAddr: 0x1000147B4, symSize: 0x80 }
  - { offsetInCU: 0x2B719, offset: 0x4EC06, size: 0x8, addend: 0x0, symName: __ZNSt3__117__compressed_pairIPNS_12basic_stringIcNS_11char_traitsIcEENS_9allocatorIcEEEEZN8nlohmann16json_abi_v3_11_210basic_jsonINS_3mapENS_6vectorES6_bxydS4_NS9_14adl_serializerENSC_IhNS4_IhEEEEvE6createIS6_JRKS6_EEEPT_DpOT0_EUlS7_E_E6secondB7v160006Ev, symObjAddr: 0xA1F4, symBinAddr: 0x100014834, symSize: 0x28 }
  - { offsetInCU: 0x2B745, offset: 0x4EC32, size: 0x8, addend: 0x0, symName: __ZZN8nlohmann16json_abi_v3_11_210basic_jsonINSt3__13mapENS2_6vectorENS2_12basic_stringIcNS2_11char_traitsIcEENS2_9allocatorIcEEEEbxydS8_NS0_14adl_serializerENS4_IhNS8_IhEEEEvE6createISA_JRKSA_EEEPT_DpOT0_ENKUlPSA_E_clESN_, symObjAddr: 0xA21C, symBinAddr: 0x10001485C, symSize: 0x34 }
  - { offsetInCU: 0x2B77E, offset: 0x4EC6B, size: 0x8, addend: 0x0, symName: __ZNSt3__122__compressed_pair_elemIZN8nlohmann16json_abi_v3_11_210basic_jsonINS_3mapENS_6vectorENS_12basic_stringIcNS_11char_traitsIcEENS_9allocatorIcEEEEbxydS9_NS2_14adl_serializerENS5_IhNS9_IhEEEEvE6createISB_JRKSB_EEEPT_DpOT0_EUlPSB_E_Li1ELb0EE5__getB7v160006Ev, symObjAddr: 0xA250, symBinAddr: 0x100014890, symSize: 0x14 }
  - { offsetInCU: 0x2B7A4, offset: 0x4EC91, size: 0x8, addend: 0x0, symName: __ZN8nlohmann16json_abi_v3_11_210basic_jsonINSt3__13mapENS2_6vectorENS2_12basic_stringIcNS2_11char_traitsIcEENS2_9allocatorIcEEEEbxydS8_NS0_14adl_serializerENS4_IhNS8_IhEEEEvE10json_valueC2Eb, symObjAddr: 0xA2DC, symBinAddr: 0x1000148A4, symSize: 0x2C }
  - { offsetInCU: 0x2B7DD, offset: 0x4ECCA, size: 0x8, addend: 0x0, symName: __ZN8nlohmann16json_abi_v3_11_210basic_jsonINSt3__13mapENS2_6vectorENS2_12basic_stringIcNS2_11char_traitsIcEENS2_9allocatorIcEEEEbxydS8_NS0_14adl_serializerENS4_IhNS8_IhEEEEvE10json_valueC2Ex, symObjAddr: 0xA308, symBinAddr: 0x1000148D0, symSize: 0x20 }
  - { offsetInCU: 0x2B816, offset: 0x4ED03, size: 0x8, addend: 0x0, symName: __ZN8nlohmann16json_abi_v3_11_210basic_jsonINSt3__13mapENS2_6vectorENS2_12basic_stringIcNS2_11char_traitsIcEENS2_9allocatorIcEEEEbxydS8_NS0_14adl_serializerENS4_IhNS8_IhEEEEvE10json_valueC2Ey, symObjAddr: 0xA328, symBinAddr: 0x1000148F0, symSize: 0x20 }
  - { offsetInCU: 0x2B84F, offset: 0x4ED3C, size: 0x8, addend: 0x0, symName: __ZN8nlohmann16json_abi_v3_11_210basic_jsonINSt3__13mapENS2_6vectorENS2_12basic_stringIcNS2_11char_traitsIcEENS2_9allocatorIcEEEEbxydS8_NS0_14adl_serializerENS4_IhNS8_IhEEEEvE10json_valueC2Ed, symObjAddr: 0xA348, symBinAddr: 0x100014910, symSize: 0x20 }
  - { offsetInCU: 0x2B888, offset: 0x4ED75, size: 0x8, addend: 0x0, symName: __ZN8nlohmann16json_abi_v3_11_210basic_jsonINSt3__13mapENS2_6vectorENS2_12basic_stringIcNS2_11char_traitsIcEENS2_9allocatorIcEEEEbxydS8_NS0_14adl_serializerENS4_IhNS8_IhEEEEvE10json_valueC2ERKNS0_27byte_container_with_subtypeISD_EE, symObjAddr: 0xA368, symBinAddr: 0x100014930, symSize: 0x3C }
  - { offsetInCU: 0x2B8C1, offset: 0x4EDAE, size: 0x8, addend: 0x0, symName: __ZN8nlohmann16json_abi_v3_11_210basic_jsonINSt3__13mapENS2_6vectorENS2_12basic_stringIcNS2_11char_traitsIcEENS2_9allocatorIcEEEEbxydS8_NS0_14adl_serializerENS4_IhNS8_IhEEEEvE6createINS0_27byte_container_with_subtypeISD_EEJRKSH_EEEPT_DpOT0_, symObjAddr: 0xA3A4, symBinAddr: 0x10001496C, symSize: 0xF4 }
  - { offsetInCU: 0x2BA13, offset: 0x4EF00, size: 0x8, addend: 0x0, symName: __ZNSt3__110unique_ptrIN8nlohmann16json_abi_v3_11_227byte_container_with_subtypeINS_6vectorIhNS_9allocatorIhEEEEEEZNS2_10basic_jsonINS_3mapES4_NS_12basic_stringIcNS_11char_traitsIcEENS5_IcEEEEbxydS5_NS2_14adl_serializerES7_vE6createIS8_JRKS8_EEEPT_DpOT0_EUlPS8_E_EC1B7v160006ILb1EvEESQ_NS_16__dependent_typeINS_27__unique_ptr_deleter_sfinaeISR_EEXT_EE15__lval_ref_typeE, symObjAddr: 0xA4F0, symBinAddr: 0x100014A60, symSize: 0x3C }
  - { offsetInCU: 0x2BA64, offset: 0x4EF51, size: 0x8, addend: 0x0, symName: __ZNSt3__116allocator_traitsINS_9allocatorIN8nlohmann16json_abi_v3_11_227byte_container_with_subtypeINS_6vectorIhNS1_IhEEEEEEEEE9constructB7v160006IS8_JRKS8_EvEEvRS9_PT_DpOT0_, symObjAddr: 0xA52C, symBinAddr: 0x100014A9C, symSize: 0x34 }
  - { offsetInCU: 0x2BABB, offset: 0x4EFA8, size: 0x8, addend: 0x0, symName: __ZNKSt3__110unique_ptrIN8nlohmann16json_abi_v3_11_227byte_container_with_subtypeINS_6vectorIhNS_9allocatorIhEEEEEEZNS2_10basic_jsonINS_3mapES4_NS_12basic_stringIcNS_11char_traitsIcEENS5_IcEEEEbxydS5_NS2_14adl_serializerES7_vE6createIS8_JRKS8_EEEPT_DpOT0_EUlPS8_E_E3getB7v160006Ev, symObjAddr: 0xA560, symBinAddr: 0x100014AD0, symSize: 0x28 }
  - { offsetInCU: 0x2BAE1, offset: 0x4EFCE, size: 0x8, addend: 0x0, symName: __ZNSt3__110unique_ptrIN8nlohmann16json_abi_v3_11_227byte_container_with_subtypeINS_6vectorIhNS_9allocatorIhEEEEEEZNS2_10basic_jsonINS_3mapES4_NS_12basic_stringIcNS_11char_traitsIcEENS5_IcEEEEbxydS5_NS2_14adl_serializerES7_vE6createIS8_JRKS8_EEEPT_DpOT0_EUlPS8_E_E7releaseB7v160006Ev, symObjAddr: 0xA5B4, symBinAddr: 0x100014B24, symSize: 0x44 }
  - { offsetInCU: 0x2BB16, offset: 0x4F003, size: 0x8, addend: 0x0, symName: __ZNSt3__110unique_ptrIN8nlohmann16json_abi_v3_11_227byte_container_with_subtypeINS_6vectorIhNS_9allocatorIhEEEEEEZNS2_10basic_jsonINS_3mapES4_NS_12basic_stringIcNS_11char_traitsIcEENS5_IcEEEEbxydS5_NS2_14adl_serializerES7_vE6createIS8_JRKS8_EEEPT_DpOT0_EUlPS8_E_ED1B7v160006Ev, symObjAddr: 0xA5F8, symBinAddr: 0x100014B68, symSize: 0x2C }
  - { offsetInCU: 0x2BB4B, offset: 0x4F038, size: 0x8, addend: 0x0, symName: __ZNSt3__110unique_ptrIN8nlohmann16json_abi_v3_11_227byte_container_with_subtypeINS_6vectorIhNS_9allocatorIhEEEEEEZNS2_10basic_jsonINS_3mapES4_NS_12basic_stringIcNS_11char_traitsIcEENS5_IcEEEEbxydS5_NS2_14adl_serializerES7_vE6createIS8_JRKS8_EEEPT_DpOT0_EUlPS8_E_EC2B7v160006ILb1EvEESQ_NS_16__dependent_typeINS_27__unique_ptr_deleter_sfinaeISR_EEXT_EE15__lval_ref_typeE, symObjAddr: 0xA6FC, symBinAddr: 0x100014B94, symSize: 0x48 }
  - { offsetInCU: 0x2BB9C, offset: 0x4F089, size: 0x8, addend: 0x0, symName: __ZNSt3__117__compressed_pairIPN8nlohmann16json_abi_v3_11_227byte_container_with_subtypeINS_6vectorIhNS_9allocatorIhEEEEEEZNS2_10basic_jsonINS_3mapES4_NS_12basic_stringIcNS_11char_traitsIcEENS5_IcEEEEbxydS5_NS2_14adl_serializerES7_vE6createIS8_JRKS8_EEEPT_DpOT0_EUlS9_E_EC1B7v160006IRS9_RKSR_EEOSM_OT0_, symObjAddr: 0xA744, symBinAddr: 0x100014BDC, symSize: 0x3C }
  - { offsetInCU: 0x2BBF4, offset: 0x4F0E1, size: 0x8, addend: 0x0, symName: __ZNSt3__117__compressed_pairIPN8nlohmann16json_abi_v3_11_227byte_container_with_subtypeINS_6vectorIhNS_9allocatorIhEEEEEEZNS2_10basic_jsonINS_3mapES4_NS_12basic_stringIcNS_11char_traitsIcEENS5_IcEEEEbxydS5_NS2_14adl_serializerES7_vE6createIS8_JRKS8_EEEPT_DpOT0_EUlS9_E_EC2B7v160006IRS9_RKSR_EEOSM_OT0_, symObjAddr: 0xA780, symBinAddr: 0x100014C18, symSize: 0x48 }
  - { offsetInCU: 0x2BC4C, offset: 0x4F139, size: 0x8, addend: 0x0, symName: __ZNSt3__122__compressed_pair_elemIZN8nlohmann16json_abi_v3_11_210basic_jsonINS_3mapENS_6vectorENS_12basic_stringIcNS_11char_traitsIcEENS_9allocatorIcEEEEbxydS9_NS2_14adl_serializerENS5_IhNS9_IhEEEEvE6createINS2_27byte_container_with_subtypeISE_EEJRKSI_EEEPT_DpOT0_EUlPSI_E_Li1ELb0EEC2B7v160006IRKSR_vEEOSL_, symObjAddr: 0xA7EC, symBinAddr: 0x100014C60, symSize: 0x24 }
  - { offsetInCU: 0x2BC8E, offset: 0x4F17B, size: 0x8, addend: 0x0, symName: __ZNSt3__19allocatorIN8nlohmann16json_abi_v3_11_227byte_container_with_subtypeINS_6vectorIhNS0_IhEEEEEEE9constructB7v160006IS7_JRKS7_EEEvPT_DpOT0_, symObjAddr: 0xA810, symBinAddr: 0x100014C84, symSize: 0x30 }
  - { offsetInCU: 0x2BCE4, offset: 0x4F1D1, size: 0x8, addend: 0x0, symName: __ZN8nlohmann16json_abi_v3_11_227byte_container_with_subtypeINSt3__16vectorIhNS2_9allocatorIhEEEEEC1ERKS7_, symObjAddr: 0xA840, symBinAddr: 0x100014CB4, symSize: 0x34 }
  - { offsetInCU: 0x2BD1A, offset: 0x4F207, size: 0x8, addend: 0x0, symName: __ZN8nlohmann16json_abi_v3_11_227byte_container_with_subtypeINSt3__16vectorIhNS2_9allocatorIhEEEEEC2ERKS7_, symObjAddr: 0xA874, symBinAddr: 0x100014CE8, symSize: 0x48 }
  - { offsetInCU: 0x2BD50, offset: 0x4F23D, size: 0x8, addend: 0x0, symName: __ZNSt3__16vectorIhNS_9allocatorIhEEEC2ERKS3_, symObjAddr: 0xA8BC, symBinAddr: 0x100014D30, symSize: 0x114 }
  - { offsetInCU: 0x2BDBA, offset: 0x4F2A7, size: 0x8, addend: 0x0, symName: __ZNSt3__116allocator_traitsINS_9allocatorIhEEE37select_on_container_copy_constructionB7v160006IS2_vvEES2_RKS2_, symObjAddr: 0xA9D0, symBinAddr: 0x100014E44, symSize: 0x10 }
  - { offsetInCU: 0x2BDE9, offset: 0x4F2D6, size: 0x8, addend: 0x0, symName: __ZNKSt3__16vectorIhNS_9allocatorIhEEE7__allocB7v160006Ev, symObjAddr: 0xA9E0, symBinAddr: 0x100014E54, symSize: 0x28 }
  - { offsetInCU: 0x2BE15, offset: 0x4F302, size: 0x8, addend: 0x0, symName: __ZNSt3__117__compressed_pairIPhNS_9allocatorIhEEEC1B7v160006IDnS3_EEOT_OT0_, symObjAddr: 0xAA08, symBinAddr: 0x100014E7C, symSize: 0x3C }
  - { offsetInCU: 0x2BE6D, offset: 0x4F35A, size: 0x8, addend: 0x0, symName: __ZNSt3__16vectorIhNS_9allocatorIhEEE11__vallocateB7v160006Em, symObjAddr: 0xAAE8, symBinAddr: 0x100014EF8, symSize: 0xAC }
  - { offsetInCU: 0x2BEB1, offset: 0x4F39E, size: 0x8, addend: 0x0, symName: __ZNSt3__16vectorIhNS_9allocatorIhEEE18__construct_at_endIPhLi0EEEvT_S6_m, symObjAddr: 0xAB94, symBinAddr: 0x100014FA4, symSize: 0x8C }
  - { offsetInCU: 0x2BF24, offset: 0x4F411, size: 0x8, addend: 0x0, symName: __ZNSt3__128__exception_guard_exceptionsINS_6vectorIhNS_9allocatorIhEEE16__destroy_vectorEE10__completeB7v160006Ev, symObjAddr: 0xAC20, symBinAddr: 0x100015030, symSize: 0x1C }
  - { offsetInCU: 0x2BF4A, offset: 0x4F437, size: 0x8, addend: 0x0, symName: __ZNSt3__128__exception_guard_exceptionsINS_6vectorIhNS_9allocatorIhEEE16__destroy_vectorEED1B7v160006Ev, symObjAddr: 0xAC3C, symBinAddr: 0x10001504C, symSize: 0x2C }
  - { offsetInCU: 0x2BF74, offset: 0x4F461, size: 0x8, addend: 0x0, symName: __ZNKSt3__117__compressed_pairIPhNS_9allocatorIhEEE6secondB7v160006Ev, symObjAddr: 0xAC68, symBinAddr: 0x100015078, symSize: 0x24 }
  - { offsetInCU: 0x2BF9A, offset: 0x4F487, size: 0x8, addend: 0x0, symName: __ZNKSt3__122__compressed_pair_elemINS_9allocatorIhEELi1ELb1EE5__getB7v160006Ev, symObjAddr: 0xAC8C, symBinAddr: 0x10001509C, symSize: 0x14 }
  - { offsetInCU: 0x2BFC0, offset: 0x4F4AD, size: 0x8, addend: 0x0, symName: __ZNSt3__117__compressed_pairIPhNS_9allocatorIhEEEC2B7v160006IDnS3_EEOT_OT0_, symObjAddr: 0xACA0, symBinAddr: 0x1000150B0, symSize: 0x44 }
  - { offsetInCU: 0x2C018, offset: 0x4F505, size: 0x8, addend: 0x0, symName: __ZNSt3__122__compressed_pair_elemINS_9allocatorIhEELi1ELb1EEC2B7v160006IS2_vEEOT_, symObjAddr: 0xAD00, symBinAddr: 0x1000150F4, symSize: 0x18 }
  - { offsetInCU: 0x2C05A, offset: 0x4F547, size: 0x8, addend: 0x0, symName: __ZNSt3__128__exception_guard_exceptionsINS_6vectorIhNS_9allocatorIhEEE16__destroy_vectorEEC1B7v160006ES5_, symObjAddr: 0xAD18, symBinAddr: 0x10001510C, symSize: 0x34 }
  - { offsetInCU: 0x2C092, offset: 0x4F57F, size: 0x8, addend: 0x0, symName: __ZNSt3__128__exception_guard_exceptionsINS_6vectorIhNS_9allocatorIhEEE16__destroy_vectorEEC2B7v160006ES5_, symObjAddr: 0xAD4C, symBinAddr: 0x100015140, symSize: 0x24 }
  - { offsetInCU: 0x2C0CA, offset: 0x4F5B7, size: 0x8, addend: 0x0, symName: __ZNKSt3__16vectorIhNS_9allocatorIhEEE8max_sizeEv, symObjAddr: 0xAD90, symBinAddr: 0x100015164, symSize: 0x60 }
  - { offsetInCU: 0x2C0F2, offset: 0x4F5DF, size: 0x8, addend: 0x0, symName: __ZNKSt3__16vectorIhNS_9allocatorIhEEE20__throw_length_errorB7v160006Ev, symObjAddr: 0xADF0, symBinAddr: 0x1000151C4, symSize: 0x1C }
  - { offsetInCU: 0x2C118, offset: 0x4F605, size: 0x8, addend: 0x0, symName: __ZNSt3__16vectorIhNS_9allocatorIhEEE9__end_capB7v160006Ev, symObjAddr: 0xAE74, symBinAddr: 0x100015220, symSize: 0x28 }
  - { offsetInCU: 0x2C13E, offset: 0x4F62B, size: 0x8, addend: 0x0, symName: __ZNKSt3__16vectorIhNS_9allocatorIhEEE14__annotate_newB7v160006Em, symObjAddr: 0xAE9C, symBinAddr: 0x100015248, symSize: 0xAC }
  - { offsetInCU: 0x2C173, offset: 0x4F660, size: 0x8, addend: 0x0, symName: __ZNSt3__116allocator_traitsINS_9allocatorIhEEE8max_sizeB7v160006IS2_vEEmRKS2_, symObjAddr: 0xAF48, symBinAddr: 0x1000152F4, symSize: 0x24 }
  - { offsetInCU: 0x2C1A1, offset: 0x4F68E, size: 0x8, addend: 0x0, symName: __ZNKSt3__19allocatorIhE8max_sizeB7v160006Ev, symObjAddr: 0xAF6C, symBinAddr: 0x100015318, symSize: 0x14 }
  - { offsetInCU: 0x2C1C7, offset: 0x4F6B4, size: 0x8, addend: 0x0, symName: __ZNSt3__19allocatorIhE8allocateB7v160006Em, symObjAddr: 0xAF80, symBinAddr: 0x10001532C, symSize: 0x58 }
  - { offsetInCU: 0x2C1FB, offset: 0x4F6E8, size: 0x8, addend: 0x0, symName: __ZNSt3__117__compressed_pairIPhNS_9allocatorIhEEE5firstB7v160006Ev, symObjAddr: 0xB010, symBinAddr: 0x100015384, symSize: 0x24 }
  - { offsetInCU: 0x2C221, offset: 0x4F70E, size: 0x8, addend: 0x0, symName: __ZNSt3__122__compressed_pair_elemIPhLi0ELb0EE5__getB7v160006Ev, symObjAddr: 0xB034, symBinAddr: 0x1000153A8, symSize: 0x14 }
  - { offsetInCU: 0x2C263, offset: 0x4F750, size: 0x8, addend: 0x0, symName: __ZNSt3__16vectorIhNS_9allocatorIhEEE21_ConstructTransactionC1B7v160006ERS3_m, symObjAddr: 0xB13C, symBinAddr: 0x1000153BC, symSize: 0x3C }
  - { offsetInCU: 0x2C2AB, offset: 0x4F798, size: 0x8, addend: 0x0, symName: __ZNSt3__16vectorIhNS_9allocatorIhEEE21_ConstructTransactionD1B7v160006Ev, symObjAddr: 0xB26C, symBinAddr: 0x1000154EC, symSize: 0x2C }
  - { offsetInCU: 0x2C2D5, offset: 0x4F7C2, size: 0x8, addend: 0x0, symName: __ZNSt3__16vectorIhNS_9allocatorIhEEE21_ConstructTransactionC2B7v160006ERS3_m, symObjAddr: 0xB298, symBinAddr: 0x100015518, symSize: 0x44 }
  - { offsetInCU: 0x2C31D, offset: 0x4F80A, size: 0x8, addend: 0x0, symName: __ZNSt3__129_AllocatorDestroyRangeReverseINS_9allocatorIhEEPhEC1B7v160006ERS2_RS3_S6_, symObjAddr: 0xB328, symBinAddr: 0x1000155A8, symSize: 0x44 }
  - { offsetInCU: 0x2C374, offset: 0x4F861, size: 0x8, addend: 0x0, symName: __ZNSt3__116allocator_traitsINS_9allocatorIhEEE9constructB7v160006IhJRhEvEEvRS2_PT_DpOT0_, symObjAddr: 0xB36C, symBinAddr: 0x1000155EC, symSize: 0x34 }
  - { offsetInCU: 0x2C3CB, offset: 0x4F8B8, size: 0x8, addend: 0x0, symName: __ZNSt3__128__exception_guard_exceptionsINS_29_AllocatorDestroyRangeReverseINS_9allocatorIhEEPhEEE10__completeB7v160006Ev, symObjAddr: 0xB3A0, symBinAddr: 0x100015620, symSize: 0x1C }
  - { offsetInCU: 0x2C3F1, offset: 0x4F8DE, size: 0x8, addend: 0x0, symName: __ZNSt3__128__exception_guard_exceptionsINS_29_AllocatorDestroyRangeReverseINS_9allocatorIhEEPhEEED1B7v160006Ev, symObjAddr: 0xB3BC, symBinAddr: 0x10001563C, symSize: 0x2C }
  - { offsetInCU: 0x2C41B, offset: 0x4F908, size: 0x8, addend: 0x0, symName: __ZNSt3__128__exception_guard_exceptionsINS_29_AllocatorDestroyRangeReverseINS_9allocatorIhEEPhEEEC1B7v160006ES5_, symObjAddr: 0xB3E8, symBinAddr: 0x100015668, symSize: 0x34 }
  - { offsetInCU: 0x2C454, offset: 0x4F941, size: 0x8, addend: 0x0, symName: __ZNSt3__128__exception_guard_exceptionsINS_29_AllocatorDestroyRangeReverseINS_9allocatorIhEEPhEEEC2B7v160006ES5_, symObjAddr: 0xB41C, symBinAddr: 0x10001569C, symSize: 0x30 }
  - { offsetInCU: 0x2C48D, offset: 0x4F97A, size: 0x8, addend: 0x0, symName: __ZNSt3__129_AllocatorDestroyRangeReverseINS_9allocatorIhEEPhEC2B7v160006ERS2_RS3_S6_, symObjAddr: 0xB44C, symBinAddr: 0x1000156CC, symSize: 0x38 }
  - { offsetInCU: 0x2C4E4, offset: 0x4F9D1, size: 0x8, addend: 0x0, symName: __ZNSt3__19allocatorIhE9constructB7v160006IhJRhEEEvPT_DpOT0_, symObjAddr: 0xB484, symBinAddr: 0x100015704, symSize: 0x28 }
  - { offsetInCU: 0x2C53A, offset: 0x4FA27, size: 0x8, addend: 0x0, symName: __ZNSt3__128__exception_guard_exceptionsINS_29_AllocatorDestroyRangeReverseINS_9allocatorIhEEPhEEED2B7v160006Ev, symObjAddr: 0xB4AC, symBinAddr: 0x10001572C, symSize: 0x50 }
  - { offsetInCU: 0x2C564, offset: 0x4FA51, size: 0x8, addend: 0x0, symName: __ZNKSt3__129_AllocatorDestroyRangeReverseINS_9allocatorIhEEPhEclB7v160006Ev, symObjAddr: 0xB4FC, symBinAddr: 0x10001577C, symSize: 0x68 }
  - { offsetInCU: 0x2C58A, offset: 0x4FA77, size: 0x8, addend: 0x0, symName: __ZNSt3__116reverse_iteratorIPhEC1B7v160006ES1_, symObjAddr: 0xB5D4, symBinAddr: 0x100015854, symSize: 0x34 }
  - { offsetInCU: 0x2C5C2, offset: 0x4FAAF, size: 0x8, addend: 0x0, symName: __ZNSt3__116reverse_iteratorIPhEppB7v160006Ev, symObjAddr: 0xB6A0, symBinAddr: 0x1000158F4, symSize: 0x20 }
  - { offsetInCU: 0x2C5E8, offset: 0x4FAD5, size: 0x8, addend: 0x0, symName: __ZNKSt3__116reverse_iteratorIPhE4baseB7v160006Ev, symObjAddr: 0xB6C0, symBinAddr: 0x100015914, symSize: 0x18 }
  - { offsetInCU: 0x2C614, offset: 0x4FB01, size: 0x8, addend: 0x0, symName: __ZNSt3__119__to_address_helperINS_16reverse_iteratorIPhEEvE6__callB7v160006ERKS3_, symObjAddr: 0xB6EC, symBinAddr: 0x10001592C, symSize: 0x38 }
  - { offsetInCU: 0x2C637, offset: 0x4FB24, size: 0x8, addend: 0x0, symName: __ZNKSt3__116reverse_iteratorIPhEptB7v160006Ev, symObjAddr: 0xB724, symBinAddr: 0x100015964, symSize: 0x24 }
  - { offsetInCU: 0x2C65D, offset: 0x4FB4A, size: 0x8, addend: 0x0, symName: __ZNKSt3__116reverse_iteratorIPhEdeB7v160006Ev, symObjAddr: 0xB748, symBinAddr: 0x100015988, symSize: 0x28 }
  - { offsetInCU: 0x2C692, offset: 0x4FB7F, size: 0x8, addend: 0x0, symName: __ZNSt3__116reverse_iteratorIPhEC2B7v160006ES1_, symObjAddr: 0xB770, symBinAddr: 0x1000159B0, symSize: 0x28 }
  - { offsetInCU: 0x2C6CA, offset: 0x4FBB7, size: 0x8, addend: 0x0, symName: __ZNSt3__16vectorIhNS_9allocatorIhEEE21_ConstructTransactionD2B7v160006Ev, symObjAddr: 0xB798, symBinAddr: 0x1000159D8, symSize: 0x20 }
  - { offsetInCU: 0x2C6F4, offset: 0x4FBE1, size: 0x8, addend: 0x0, symName: __ZNSt3__128__exception_guard_exceptionsINS_6vectorIhNS_9allocatorIhEEE16__destroy_vectorEED2B7v160006Ev, symObjAddr: 0xB7B8, symBinAddr: 0x1000159F8, symSize: 0x50 }
  - { offsetInCU: 0x2C71E, offset: 0x4FC0B, size: 0x8, addend: 0x0, symName: __ZNKSt3__117__compressed_pairIPN8nlohmann16json_abi_v3_11_227byte_container_with_subtypeINS_6vectorIhNS_9allocatorIhEEEEEEZNS2_10basic_jsonINS_3mapES4_NS_12basic_stringIcNS_11char_traitsIcEENS5_IcEEEEbxydS5_NS2_14adl_serializerES7_vE6createIS8_JRKS8_EEEPT_DpOT0_EUlS9_E_E5firstB7v160006Ev, symObjAddr: 0xBA94, symBinAddr: 0x100015A48, symSize: 0x24 }
  - { offsetInCU: 0x2C744, offset: 0x4FC31, size: 0x8, addend: 0x0, symName: __ZNKSt3__110unique_ptrIN8nlohmann16json_abi_v3_11_227byte_container_with_subtypeINS_6vectorIhNS_9allocatorIhEEEEEEZNS2_10basic_jsonINS_3mapES4_NS_12basic_stringIcNS_11char_traitsIcEENS5_IcEEEEbxydS5_NS2_14adl_serializerES7_vE6createIS8_JRKS8_EEEPT_DpOT0_EUlPS8_E_EcvbB7v160006Ev, symObjAddr: 0xBACC, symBinAddr: 0x100015A6C, symSize: 0x34 }
  - { offsetInCU: 0x2C76A, offset: 0x4FC57, size: 0x8, addend: 0x0, symName: __ZNSt3__117__compressed_pairIPN8nlohmann16json_abi_v3_11_227byte_container_with_subtypeINS_6vectorIhNS_9allocatorIhEEEEEEZNS2_10basic_jsonINS_3mapES4_NS_12basic_stringIcNS_11char_traitsIcEENS5_IcEEEEbxydS5_NS2_14adl_serializerES7_vE6createIS8_JRKS8_EEEPT_DpOT0_EUlS9_E_E5firstB7v160006Ev, symObjAddr: 0xBB00, symBinAddr: 0x100015AA0, symSize: 0x24 }
  - { offsetInCU: 0x2C790, offset: 0x4FC7D, size: 0x8, addend: 0x0, symName: __ZNSt3__110unique_ptrIN8nlohmann16json_abi_v3_11_227byte_container_with_subtypeINS_6vectorIhNS_9allocatorIhEEEEEEZNS2_10basic_jsonINS_3mapES4_NS_12basic_stringIcNS_11char_traitsIcEENS5_IcEEEEbxydS5_NS2_14adl_serializerES7_vE6createIS8_JRKS8_EEEPT_DpOT0_EUlPS8_E_ED2B7v160006Ev, symObjAddr: 0xBB38, symBinAddr: 0x100015AC4, symSize: 0x30 }
  - { offsetInCU: 0x2C7BA, offset: 0x4FCA7, size: 0x8, addend: 0x0, symName: __ZNSt3__110unique_ptrIN8nlohmann16json_abi_v3_11_227byte_container_with_subtypeINS_6vectorIhNS_9allocatorIhEEEEEEZNS2_10basic_jsonINS_3mapES4_NS_12basic_stringIcNS_11char_traitsIcEENS5_IcEEEEbxydS5_NS2_14adl_serializerES7_vE6createIS8_JRKS8_EEEPT_DpOT0_EUlPS8_E_E5resetB7v160006ESQ_, symObjAddr: 0xBB68, symBinAddr: 0x100015AF4, symSize: 0x80 }
  - { offsetInCU: 0x2C7FE, offset: 0x4FCEB, size: 0x8, addend: 0x0, symName: __ZNSt3__117__compressed_pairIPN8nlohmann16json_abi_v3_11_227byte_container_with_subtypeINS_6vectorIhNS_9allocatorIhEEEEEEZNS2_10basic_jsonINS_3mapES4_NS_12basic_stringIcNS_11char_traitsIcEENS5_IcEEEEbxydS5_NS2_14adl_serializerES7_vE6createIS8_JRKS8_EEEPT_DpOT0_EUlS9_E_E6secondB7v160006Ev, symObjAddr: 0xBBE8, symBinAddr: 0x100015B74, symSize: 0x28 }
  - { offsetInCU: 0x2C82A, offset: 0x4FD17, size: 0x8, addend: 0x0, symName: __ZZN8nlohmann16json_abi_v3_11_210basic_jsonINSt3__13mapENS2_6vectorENS2_12basic_stringIcNS2_11char_traitsIcEENS2_9allocatorIcEEEEbxydS8_NS0_14adl_serializerENS4_IhNS8_IhEEEEvE6createINS0_27byte_container_with_subtypeISD_EEJRKSH_EEEPT_DpOT0_ENKUlPSH_E_clESP_, symObjAddr: 0xBC10, symBinAddr: 0x100015B9C, symSize: 0x34 }
  - { offsetInCU: 0x2C863, offset: 0x4FD50, size: 0x8, addend: 0x0, symName: __ZNSt3__122__compressed_pair_elemIZN8nlohmann16json_abi_v3_11_210basic_jsonINS_3mapENS_6vectorENS_12basic_stringIcNS_11char_traitsIcEENS_9allocatorIcEEEEbxydS9_NS2_14adl_serializerENS5_IhNS9_IhEEEEvE6createINS2_27byte_container_with_subtypeISE_EEJRKSI_EEEPT_DpOT0_EUlPSI_E_Li1ELb0EE5__getB7v160006Ev, symObjAddr: 0xBC44, symBinAddr: 0x100015BD0, symSize: 0x14 }
  - { offsetInCU: 0x2C8BD, offset: 0x4FDAA, size: 0x8, addend: 0x0, symName: __ZNSt3__112basic_stringIcNS_11char_traitsIcEENS_9allocatorIcEEE13__move_assignB7v160006ERS5_NS_17integral_constantIbLb1EEE, symObjAddr: 0xE850, symBinAddr: 0x100015C0C, symSize: 0xC8 }
  - { offsetInCU: 0x2C8FF, offset: 0x4FDEC, size: 0x8, addend: 0x0, symName: __ZNSt3__116allocator_traitsINS_9allocatorIcEEE10deallocateB7v160006ERS2_Pcm, symObjAddr: 0xE918, symBinAddr: 0x100015CD4, symSize: 0x34 }
  - { offsetInCU: 0x2C941, offset: 0x4FE2E, size: 0x8, addend: 0x0, symName: __ZNSt3__112basic_stringIcNS_11char_traitsIcEENS_9allocatorIcEEE7__allocB7v160006Ev, symObjAddr: 0xE94C, symBinAddr: 0x100015D08, symSize: 0x24 }
  - { offsetInCU: 0x2C967, offset: 0x4FE54, size: 0x8, addend: 0x0, symName: __ZNKSt3__112basic_stringIcNS_11char_traitsIcEENS_9allocatorIcEEE14__get_long_capB7v160006Ev, symObjAddr: 0xE998, symBinAddr: 0x100015D2C, symSize: 0x30 }
  - { offsetInCU: 0x2C98D, offset: 0x4FE7A, size: 0x8, addend: 0x0, symName: __ZNSt3__112basic_stringIcNS_11char_traitsIcEENS_9allocatorIcEEE19__move_assign_allocB7v160006ERS5_, symObjAddr: 0xE9C8, symBinAddr: 0x100015D5C, symSize: 0x2C }
  - { offsetInCU: 0x2C9C2, offset: 0x4FEAF, size: 0x8, addend: 0x0, symName: __ZNSt3__112basic_stringIcNS_11char_traitsIcEENS_9allocatorIcEEE16__set_short_sizeB7v160006Em, symObjAddr: 0xE9F4, symBinAddr: 0x100015D88, symSize: 0x78 }
  - { offsetInCU: 0x2C9F7, offset: 0x4FEE4, size: 0x8, addend: 0x0, symName: __ZNSt3__111char_traitsIcE6assignERcRKc, symObjAddr: 0xEA6C, symBinAddr: 0x100015E00, symSize: 0x24 }
  - { offsetInCU: 0x2CA28, offset: 0x4FF15, size: 0x8, addend: 0x0, symName: __ZNSt3__19allocatorIcE10deallocateB7v160006EPcm, symObjAddr: 0xEAB8, symBinAddr: 0x100015E24, symSize: 0x40 }
  - { offsetInCU: 0x2CA6A, offset: 0x4FF57, size: 0x8, addend: 0x0, symName: __ZNSt3__117__compressed_pairINS_12basic_stringIcNS_11char_traitsIcEENS_9allocatorIcEEE5__repES5_E6secondB7v160006Ev, symObjAddr: 0xEAF8, symBinAddr: 0x100015E64, symSize: 0x24 }
  - { offsetInCU: 0x2CA90, offset: 0x4FF7D, size: 0x8, addend: 0x0, symName: __ZNSt3__122__compressed_pair_elemINS_9allocatorIcEELi1ELb1EE5__getB7v160006Ev, symObjAddr: 0xEB1C, symBinAddr: 0x100015E88, symSize: 0x14 }
  - { offsetInCU: 0x2CAB6, offset: 0x4FFA3, size: 0x8, addend: 0x0, symName: __ZNSt3__112basic_stringIcNS_11char_traitsIcEENS_9allocatorIcEEE19__move_assign_allocB7v160006ERS5_NS_17integral_constantIbLb1EEE, symObjAddr: 0xEB30, symBinAddr: 0x100015E9C, symSize: 0x38 }
  - { offsetInCU: 0x2CAFC, offset: 0x4FFE9, size: 0x8, addend: 0x0, symName: __ZNSt3__18functionIFvRN8nlohmann16json_abi_v3_11_210basic_jsonINS_3mapENS_6vectorENS_12basic_stringIcNS_11char_traitsIcEENS_9allocatorIcEEEEbxydS9_NS2_14adl_serializerENS5_IhNS9_IhEEEEvEEEEC2B7v160006Ev, symObjAddr: 0xF4CC, symBinAddr: 0x100015ED4, symSize: 0x2C }
  - { offsetInCU: 0x2CB26, offset: 0x50013, size: 0x8, addend: 0x0, symName: __ZNSt3__110__function12__value_funcIFvRN8nlohmann16json_abi_v3_11_210basic_jsonINS_3mapENS_6vectorENS_12basic_stringIcNS_11char_traitsIcEENS_9allocatorIcEEEEbxydSA_NS3_14adl_serializerENS6_IhNSA_IhEEEEvEEEEC1B7v160006Ev, symObjAddr: 0xF4F8, symBinAddr: 0x100015F00, symSize: 0x2C }
  - { offsetInCU: 0x2CB50, offset: 0x5003D, size: 0x8, addend: 0x0, symName: __ZNSt3__110__function12__value_funcIFvRN8nlohmann16json_abi_v3_11_210basic_jsonINS_3mapENS_6vectorENS_12basic_stringIcNS_11char_traitsIcEENS_9allocatorIcEEEEbxydSA_NS3_14adl_serializerENS6_IhNSA_IhEEEEvEEEEC2B7v160006Ev, symObjAddr: 0xF524, symBinAddr: 0x100015F2C, symSize: 0x18 }
  - { offsetInCU: 0x2CB7A, offset: 0x50067, size: 0x8, addend: 0x0, symName: __ZN8nlohmann16json_abi_v3_11_26detail11parse_errorC2ERKS2_, symObjAddr: 0xF53C, symBinAddr: 0x100015F44, symSize: 0x58 }
  - { offsetInCU: 0x2CBB6, offset: 0x500A3, size: 0x8, addend: 0x0, symName: __ZN8nlohmann16json_abi_v3_11_26detail9exceptionC2ERKS2_, symObjAddr: 0xF594, symBinAddr: 0x100015F9C, symSize: 0x6C }
  - { offsetInCU: 0x2CBEC, offset: 0x500D9, size: 0x8, addend: 0x0, symName: __ZN8nlohmann16json_abi_v3_11_26detail11parse_errorD0Ev, symObjAddr: 0xF600, symBinAddr: 0x100016008, symSize: 0x30 }
  - { offsetInCU: 0x2CC19, offset: 0x50106, size: 0x8, addend: 0x0, symName: __ZNSt9exceptionC2B7v160006ERKS_, symObjAddr: 0xF658, symBinAddr: 0x100016038, symSize: 0x28 }
  - { offsetInCU: 0x2CC4E, offset: 0x5013B, size: 0x8, addend: 0x0, symName: __ZN8nlohmann16json_abi_v3_11_26detail11parse_errorD2Ev, symObjAddr: 0xF724, symBinAddr: 0x100016060, symSize: 0x2C }
  - { offsetInCU: 0x2CC7B, offset: 0x50168, size: 0x8, addend: 0x0, symName: __ZNSt3__16vectorINS_12basic_stringIcNS_11char_traitsIcEENS_9allocatorIcEEEENS4_IS6_EEED2B7v160006Ev, symObjAddr: 0xF844, symBinAddr: 0x10001608C, symSize: 0x44 }
  - { offsetInCU: 0x2CCA5, offset: 0x50192, size: 0x8, addend: 0x0, symName: __ZNSt3__16vectorINS_12basic_stringIcNS_11char_traitsIcEENS_9allocatorIcEEEENS4_IS6_EEE16__destroy_vectorC1ERS8_, symObjAddr: 0xF888, symBinAddr: 0x1000160D0, symSize: 0x34 }
  - { offsetInCU: 0x2CCDE, offset: 0x501CB, size: 0x8, addend: 0x0, symName: __ZNSt3__16vectorINS_12basic_stringIcNS_11char_traitsIcEENS_9allocatorIcEEEENS4_IS6_EEE16__destroy_vectorclB7v160006Ev, symObjAddr: 0xF8BC, symBinAddr: 0x100016104, symSize: 0x9C }
  - { offsetInCU: 0x2CD04, offset: 0x501F1, size: 0x8, addend: 0x0, symName: __ZNSt3__16vectorINS_12basic_stringIcNS_11char_traitsIcEENS_9allocatorIcEEEENS4_IS6_EEE16__destroy_vectorC2ERS8_, symObjAddr: 0xF958, symBinAddr: 0x1000161A0, symSize: 0x20 }
  - { offsetInCU: 0x2CD3D, offset: 0x5022A, size: 0x8, addend: 0x0, symName: __ZNKSt3__16vectorINS_12basic_stringIcNS_11char_traitsIcEENS_9allocatorIcEEEENS4_IS6_EEE17__annotate_deleteB7v160006Ev, symObjAddr: 0xF978, symBinAddr: 0x1000161C0, symSize: 0xD4 }
  - { offsetInCU: 0x2CD63, offset: 0x50250, size: 0x8, addend: 0x0, symName: __ZNSt3__16vectorINS_12basic_stringIcNS_11char_traitsIcEENS_9allocatorIcEEEENS4_IS6_EEE7__clearB7v160006Ev, symObjAddr: 0xFA5C, symBinAddr: 0x1000162A4, symSize: 0x28 }
  - { offsetInCU: 0x2CD89, offset: 0x50276, size: 0x8, addend: 0x0, symName: __ZNSt3__16vectorINS_12basic_stringIcNS_11char_traitsIcEENS_9allocatorIcEEEENS4_IS6_EEE7__allocB7v160006Ev, symObjAddr: 0xFA84, symBinAddr: 0x1000162CC, symSize: 0x28 }
  - { offsetInCU: 0x2CDAF, offset: 0x5029C, size: 0x8, addend: 0x0, symName: __ZNKSt3__16vectorINS_12basic_stringIcNS_11char_traitsIcEENS_9allocatorIcEEEENS4_IS6_EEE8capacityB7v160006Ev, symObjAddr: 0xFAAC, symBinAddr: 0x1000162F4, symSize: 0x40 }
  - { offsetInCU: 0x2CDD5, offset: 0x502C2, size: 0x8, addend: 0x0, symName: __ZNKSt3__16vectorINS_12basic_stringIcNS_11char_traitsIcEENS_9allocatorIcEEEENS4_IS6_EEE31__annotate_contiguous_containerB7v160006EPKvSA_SA_SA_, symObjAddr: 0xFAEC, symBinAddr: 0x100016334, symSize: 0x20 }
  - { offsetInCU: 0x2CE27, offset: 0x50314, size: 0x8, addend: 0x0, symName: __ZNKSt3__16vectorINS_12basic_stringIcNS_11char_traitsIcEENS_9allocatorIcEEEENS4_IS6_EEE4dataB7v160006Ev, symObjAddr: 0xFB0C, symBinAddr: 0x100016354, symSize: 0x28 }
  - { offsetInCU: 0x2CE4D, offset: 0x5033A, size: 0x8, addend: 0x0, symName: __ZNSt3__16vectorINS_12basic_stringIcNS_11char_traitsIcEENS_9allocatorIcEEEENS4_IS6_EEE22__base_destruct_at_endB7v160006EPS6_, symObjAddr: 0xFB48, symBinAddr: 0x100016390, symSize: 0x8C }
  - { offsetInCU: 0x2CE91, offset: 0x5037E, size: 0x8, addend: 0x0, symName: __ZNSt3__117__compressed_pairIPNS_12basic_stringIcNS_11char_traitsIcEENS_9allocatorIcEEEENS4_IS6_EEE6secondB7v160006Ev, symObjAddr: 0xFBD4, symBinAddr: 0x10001641C, symSize: 0x24 }
  - { offsetInCU: 0x2CEB7, offset: 0x503A4, size: 0x8, addend: 0x0, symName: __ZNSt3__122__compressed_pair_elemINS_9allocatorINS_12basic_stringIcNS_11char_traitsIcEENS1_IcEEEEEELi1ELb1EE5__getB7v160006Ev, symObjAddr: 0xFBF8, symBinAddr: 0x100016440, symSize: 0x14 }
  - { offsetInCU: 0x2CEDD, offset: 0x503CA, size: 0x8, addend: 0x0, symName: __ZNKSt3__16vectorINS_12basic_stringIcNS_11char_traitsIcEENS_9allocatorIcEEEENS4_IS6_EEE9__end_capB7v160006Ev, symObjAddr: 0xFC0C, symBinAddr: 0x100016454, symSize: 0x28 }
  - { offsetInCU: 0x2CF03, offset: 0x503F0, size: 0x8, addend: 0x0, symName: __ZNKSt3__117__compressed_pairIPNS_12basic_stringIcNS_11char_traitsIcEENS_9allocatorIcEEEENS4_IS6_EEE5firstB7v160006Ev, symObjAddr: 0xFC34, symBinAddr: 0x10001647C, symSize: 0x24 }
  - { offsetInCU: 0x2CF35, offset: 0x50422, size: 0x8, addend: 0x0, symName: __ZNSt3__16vectorINS_12basic_stringIcNS_11char_traitsIcEENS_9allocatorIcEEEENS4_IS6_EEEC2B7v160006ESt16initializer_listIS6_E, symObjAddr: 0x13274, symBinAddr: 0x1000164F0, symSize: 0x124 }
  - { offsetInCU: 0x2CF86, offset: 0x50473, size: 0x8, addend: 0x0, symName: __ZNSt3__117__compressed_pairIPNS_12basic_stringIcNS_11char_traitsIcEENS_9allocatorIcEEEENS4_IS6_EEEC1B7v160006IDnNS_18__default_init_tagEEEOT_OT0_, symObjAddr: 0x13398, symBinAddr: 0x100016614, symSize: 0x3C }
  - { offsetInCU: 0x2CFDE, offset: 0x504CB, size: 0x8, addend: 0x0, symName: __ZNKSt16initializer_listINSt3__112basic_stringIcNS0_11char_traitsIcEENS0_9allocatorIcEEEEE4sizeB7v160006Ev, symObjAddr: 0x13424, symBinAddr: 0x1000166A0, symSize: 0x18 }
  - { offsetInCU: 0x2D004, offset: 0x504F1, size: 0x8, addend: 0x0, symName: __ZNSt3__16vectorINS_12basic_stringIcNS_11char_traitsIcEENS_9allocatorIcEEEENS4_IS6_EEE11__vallocateB7v160006Em, symObjAddr: 0x1343C, symBinAddr: 0x1000166B8, symSize: 0xB4 }
  - { offsetInCU: 0x2D048, offset: 0x50535, size: 0x8, addend: 0x0, symName: __ZNSt3__16vectorINS_12basic_stringIcNS_11char_traitsIcEENS_9allocatorIcEEEENS4_IS6_EEE18__construct_at_endIPKS6_Li0EEEvT_SC_m, symObjAddr: 0x134F0, symBinAddr: 0x10001676C, symSize: 0x8C }
  - { offsetInCU: 0x2D0BB, offset: 0x505A8, size: 0x8, addend: 0x0, symName: __ZNKSt16initializer_listINSt3__112basic_stringIcNS0_11char_traitsIcEENS0_9allocatorIcEEEEE5beginB7v160006Ev, symObjAddr: 0x1357C, symBinAddr: 0x1000167F8, symSize: 0x18 }
  - { offsetInCU: 0x2D0E1, offset: 0x505CE, size: 0x8, addend: 0x0, symName: __ZNKSt16initializer_listINSt3__112basic_stringIcNS0_11char_traitsIcEENS0_9allocatorIcEEEEE3endB7v160006Ev, symObjAddr: 0x13594, symBinAddr: 0x100016810, symSize: 0x28 }
  - { offsetInCU: 0x2D107, offset: 0x505F4, size: 0x8, addend: 0x0, symName: __ZNSt3__128__exception_guard_exceptionsINS_6vectorINS_12basic_stringIcNS_11char_traitsIcEENS_9allocatorIcEEEENS5_IS7_EEE16__destroy_vectorEE10__completeB7v160006Ev, symObjAddr: 0x135BC, symBinAddr: 0x100016838, symSize: 0x1C }
  - { offsetInCU: 0x2D12D, offset: 0x5061A, size: 0x8, addend: 0x0, symName: __ZNSt3__128__exception_guard_exceptionsINS_6vectorINS_12basic_stringIcNS_11char_traitsIcEENS_9allocatorIcEEEENS5_IS7_EEE16__destroy_vectorEED1B7v160006Ev, symObjAddr: 0x135D8, symBinAddr: 0x100016854, symSize: 0x2C }
  - { offsetInCU: 0x2D157, offset: 0x50644, size: 0x8, addend: 0x0, symName: __ZNSt3__117__compressed_pairIPNS_12basic_stringIcNS_11char_traitsIcEENS_9allocatorIcEEEENS4_IS6_EEEC2B7v160006IDnNS_18__default_init_tagEEEOT_OT0_, symObjAddr: 0x13604, symBinAddr: 0x100016880, symSize: 0x40 }
  - { offsetInCU: 0x2D1AF, offset: 0x5069C, size: 0x8, addend: 0x0, symName: __ZNSt3__122__compressed_pair_elemIPNS_12basic_stringIcNS_11char_traitsIcEENS_9allocatorIcEEEELi0ELb0EEC2B7v160006IDnvEEOT_, symObjAddr: 0x13644, symBinAddr: 0x1000168C0, symSize: 0x1C }
  - { offsetInCU: 0x2D1F1, offset: 0x506DE, size: 0x8, addend: 0x0, symName: __ZNSt3__122__compressed_pair_elemINS_9allocatorINS_12basic_stringIcNS_11char_traitsIcEENS1_IcEEEEEELi1ELb1EEC2B7v160006ENS_18__default_init_tagE, symObjAddr: 0x13660, symBinAddr: 0x1000168DC, symSize: 0x2C }
  - { offsetInCU: 0x2D226, offset: 0x50713, size: 0x8, addend: 0x0, symName: __ZNSt3__128__exception_guard_exceptionsINS_6vectorINS_12basic_stringIcNS_11char_traitsIcEENS_9allocatorIcEEEENS5_IS7_EEE16__destroy_vectorEEC1B7v160006ESA_, symObjAddr: 0x1368C, symBinAddr: 0x100016908, symSize: 0x34 }
  - { offsetInCU: 0x2D25E, offset: 0x5074B, size: 0x8, addend: 0x0, symName: __ZNSt3__128__exception_guard_exceptionsINS_6vectorINS_12basic_stringIcNS_11char_traitsIcEENS_9allocatorIcEEEENS5_IS7_EEE16__destroy_vectorEEC2B7v160006ESA_, symObjAddr: 0x136C0, symBinAddr: 0x10001693C, symSize: 0x24 }
  - { offsetInCU: 0x2D296, offset: 0x50783, size: 0x8, addend: 0x0, symName: __ZNKSt3__16vectorINS_12basic_stringIcNS_11char_traitsIcEENS_9allocatorIcEEEENS4_IS6_EEE8max_sizeEv, symObjAddr: 0x136E4, symBinAddr: 0x100016960, symSize: 0x60 }
  - { offsetInCU: 0x2D2BE, offset: 0x507AB, size: 0x8, addend: 0x0, symName: __ZNKSt3__16vectorINS_12basic_stringIcNS_11char_traitsIcEENS_9allocatorIcEEEENS4_IS6_EEE20__throw_length_errorB7v160006Ev, symObjAddr: 0x13744, symBinAddr: 0x1000169C0, symSize: 0x1C }
  - { offsetInCU: 0x2D2E4, offset: 0x507D1, size: 0x8, addend: 0x0, symName: __ZNSt3__16vectorINS_12basic_stringIcNS_11char_traitsIcEENS_9allocatorIcEEEENS4_IS6_EEE9__end_capB7v160006Ev, symObjAddr: 0x137A0, symBinAddr: 0x100016A1C, symSize: 0x28 }
  - { offsetInCU: 0x2D30A, offset: 0x507F7, size: 0x8, addend: 0x0, symName: __ZNKSt3__16vectorINS_12basic_stringIcNS_11char_traitsIcEENS_9allocatorIcEEEENS4_IS6_EEE14__annotate_newB7v160006Em, symObjAddr: 0x137C8, symBinAddr: 0x100016A44, symSize: 0xC8 }
  - { offsetInCU: 0x2D33F, offset: 0x5082C, size: 0x8, addend: 0x0, symName: __ZNKSt3__16vectorINS_12basic_stringIcNS_11char_traitsIcEENS_9allocatorIcEEEENS4_IS6_EEE7__allocB7v160006Ev, symObjAddr: 0x13890, symBinAddr: 0x100016B0C, symSize: 0x28 }
  - { offsetInCU: 0x2D365, offset: 0x50852, size: 0x8, addend: 0x0, symName: __ZNKSt3__117__compressed_pairIPNS_12basic_stringIcNS_11char_traitsIcEENS_9allocatorIcEEEENS4_IS6_EEE6secondB7v160006Ev, symObjAddr: 0x138B8, symBinAddr: 0x100016B34, symSize: 0x24 }
  - { offsetInCU: 0x2D38B, offset: 0x50878, size: 0x8, addend: 0x0, symName: __ZNKSt3__122__compressed_pair_elemINS_9allocatorINS_12basic_stringIcNS_11char_traitsIcEENS1_IcEEEEEELi1ELb1EE5__getB7v160006Ev, symObjAddr: 0x138DC, symBinAddr: 0x100016B58, symSize: 0x14 }
  - { offsetInCU: 0x2D3B1, offset: 0x5089E, size: 0x8, addend: 0x0, symName: __ZNSt3__117__compressed_pairIPNS_12basic_stringIcNS_11char_traitsIcEENS_9allocatorIcEEEENS4_IS6_EEE5firstB7v160006Ev, symObjAddr: 0x138F0, symBinAddr: 0x100016B6C, symSize: 0x24 }
  - { offsetInCU: 0x2D3F3, offset: 0x508E0, size: 0x8, addend: 0x0, symName: __ZNSt3__16vectorINS_12basic_stringIcNS_11char_traitsIcEENS_9allocatorIcEEEENS4_IS6_EEE21_ConstructTransactionC1B7v160006ERS8_m, symObjAddr: 0x13914, symBinAddr: 0x100016B90, symSize: 0x3C }
  - { offsetInCU: 0x2D43B, offset: 0x50928, size: 0x8, addend: 0x0, symName: __ZNSt3__16vectorINS_12basic_stringIcNS_11char_traitsIcEENS_9allocatorIcEEEENS4_IS6_EEE21_ConstructTransactionD1B7v160006Ev, symObjAddr: 0x13A44, symBinAddr: 0x100016CC0, symSize: 0x2C }
  - { offsetInCU: 0x2D465, offset: 0x50952, size: 0x8, addend: 0x0, symName: __ZNSt3__16vectorINS_12basic_stringIcNS_11char_traitsIcEENS_9allocatorIcEEEENS4_IS6_EEE21_ConstructTransactionC2B7v160006ERS8_m, symObjAddr: 0x13A70, symBinAddr: 0x100016CEC, symSize: 0x4C }
  - { offsetInCU: 0x2D4AD, offset: 0x5099A, size: 0x8, addend: 0x0, symName: __ZNSt3__129_AllocatorDestroyRangeReverseINS_9allocatorINS_12basic_stringIcNS_11char_traitsIcEENS1_IcEEEEEEPS6_EC1B7v160006ERS7_RS8_SB_, symObjAddr: 0x13B08, symBinAddr: 0x100016D84, symSize: 0x44 }
  - { offsetInCU: 0x2D504, offset: 0x509F1, size: 0x8, addend: 0x0, symName: __ZNSt3__128__exception_guard_exceptionsINS_29_AllocatorDestroyRangeReverseINS_9allocatorINS_12basic_stringIcNS_11char_traitsIcEENS2_IcEEEEEEPS7_EEE10__completeB7v160006Ev, symObjAddr: 0x13B4C, symBinAddr: 0x100016DC8, symSize: 0x1C }
  - { offsetInCU: 0x2D52A, offset: 0x50A17, size: 0x8, addend: 0x0, symName: __ZNSt3__128__exception_guard_exceptionsINS_29_AllocatorDestroyRangeReverseINS_9allocatorINS_12basic_stringIcNS_11char_traitsIcEENS2_IcEEEEEEPS7_EEED1B7v160006Ev, symObjAddr: 0x13B68, symBinAddr: 0x100016DE4, symSize: 0x2C }
  - { offsetInCU: 0x2D554, offset: 0x50A41, size: 0x8, addend: 0x0, symName: __ZNSt3__128__exception_guard_exceptionsINS_29_AllocatorDestroyRangeReverseINS_9allocatorINS_12basic_stringIcNS_11char_traitsIcEENS2_IcEEEEEEPS7_EEEC1B7v160006ESA_, symObjAddr: 0x13B94, symBinAddr: 0x100016E10, symSize: 0x34 }
  - { offsetInCU: 0x2D58D, offset: 0x50A7A, size: 0x8, addend: 0x0, symName: __ZNSt3__128__exception_guard_exceptionsINS_29_AllocatorDestroyRangeReverseINS_9allocatorINS_12basic_stringIcNS_11char_traitsIcEENS2_IcEEEEEEPS7_EEEC2B7v160006ESA_, symObjAddr: 0x13BC8, symBinAddr: 0x100016E44, symSize: 0x30 }
  - { offsetInCU: 0x2D5C6, offset: 0x50AB3, size: 0x8, addend: 0x0, symName: __ZNSt3__129_AllocatorDestroyRangeReverseINS_9allocatorINS_12basic_stringIcNS_11char_traitsIcEENS1_IcEEEEEEPS6_EC2B7v160006ERS7_RS8_SB_, symObjAddr: 0x13BF8, symBinAddr: 0x100016E74, symSize: 0x38 }
  - { offsetInCU: 0x2D61D, offset: 0x50B0A, size: 0x8, addend: 0x0, symName: __ZNSt3__128__exception_guard_exceptionsINS_29_AllocatorDestroyRangeReverseINS_9allocatorINS_12basic_stringIcNS_11char_traitsIcEENS2_IcEEEEEEPS7_EEED2B7v160006Ev, symObjAddr: 0x13C30, symBinAddr: 0x100016EAC, symSize: 0x50 }
  - { offsetInCU: 0x2D647, offset: 0x50B34, size: 0x8, addend: 0x0, symName: __ZNKSt3__129_AllocatorDestroyRangeReverseINS_9allocatorINS_12basic_stringIcNS_11char_traitsIcEENS1_IcEEEEEEPS6_EclB7v160006Ev, symObjAddr: 0x13C80, symBinAddr: 0x100016EFC, symSize: 0x68 }
  - { offsetInCU: 0x2D66D, offset: 0x50B5A, size: 0x8, addend: 0x0, symName: __ZNSt3__116reverse_iteratorIPNS_12basic_stringIcNS_11char_traitsIcEENS_9allocatorIcEEEEEC1B7v160006ES7_, symObjAddr: 0x13D58, symBinAddr: 0x100016FD4, symSize: 0x34 }
  - { offsetInCU: 0x2D6A5, offset: 0x50B92, size: 0x8, addend: 0x0, symName: __ZNSt3__116reverse_iteratorIPNS_12basic_stringIcNS_11char_traitsIcEENS_9allocatorIcEEEEEppB7v160006Ev, symObjAddr: 0x13DF8, symBinAddr: 0x100017074, symSize: 0x20 }
  - { offsetInCU: 0x2D6CB, offset: 0x50BB8, size: 0x8, addend: 0x0, symName: __ZNKSt3__116reverse_iteratorIPNS_12basic_stringIcNS_11char_traitsIcEENS_9allocatorIcEEEEE4baseB7v160006Ev, symObjAddr: 0x13E18, symBinAddr: 0x100017094, symSize: 0x18 }
  - { offsetInCU: 0x2D6F7, offset: 0x50BE4, size: 0x8, addend: 0x0, symName: __ZNSt3__119__to_address_helperINS_16reverse_iteratorIPNS_12basic_stringIcNS_11char_traitsIcEENS_9allocatorIcEEEEEEvE6__callB7v160006ERKS9_, symObjAddr: 0x13E30, symBinAddr: 0x1000170AC, symSize: 0x38 }
  - { offsetInCU: 0x2D71A, offset: 0x50C07, size: 0x8, addend: 0x0, symName: __ZNKSt3__116reverse_iteratorIPNS_12basic_stringIcNS_11char_traitsIcEENS_9allocatorIcEEEEEptB7v160006Ev, symObjAddr: 0x13E68, symBinAddr: 0x1000170E4, symSize: 0x24 }
  - { offsetInCU: 0x2D740, offset: 0x50C2D, size: 0x8, addend: 0x0, symName: __ZNKSt3__116reverse_iteratorIPNS_12basic_stringIcNS_11char_traitsIcEENS_9allocatorIcEEEEEdeB7v160006Ev, symObjAddr: 0x13E8C, symBinAddr: 0x100017108, symSize: 0x28 }
  - { offsetInCU: 0x2D775, offset: 0x50C62, size: 0x8, addend: 0x0, symName: __ZNSt3__116reverse_iteratorIPNS_12basic_stringIcNS_11char_traitsIcEENS_9allocatorIcEEEEEC2B7v160006ES7_, symObjAddr: 0x13EB4, symBinAddr: 0x100017130, symSize: 0x28 }
  - { offsetInCU: 0x2D7AD, offset: 0x50C9A, size: 0x8, addend: 0x0, symName: __ZNSt3__16vectorINS_12basic_stringIcNS_11char_traitsIcEENS_9allocatorIcEEEENS4_IS6_EEE21_ConstructTransactionD2B7v160006Ev, symObjAddr: 0x13EDC, symBinAddr: 0x100017158, symSize: 0x20 }
  - { offsetInCU: 0x2D7D7, offset: 0x50CC4, size: 0x8, addend: 0x0, symName: __ZNSt3__128__exception_guard_exceptionsINS_6vectorINS_12basic_stringIcNS_11char_traitsIcEENS_9allocatorIcEEEENS5_IS7_EEE16__destroy_vectorEED2B7v160006Ev, symObjAddr: 0x13EFC, symBinAddr: 0x100017178, symSize: 0x50 }
  - { offsetInCU: 0x2D801, offset: 0x50CEE, size: 0x8, addend: 0x0, symName: __ZNSt3__16vectorIP15JobWorkerThreadNS_9allocatorIS2_EEEC2B7v160006Ev, symObjAddr: 0x13F4C, symBinAddr: 0x1000171C8, symSize: 0x58 }
  - { offsetInCU: 0x2D82B, offset: 0x50D18, size: 0x8, addend: 0x0, symName: __ZNSt3__117__compressed_pairIPP15JobWorkerThreadNS_9allocatorIS2_EEEC1B7v160006IDnNS_18__default_init_tagEEEOT_OT0_, symObjAddr: 0x13FA4, symBinAddr: 0x100017220, symSize: 0x3C }
  - { offsetInCU: 0x2D883, offset: 0x50D70, size: 0x8, addend: 0x0, symName: __ZNSt3__117__compressed_pairIPP15JobWorkerThreadNS_9allocatorIS2_EEEC2B7v160006IDnNS_18__default_init_tagEEEOT_OT0_, symObjAddr: 0x13FF0, symBinAddr: 0x10001726C, symSize: 0x40 }
  - { offsetInCU: 0x2D8DB, offset: 0x50DC8, size: 0x8, addend: 0x0, symName: __ZNSt3__122__compressed_pair_elemIPP15JobWorkerThreadLi0ELb0EEC2B7v160006IDnvEEOT_, symObjAddr: 0x14030, symBinAddr: 0x1000172AC, symSize: 0x1C }
  - { offsetInCU: 0x2D91D, offset: 0x50E0A, size: 0x8, addend: 0x0, symName: __ZNSt3__122__compressed_pair_elemINS_9allocatorIP15JobWorkerThreadEELi1ELb1EEC2B7v160006ENS_18__default_init_tagE, symObjAddr: 0x1404C, symBinAddr: 0x1000172C8, symSize: 0x2C }
  - { offsetInCU: 0x2D952, offset: 0x50E3F, size: 0x8, addend: 0x0, symName: __ZNSt3__19allocatorIP15JobWorkerThreadEC2B7v160006Ev, symObjAddr: 0x14078, symBinAddr: 0x1000172F4, symSize: 0x2C }
  - { offsetInCU: 0x2D97C, offset: 0x50E69, size: 0x8, addend: 0x0, symName: __ZNSt3__116__non_trivial_ifILb1ENS_9allocatorIP15JobWorkerThreadEEEC2B7v160006Ev, symObjAddr: 0x140A4, symBinAddr: 0x100017320, symSize: 0x14 }
  - { offsetInCU: 0x2D9A6, offset: 0x50E93, size: 0x8, addend: 0x0, symName: __ZNSt3__15dequeIP3JobNS_9allocatorIS2_EEEC2B7v160006Ev, symObjAddr: 0x140B8, symBinAddr: 0x100017334, symSize: 0x50 }
  - { offsetInCU: 0x2D9D0, offset: 0x50EBD, size: 0x8, addend: 0x0, symName: __ZNSt3__114__split_bufferIPP3JobNS_9allocatorIS3_EEEC1Ev, symObjAddr: 0x14108, symBinAddr: 0x100017384, symSize: 0x2C }
  - { offsetInCU: 0x2D9FC, offset: 0x50EE9, size: 0x8, addend: 0x0, symName: __ZNSt3__117__compressed_pairImNS_9allocatorIP3JobEEEC1B7v160006IiNS_18__default_init_tagEEEOT_OT0_, symObjAddr: 0x14134, symBinAddr: 0x1000173B0, symSize: 0x3C }
  - { offsetInCU: 0x2DA54, offset: 0x50F41, size: 0x8, addend: 0x0, symName: __ZNSt3__114__split_bufferIPP3JobNS_9allocatorIS3_EEEC2Ev, symObjAddr: 0x14170, symBinAddr: 0x1000173EC, symSize: 0x50 }
  - { offsetInCU: 0x2DA80, offset: 0x50F6D, size: 0x8, addend: 0x0, symName: __ZNSt3__117__compressed_pairIPPP3JobNS_9allocatorIS3_EEEC1B7v160006IDnNS_18__default_init_tagEEEOT_OT0_, symObjAddr: 0x141C0, symBinAddr: 0x10001743C, symSize: 0x3C }
  - { offsetInCU: 0x2DAD8, offset: 0x50FC5, size: 0x8, addend: 0x0, symName: __ZNSt3__117__compressed_pairIPPP3JobNS_9allocatorIS3_EEEC2B7v160006IDnNS_18__default_init_tagEEEOT_OT0_, symObjAddr: 0x141FC, symBinAddr: 0x100017478, symSize: 0x40 }
  - { offsetInCU: 0x2DB30, offset: 0x5101D, size: 0x8, addend: 0x0, symName: __ZNSt3__122__compressed_pair_elemIPPP3JobLi0ELb0EEC2B7v160006IDnvEEOT_, symObjAddr: 0x1423C, symBinAddr: 0x1000174B8, symSize: 0x1C }
  - { offsetInCU: 0x2DB72, offset: 0x5105F, size: 0x8, addend: 0x0, symName: __ZNSt3__122__compressed_pair_elemINS_9allocatorIPP3JobEELi1ELb1EEC2B7v160006ENS_18__default_init_tagE, symObjAddr: 0x14258, symBinAddr: 0x1000174D4, symSize: 0x2C }
  - { offsetInCU: 0x2DBA7, offset: 0x51094, size: 0x8, addend: 0x0, symName: __ZNSt3__19allocatorIPP3JobEC2B7v160006Ev, symObjAddr: 0x14284, symBinAddr: 0x100017500, symSize: 0x2C }
  - { offsetInCU: 0x2DBD1, offset: 0x510BE, size: 0x8, addend: 0x0, symName: __ZNSt3__116__non_trivial_ifILb1ENS_9allocatorIPP3JobEEEC2B7v160006Ev, symObjAddr: 0x142B0, symBinAddr: 0x10001752C, symSize: 0x14 }
  - { offsetInCU: 0x2DBFB, offset: 0x510E8, size: 0x8, addend: 0x0, symName: __ZNSt3__117__compressed_pairImNS_9allocatorIP3JobEEEC2B7v160006IiNS_18__default_init_tagEEEOT_OT0_, symObjAddr: 0x142C4, symBinAddr: 0x100017540, symSize: 0x40 }
  - { offsetInCU: 0x2DC53, offset: 0x51140, size: 0x8, addend: 0x0, symName: __ZNSt3__122__compressed_pair_elemINS_9allocatorIP3JobEELi1ELb1EEC2B7v160006ENS_18__default_init_tagE, symObjAddr: 0x14304, symBinAddr: 0x100017580, symSize: 0x2C }
  - { offsetInCU: 0x2DC88, offset: 0x51175, size: 0x8, addend: 0x0, symName: __ZNSt3__19allocatorIP3JobEC2B7v160006Ev, symObjAddr: 0x14330, symBinAddr: 0x1000175AC, symSize: 0x2C }
  - { offsetInCU: 0x2DCB2, offset: 0x5119F, size: 0x8, addend: 0x0, symName: __ZNSt3__116__non_trivial_ifILb1ENS_9allocatorIP3JobEEEC2B7v160006Ev, symObjAddr: 0x1435C, symBinAddr: 0x1000175D8, symSize: 0x14 }
  - { offsetInCU: 0x2DCDC, offset: 0x511C9, size: 0x8, addend: 0x0, symName: __ZNSt3__16vectorI15JobHistoryEntryNS_9allocatorIS1_EEEC2B7v160006Ev, symObjAddr: 0x14370, symBinAddr: 0x1000175EC, symSize: 0x58 }
  - { offsetInCU: 0x2DD06, offset: 0x511F3, size: 0x8, addend: 0x0, symName: __ZNSt3__117__compressed_pairIP15JobHistoryEntryNS_9allocatorIS1_EEEC1B7v160006IDnNS_18__default_init_tagEEEOT_OT0_, symObjAddr: 0x143C8, symBinAddr: 0x100017644, symSize: 0x3C }
  - { offsetInCU: 0x2DD5E, offset: 0x5124B, size: 0x8, addend: 0x0, symName: __ZNSt3__117__compressed_pairIP15JobHistoryEntryNS_9allocatorIS1_EEEC2B7v160006IDnNS_18__default_init_tagEEEOT_OT0_, symObjAddr: 0x14414, symBinAddr: 0x100017690, symSize: 0x40 }
  - { offsetInCU: 0x2DDB6, offset: 0x512A3, size: 0x8, addend: 0x0, symName: __ZNSt3__122__compressed_pair_elemIP15JobHistoryEntryLi0ELb0EEC2B7v160006IDnvEEOT_, symObjAddr: 0x14454, symBinAddr: 0x1000176D0, symSize: 0x1C }
  - { offsetInCU: 0x2DDF8, offset: 0x512E5, size: 0x8, addend: 0x0, symName: __ZNSt3__122__compressed_pair_elemINS_9allocatorI15JobHistoryEntryEELi1ELb1EEC2B7v160006ENS_18__default_init_tagE, symObjAddr: 0x14470, symBinAddr: 0x1000176EC, symSize: 0x2C }
  - { offsetInCU: 0x2DE2D, offset: 0x5131A, size: 0x8, addend: 0x0, symName: __ZNSt3__19allocatorI15JobHistoryEntryEC2B7v160006Ev, symObjAddr: 0x1449C, symBinAddr: 0x100017718, symSize: 0x2C }
  - { offsetInCU: 0x2DE57, offset: 0x51344, size: 0x8, addend: 0x0, symName: __ZNSt3__116__non_trivial_ifILb1ENS_9allocatorI15JobHistoryEntryEEEC2B7v160006Ev, symObjAddr: 0x144C8, symBinAddr: 0x100017744, symSize: 0x14 }
  - { offsetInCU: 0x2DE81, offset: 0x5136E, size: 0x8, addend: 0x0, symName: __ZNSt3__113unordered_mapINS_12basic_stringIcNS_11char_traitsIcEENS_9allocatorIcEEEENS_8functionIFvRN8nlohmann16json_abi_v3_11_210basic_jsonINS_3mapENS_6vectorES6_bxydS4_NS9_14adl_serializerENSC_IhNS4_IhEEEEvEEEEENS_4hashIS6_EENS_8equal_toIS6_EENS4_INS_4pairIKS6_SJ_EEEEEC2B7v160006Ev, symObjAddr: 0x144DC, symBinAddr: 0x100017758, symSize: 0x3C }
  - { offsetInCU: 0x2DEAB, offset: 0x51398, size: 0x8, addend: 0x0, symName: __ZNSt3__112__hash_tableINS_17__hash_value_typeINS_12basic_stringIcNS_11char_traitsIcEENS_9allocatorIcEEEENS_8functionIFvRN8nlohmann16json_abi_v3_11_210basic_jsonINS_3mapENS_6vectorES7_bxydS5_NSA_14adl_serializerENSD_IhNS5_IhEEEEvEEEEEEENS_22__unordered_map_hasherIS7_SL_NS_4hashIS7_EENS_8equal_toIS7_EELb1EEENS_21__unordered_map_equalIS7_SL_SQ_SO_Lb1EEENS5_ISL_EEEC1Ev, symObjAddr: 0x14518, symBinAddr: 0x100017794, symSize: 0x2C }
  - { offsetInCU: 0x2DED7, offset: 0x513C4, size: 0x8, addend: 0x0, symName: __ZNSt3__112__hash_tableINS_17__hash_value_typeINS_12basic_stringIcNS_11char_traitsIcEENS_9allocatorIcEEEENS_8functionIFvRN8nlohmann16json_abi_v3_11_210basic_jsonINS_3mapENS_6vectorES7_bxydS5_NSA_14adl_serializerENSD_IhNS5_IhEEEEvEEEEEEENS_22__unordered_map_hasherIS7_SL_NS_4hashIS7_EENS_8equal_toIS7_EELb1EEENS_21__unordered_map_equalIS7_SL_SQ_SO_Lb1EEENS5_ISL_EEEC2Ev, symObjAddr: 0x14554, symBinAddr: 0x1000177D0, symSize: 0x7C }
  - { offsetInCU: 0x2DF03, offset: 0x513F0, size: 0x8, addend: 0x0, symName: __ZNSt3__110unique_ptrIA_PNS_16__hash_node_baseIPNS_11__hash_nodeINS_17__hash_value_typeINS_12basic_stringIcNS_11char_traitsIcEENS_9allocatorIcEEEENS_8functionIFvRN8nlohmann16json_abi_v3_11_210basic_jsonINS_3mapENS_6vectorES9_bxydS7_NSC_14adl_serializerENSF_IhNS7_IhEEEEvEEEEEEEPvEEEENS_25__bucket_list_deallocatorINS7_ISS_EEEEEC1B7v160006ILb1EvEEv, symObjAddr: 0x145D0, symBinAddr: 0x10001784C, symSize: 0x2C }
  - { offsetInCU: 0x2DF38, offset: 0x51425, size: 0x8, addend: 0x0, symName: __ZNSt3__117__compressed_pairINS_16__hash_node_baseIPNS_11__hash_nodeINS_17__hash_value_typeINS_12basic_stringIcNS_11char_traitsIcEENS_9allocatorIcEEEENS_8functionIFvRN8nlohmann16json_abi_v3_11_210basic_jsonINS_3mapENS_6vectorES9_bxydS7_NSC_14adl_serializerENSF_IhNS7_IhEEEEvEEEEEEEPvEEEENS7_ISP_EEEC1B7v160006ILb1EvEEv, symObjAddr: 0x145FC, symBinAddr: 0x100017878, symSize: 0x2C }
  - { offsetInCU: 0x2DF6D, offset: 0x5145A, size: 0x8, addend: 0x0, symName: __ZNSt3__117__compressed_pairImNS_22__unordered_map_hasherINS_12basic_stringIcNS_11char_traitsIcEENS_9allocatorIcEEEENS_17__hash_value_typeIS7_NS_8functionIFvRN8nlohmann16json_abi_v3_11_210basic_jsonINS_3mapENS_6vectorES7_bxydS5_NSB_14adl_serializerENSE_IhNS5_IhEEEEvEEEEEEENS_4hashIS7_EENS_8equal_toIS7_EELb1EEEEC1B7v160006IiNS_18__default_init_tagEEEOT_OT0_, symObjAddr: 0x14628, symBinAddr: 0x1000178A4, symSize: 0x3C }
  - { offsetInCU: 0x2DFCB, offset: 0x514B8, size: 0x8, addend: 0x0, symName: __ZNSt3__117__compressed_pairIfNS_21__unordered_map_equalINS_12basic_stringIcNS_11char_traitsIcEENS_9allocatorIcEEEENS_17__hash_value_typeIS7_NS_8functionIFvRN8nlohmann16json_abi_v3_11_210basic_jsonINS_3mapENS_6vectorES7_bxydS5_NSB_14adl_serializerENSE_IhNS5_IhEEEEvEEEEEEENS_8equal_toIS7_EENS_4hashIS7_EELb1EEEEC1B7v160006IfNS_18__default_init_tagEEEOT_OT0_, symObjAddr: 0x14664, symBinAddr: 0x1000178E0, symSize: 0x3C }
  - { offsetInCU: 0x2E023, offset: 0x51510, size: 0x8, addend: 0x0, symName: __ZNSt3__110unique_ptrIA_PNS_16__hash_node_baseIPNS_11__hash_nodeINS_17__hash_value_typeINS_12basic_stringIcNS_11char_traitsIcEENS_9allocatorIcEEEENS_8functionIFvRN8nlohmann16json_abi_v3_11_210basic_jsonINS_3mapENS_6vectorES9_bxydS7_NSC_14adl_serializerENSF_IhNS7_IhEEEEvEEEEEEEPvEEEENS_25__bucket_list_deallocatorINS7_ISS_EEEEEC2B7v160006ILb1EvEEv, symObjAddr: 0x146A0, symBinAddr: 0x10001791C, symSize: 0x3C }
  - { offsetInCU: 0x2E05E, offset: 0x5154B, size: 0x8, addend: 0x0, symName: __ZNSt3__117__compressed_pairIPPNS_16__hash_node_baseIPNS_11__hash_nodeINS_17__hash_value_typeINS_12basic_stringIcNS_11char_traitsIcEENS_9allocatorIcEEEENS_8functionIFvRN8nlohmann16json_abi_v3_11_210basic_jsonINS_3mapENS_6vectorES9_bxydS7_NSC_14adl_serializerENSF_IhNS7_IhEEEEvEEEEEEEPvEEEENS_25__bucket_list_deallocatorINS7_ISS_EEEEEC1B7v160006INS_16__value_init_tagESZ_EEOT_OT0_, symObjAddr: 0x146DC, symBinAddr: 0x100017958, symSize: 0x3C }
  - { offsetInCU: 0x2E0B6, offset: 0x515A3, size: 0x8, addend: 0x0, symName: __ZNSt3__117__compressed_pairIPPNS_16__hash_node_baseIPNS_11__hash_nodeINS_17__hash_value_typeINS_12basic_stringIcNS_11char_traitsIcEENS_9allocatorIcEEEENS_8functionIFvRN8nlohmann16json_abi_v3_11_210basic_jsonINS_3mapENS_6vectorES9_bxydS7_NSC_14adl_serializerENSF_IhNS7_IhEEEEvEEEEEEEPvEEEENS_25__bucket_list_deallocatorINS7_ISS_EEEEEC2B7v160006INS_16__value_init_tagESZ_EEOT_OT0_, symObjAddr: 0x14718, symBinAddr: 0x100017994, symSize: 0x40 }
  - { offsetInCU: 0x2E10E, offset: 0x515FB, size: 0x8, addend: 0x0, symName: __ZNSt3__122__compressed_pair_elemIPPNS_16__hash_node_baseIPNS_11__hash_nodeINS_17__hash_value_typeINS_12basic_stringIcNS_11char_traitsIcEENS_9allocatorIcEEEENS_8functionIFvRN8nlohmann16json_abi_v3_11_210basic_jsonINS_3mapENS_6vectorES9_bxydS7_NSC_14adl_serializerENSF_IhNS7_IhEEEEvEEEEEEEPvEEEELi0ELb0EEC2B7v160006ENS_16__value_init_tagE, symObjAddr: 0x14758, symBinAddr: 0x1000179D4, symSize: 0x18 }
  - { offsetInCU: 0x2E143, offset: 0x51630, size: 0x8, addend: 0x0, symName: __ZNSt3__122__compressed_pair_elemINS_25__bucket_list_deallocatorINS_9allocatorIPNS_16__hash_node_baseIPNS_11__hash_nodeINS_17__hash_value_typeINS_12basic_stringIcNS_11char_traitsIcEENS2_IcEEEENS_8functionIFvRN8nlohmann16json_abi_v3_11_210basic_jsonINS_3mapENS_6vectorESA_bxydS2_NSD_14adl_serializerENSG_IhNS2_IhEEEEvEEEEEEEPvEEEEEEEELi1ELb0EEC2B7v160006ENS_16__value_init_tagE, symObjAddr: 0x14770, symBinAddr: 0x1000179EC, symSize: 0x2C }
  - { offsetInCU: 0x2E178, offset: 0x51665, size: 0x8, addend: 0x0, symName: __ZNSt3__125__bucket_list_deallocatorINS_9allocatorIPNS_16__hash_node_baseIPNS_11__hash_nodeINS_17__hash_value_typeINS_12basic_stringIcNS_11char_traitsIcEENS1_IcEEEENS_8functionIFvRN8nlohmann16json_abi_v3_11_210basic_jsonINS_3mapENS_6vectorES9_bxydS1_NSC_14adl_serializerENSF_IhNS1_IhEEEEvEEEEEEEPvEEEEEEEC1B7v160006Ev, symObjAddr: 0x1479C, symBinAddr: 0x100017A18, symSize: 0x2C }
  - { offsetInCU: 0x2E1A2, offset: 0x5168F, size: 0x8, addend: 0x0, symName: __ZNSt3__125__bucket_list_deallocatorINS_9allocatorIPNS_16__hash_node_baseIPNS_11__hash_nodeINS_17__hash_value_typeINS_12basic_stringIcNS_11char_traitsIcEENS1_IcEEEENS_8functionIFvRN8nlohmann16json_abi_v3_11_210basic_jsonINS_3mapENS_6vectorES9_bxydS1_NSC_14adl_serializerENSF_IhNS1_IhEEEEvEEEEEEEPvEEEEEEEC2B7v160006Ev, symObjAddr: 0x147C8, symBinAddr: 0x100017A44, symSize: 0x40 }
  - { offsetInCU: 0x2E1CC, offset: 0x516B9, size: 0x8, addend: 0x0, symName: __ZNSt3__117__compressed_pairImNS_9allocatorIPNS_16__hash_node_baseIPNS_11__hash_nodeINS_17__hash_value_typeINS_12basic_stringIcNS_11char_traitsIcEENS1_IcEEEENS_8functionIFvRN8nlohmann16json_abi_v3_11_210basic_jsonINS_3mapENS_6vectorES9_bxydS1_NSC_14adl_serializerENSF_IhNS1_IhEEEEvEEEEEEEPvEEEEEEEC1B7v160006IiNS_18__default_init_tagEEEOT_OT0_, symObjAddr: 0x14808, symBinAddr: 0x100017A84, symSize: 0x3C }
  - { offsetInCU: 0x2E224, offset: 0x51711, size: 0x8, addend: 0x0, symName: __ZNSt3__117__compressed_pairImNS_9allocatorIPNS_16__hash_node_baseIPNS_11__hash_nodeINS_17__hash_value_typeINS_12basic_stringIcNS_11char_traitsIcEENS1_IcEEEENS_8functionIFvRN8nlohmann16json_abi_v3_11_210basic_jsonINS_3mapENS_6vectorES9_bxydS1_NSC_14adl_serializerENSF_IhNS1_IhEEEEvEEEEEEEPvEEEEEEEC2B7v160006IiNS_18__default_init_tagEEEOT_OT0_, symObjAddr: 0x14844, symBinAddr: 0x100017AC0, symSize: 0x40 }
  - { offsetInCU: 0x2E27C, offset: 0x51769, size: 0x8, addend: 0x0, symName: __ZNSt3__122__compressed_pair_elemINS_9allocatorIPNS_16__hash_node_baseIPNS_11__hash_nodeINS_17__hash_value_typeINS_12basic_stringIcNS_11char_traitsIcEENS1_IcEEEENS_8functionIFvRN8nlohmann16json_abi_v3_11_210basic_jsonINS_3mapENS_6vectorES9_bxydS1_NSC_14adl_serializerENSF_IhNS1_IhEEEEvEEEEEEEPvEEEEEELi1ELb1EEC2B7v160006ENS_18__default_init_tagE, symObjAddr: 0x14884, symBinAddr: 0x100017B00, symSize: 0x2C }
  - { offsetInCU: 0x2E2B1, offset: 0x5179E, size: 0x8, addend: 0x0, symName: __ZNSt3__19allocatorIPNS_16__hash_node_baseIPNS_11__hash_nodeINS_17__hash_value_typeINS_12basic_stringIcNS_11char_traitsIcEENS0_IcEEEENS_8functionIFvRN8nlohmann16json_abi_v3_11_210basic_jsonINS_3mapENS_6vectorES8_bxydS0_NSB_14adl_serializerENSE_IhNS0_IhEEEEvEEEEEEEPvEEEEEC2B7v160006Ev, symObjAddr: 0x148B0, symBinAddr: 0x100017B2C, symSize: 0x2C }
  - { offsetInCU: 0x2E2DB, offset: 0x517C8, size: 0x8, addend: 0x0, symName: __ZNSt3__116__non_trivial_ifILb1ENS_9allocatorIPNS_16__hash_node_baseIPNS_11__hash_nodeINS_17__hash_value_typeINS_12basic_stringIcNS_11char_traitsIcEENS1_IcEEEENS_8functionIFvRN8nlohmann16json_abi_v3_11_210basic_jsonINS_3mapENS_6vectorES9_bxydS1_NSC_14adl_serializerENSF_IhNS1_IhEEEEvEEEEEEEPvEEEEEEEC2B7v160006Ev, symObjAddr: 0x148DC, symBinAddr: 0x100017B58, symSize: 0x14 }
  - { offsetInCU: 0x2E305, offset: 0x517F2, size: 0x8, addend: 0x0, symName: __ZNSt3__117__compressed_pairINS_16__hash_node_baseIPNS_11__hash_nodeINS_17__hash_value_typeINS_12basic_stringIcNS_11char_traitsIcEENS_9allocatorIcEEEENS_8functionIFvRN8nlohmann16json_abi_v3_11_210basic_jsonINS_3mapENS_6vectorES9_bxydS7_NSC_14adl_serializerENSF_IhNS7_IhEEEEvEEEEEEEPvEEEENS7_ISP_EEEC2B7v160006ILb1EvEEv, symObjAddr: 0x148F0, symBinAddr: 0x100017B6C, symSize: 0x34 }
  - { offsetInCU: 0x2E33A, offset: 0x51827, size: 0x8, addend: 0x0, symName: __ZNSt3__122__compressed_pair_elemINS_16__hash_node_baseIPNS_11__hash_nodeINS_17__hash_value_typeINS_12basic_stringIcNS_11char_traitsIcEENS_9allocatorIcEEEENS_8functionIFvRN8nlohmann16json_abi_v3_11_210basic_jsonINS_3mapENS_6vectorES9_bxydS7_NSC_14adl_serializerENSF_IhNS7_IhEEEEvEEEEEEEPvEEEELi0ELb0EEC2B7v160006ENS_16__value_init_tagE, symObjAddr: 0x14924, symBinAddr: 0x100017BA0, symSize: 0x2C }
  - { offsetInCU: 0x2E36F, offset: 0x5185C, size: 0x8, addend: 0x0, symName: __ZNSt3__122__compressed_pair_elemINS_9allocatorINS_11__hash_nodeINS_17__hash_value_typeINS_12basic_stringIcNS_11char_traitsIcEENS1_IcEEEENS_8functionIFvRN8nlohmann16json_abi_v3_11_210basic_jsonINS_3mapENS_6vectorES8_bxydS1_NSB_14adl_serializerENSE_IhNS1_IhEEEEvEEEEEEEPvEEEELi1ELb1EEC2B7v160006ENS_16__value_init_tagE, symObjAddr: 0x14950, symBinAddr: 0x100017BCC, symSize: 0x2C }
  - { offsetInCU: 0x2E3A4, offset: 0x51891, size: 0x8, addend: 0x0, symName: __ZNSt3__116__hash_node_baseIPNS_11__hash_nodeINS_17__hash_value_typeINS_12basic_stringIcNS_11char_traitsIcEENS_9allocatorIcEEEENS_8functionIFvRN8nlohmann16json_abi_v3_11_210basic_jsonINS_3mapENS_6vectorES8_bxydS6_NSB_14adl_serializerENSE_IhNS6_IhEEEEvEEEEEEEPvEEEC1B7v160006Ev, symObjAddr: 0x1497C, symBinAddr: 0x100017BF8, symSize: 0x2C }
  - { offsetInCU: 0x2E3CE, offset: 0x518BB, size: 0x8, addend: 0x0, symName: __ZNSt3__116__hash_node_baseIPNS_11__hash_nodeINS_17__hash_value_typeINS_12basic_stringIcNS_11char_traitsIcEENS_9allocatorIcEEEENS_8functionIFvRN8nlohmann16json_abi_v3_11_210basic_jsonINS_3mapENS_6vectorES8_bxydS6_NSB_14adl_serializerENSE_IhNS6_IhEEEEvEEEEEEEPvEEEC2B7v160006Ev, symObjAddr: 0x149A8, symBinAddr: 0x100017C24, symSize: 0x18 }
  - { offsetInCU: 0x2E3F8, offset: 0x518E5, size: 0x8, addend: 0x0, symName: __ZNSt3__19allocatorINS_11__hash_nodeINS_17__hash_value_typeINS_12basic_stringIcNS_11char_traitsIcEENS0_IcEEEENS_8functionIFvRN8nlohmann16json_abi_v3_11_210basic_jsonINS_3mapENS_6vectorES7_bxydS0_NSA_14adl_serializerENSD_IhNS0_IhEEEEvEEEEEEEPvEEEC2B7v160006Ev, symObjAddr: 0x149C0, symBinAddr: 0x100017C3C, symSize: 0x2C }
  - { offsetInCU: 0x2E422, offset: 0x5190F, size: 0x8, addend: 0x0, symName: __ZNSt3__116__non_trivial_ifILb1ENS_9allocatorINS_11__hash_nodeINS_17__hash_value_typeINS_12basic_stringIcNS_11char_traitsIcEENS1_IcEEEENS_8functionIFvRN8nlohmann16json_abi_v3_11_210basic_jsonINS_3mapENS_6vectorES8_bxydS1_NSB_14adl_serializerENSE_IhNS1_IhEEEEvEEEEEEEPvEEEEEC2B7v160006Ev, symObjAddr: 0x149EC, symBinAddr: 0x100017C68, symSize: 0x14 }
  - { offsetInCU: 0x2E44C, offset: 0x51939, size: 0x8, addend: 0x0, symName: __ZNSt3__117__compressed_pairImNS_22__unordered_map_hasherINS_12basic_stringIcNS_11char_traitsIcEENS_9allocatorIcEEEENS_17__hash_value_typeIS7_NS_8functionIFvRN8nlohmann16json_abi_v3_11_210basic_jsonINS_3mapENS_6vectorES7_bxydS5_NSB_14adl_serializerENSE_IhNS5_IhEEEEvEEEEEEENS_4hashIS7_EENS_8equal_toIS7_EELb1EEEEC2B7v160006IiNS_18__default_init_tagEEEOT_OT0_, symObjAddr: 0x14A00, symBinAddr: 0x100017C7C, symSize: 0x40 }
  - { offsetInCU: 0x2E4A4, offset: 0x51991, size: 0x8, addend: 0x0, symName: __ZNSt3__122__compressed_pair_elemINS_22__unordered_map_hasherINS_12basic_stringIcNS_11char_traitsIcEENS_9allocatorIcEEEENS_17__hash_value_typeIS7_NS_8functionIFvRN8nlohmann16json_abi_v3_11_210basic_jsonINS_3mapENS_6vectorES7_bxydS5_NSB_14adl_serializerENSE_IhNS5_IhEEEEvEEEEEEENS_4hashIS7_EENS_8equal_toIS7_EELb1EEELi1ELb1EEC2B7v160006ENS_18__default_init_tagE, symObjAddr: 0x14A40, symBinAddr: 0x100017CBC, symSize: 0x2C }
  - { offsetInCU: 0x2E4D9, offset: 0x519C6, size: 0x8, addend: 0x0, symName: __ZNSt3__122__unordered_map_hasherINS_12basic_stringIcNS_11char_traitsIcEENS_9allocatorIcEEEENS_17__hash_value_typeIS6_NS_8functionIFvRN8nlohmann16json_abi_v3_11_210basic_jsonINS_3mapENS_6vectorES6_bxydS4_NSA_14adl_serializerENSD_IhNS4_IhEEEEvEEEEEEENS_4hashIS6_EENS_8equal_toIS6_EELb1EEC2B7v160006Ev, symObjAddr: 0x14A6C, symBinAddr: 0x100017CE8, symSize: 0x14 }
  - { offsetInCU: 0x2E503, offset: 0x519F0, size: 0x8, addend: 0x0, symName: __ZNSt3__117__compressed_pairIfNS_21__unordered_map_equalINS_12basic_stringIcNS_11char_traitsIcEENS_9allocatorIcEEEENS_17__hash_value_typeIS7_NS_8functionIFvRN8nlohmann16json_abi_v3_11_210basic_jsonINS_3mapENS_6vectorES7_bxydS5_NSB_14adl_serializerENSE_IhNS5_IhEEEEvEEEEEEENS_8equal_toIS7_EENS_4hashIS7_EELb1EEEEC2B7v160006IfNS_18__default_init_tagEEEOT_OT0_, symObjAddr: 0x14A80, symBinAddr: 0x100017CFC, symSize: 0x40 }
  - { offsetInCU: 0x2E55B, offset: 0x51A48, size: 0x8, addend: 0x0, symName: __ZNSt3__122__compressed_pair_elemIfLi0ELb0EEC2B7v160006IfvEEOT_, symObjAddr: 0x14AC0, symBinAddr: 0x100017D3C, symSize: 0x24 }
  - { offsetInCU: 0x2E59D, offset: 0x51A8A, size: 0x8, addend: 0x0, symName: __ZNSt3__122__compressed_pair_elemINS_21__unordered_map_equalINS_12basic_stringIcNS_11char_traitsIcEENS_9allocatorIcEEEENS_17__hash_value_typeIS7_NS_8functionIFvRN8nlohmann16json_abi_v3_11_210basic_jsonINS_3mapENS_6vectorES7_bxydS5_NSB_14adl_serializerENSE_IhNS5_IhEEEEvEEEEEEENS_8equal_toIS7_EENS_4hashIS7_EELb1EEELi1ELb1EEC2B7v160006ENS_18__default_init_tagE, symObjAddr: 0x14AE4, symBinAddr: 0x100017D60, symSize: 0x2C }
  - { offsetInCU: 0x2E5D2, offset: 0x51ABF, size: 0x8, addend: 0x0, symName: __ZNSt3__121__unordered_map_equalINS_12basic_stringIcNS_11char_traitsIcEENS_9allocatorIcEEEENS_17__hash_value_typeIS6_NS_8functionIFvRN8nlohmann16json_abi_v3_11_210basic_jsonINS_3mapENS_6vectorES6_bxydS4_NSA_14adl_serializerENSD_IhNS4_IhEEEEvEEEEEEENS_8equal_toIS6_EENS_4hashIS6_EELb1EEC2B7v160006Ev, symObjAddr: 0x14B10, symBinAddr: 0x100017D8C, symSize: 0x14 }
  - { offsetInCU: 0x2E5FC, offset: 0x51AE9, size: 0x8, addend: 0x0, symName: __ZNSt3__16vectorIP15JobWorkerThreadNS_9allocatorIS2_EEED2B7v160006Ev, symObjAddr: 0x14B24, symBinAddr: 0x100017DA0, symSize: 0x44 }
  - { offsetInCU: 0x2E626, offset: 0x51B13, size: 0x8, addend: 0x0, symName: __ZNSt3__16vectorIP15JobWorkerThreadNS_9allocatorIS2_EEE16__destroy_vectorC1ERS5_, symObjAddr: 0x14B68, symBinAddr: 0x100017DE4, symSize: 0x34 }
  - { offsetInCU: 0x2E65F, offset: 0x51B4C, size: 0x8, addend: 0x0, symName: __ZNSt3__16vectorIP15JobWorkerThreadNS_9allocatorIS2_EEE16__destroy_vectorclB7v160006Ev, symObjAddr: 0x14B9C, symBinAddr: 0x100017E18, symSize: 0x9C }
  - { offsetInCU: 0x2E685, offset: 0x51B72, size: 0x8, addend: 0x0, symName: __ZNSt3__16vectorIP15JobWorkerThreadNS_9allocatorIS2_EEE16__destroy_vectorC2ERS5_, symObjAddr: 0x14C38, symBinAddr: 0x100017EB4, symSize: 0x20 }
  - { offsetInCU: 0x2E6BE, offset: 0x51BAB, size: 0x8, addend: 0x0, symName: __ZNKSt3__16vectorIP15JobWorkerThreadNS_9allocatorIS2_EEE17__annotate_deleteB7v160006Ev, symObjAddr: 0x14C58, symBinAddr: 0x100017ED4, symSize: 0xB8 }
  - { offsetInCU: 0x2E6E4, offset: 0x51BD1, size: 0x8, addend: 0x0, symName: __ZNSt3__16vectorIP15JobWorkerThreadNS_9allocatorIS2_EEE7__clearB7v160006Ev, symObjAddr: 0x14D20, symBinAddr: 0x100017F9C, symSize: 0x28 }
  - { offsetInCU: 0x2E70A, offset: 0x51BF7, size: 0x8, addend: 0x0, symName: __ZNSt3__116allocator_traitsINS_9allocatorIP15JobWorkerThreadEEE10deallocateB7v160006ERS4_PS3_m, symObjAddr: 0x14D48, symBinAddr: 0x100017FC4, symSize: 0x34 }
  - { offsetInCU: 0x2E74C, offset: 0x51C39, size: 0x8, addend: 0x0, symName: __ZNSt3__16vectorIP15JobWorkerThreadNS_9allocatorIS2_EEE7__allocB7v160006Ev, symObjAddr: 0x14D7C, symBinAddr: 0x100017FF8, symSize: 0x28 }
  - { offsetInCU: 0x2E772, offset: 0x51C5F, size: 0x8, addend: 0x0, symName: __ZNKSt3__16vectorIP15JobWorkerThreadNS_9allocatorIS2_EEE8capacityB7v160006Ev, symObjAddr: 0x14DA4, symBinAddr: 0x100018020, symSize: 0x40 }
  - { offsetInCU: 0x2E798, offset: 0x51C85, size: 0x8, addend: 0x0, symName: __ZNKSt3__16vectorIP15JobWorkerThreadNS_9allocatorIS2_EEE31__annotate_contiguous_containerB7v160006EPKvS7_S7_S7_, symObjAddr: 0x14DE4, symBinAddr: 0x100018060, symSize: 0x20 }
  - { offsetInCU: 0x2E7EA, offset: 0x51CD7, size: 0x8, addend: 0x0, symName: __ZNKSt3__16vectorIP15JobWorkerThreadNS_9allocatorIS2_EEE4dataB7v160006Ev, symObjAddr: 0x14E04, symBinAddr: 0x100018080, symSize: 0x28 }
  - { offsetInCU: 0x2E810, offset: 0x51CFD, size: 0x8, addend: 0x0, symName: __ZNSt3__16vectorIP15JobWorkerThreadNS_9allocatorIS2_EEE22__base_destruct_at_endB7v160006EPS2_, symObjAddr: 0x14E40, symBinAddr: 0x1000180BC, symSize: 0x8C }
  - { offsetInCU: 0x2E854, offset: 0x51D41, size: 0x8, addend: 0x0, symName: __ZNSt3__116allocator_traitsINS_9allocatorIP15JobWorkerThreadEEE7destroyB7v160006IS3_vEEvRS4_PT_, symObjAddr: 0x14ECC, symBinAddr: 0x100018148, symSize: 0x2C }
  - { offsetInCU: 0x2E891, offset: 0x51D7E, size: 0x8, addend: 0x0, symName: __ZNSt3__19allocatorIP15JobWorkerThreadE7destroyB7v160006EPS2_, symObjAddr: 0x14EF8, symBinAddr: 0x100018174, symSize: 0x14 }
  - { offsetInCU: 0x2E8C5, offset: 0x51DB2, size: 0x8, addend: 0x0, symName: __ZNSt3__19allocatorIP15JobWorkerThreadE10deallocateB7v160006EPS2_m, symObjAddr: 0x14F0C, symBinAddr: 0x100018188, symSize: 0x40 }
  - { offsetInCU: 0x2E907, offset: 0x51DF4, size: 0x8, addend: 0x0, symName: __ZNSt3__117__compressed_pairIPP15JobWorkerThreadNS_9allocatorIS2_EEE6secondB7v160006Ev, symObjAddr: 0x14F4C, symBinAddr: 0x1000181C8, symSize: 0x24 }
  - { offsetInCU: 0x2E92D, offset: 0x51E1A, size: 0x8, addend: 0x0, symName: __ZNSt3__122__compressed_pair_elemINS_9allocatorIP15JobWorkerThreadEELi1ELb1EE5__getB7v160006Ev, symObjAddr: 0x14F70, symBinAddr: 0x1000181EC, symSize: 0x14 }
  - { offsetInCU: 0x2E953, offset: 0x51E40, size: 0x8, addend: 0x0, symName: __ZNKSt3__16vectorIP15JobWorkerThreadNS_9allocatorIS2_EEE9__end_capB7v160006Ev, symObjAddr: 0x14F84, symBinAddr: 0x100018200, symSize: 0x28 }
  - { offsetInCU: 0x2E979, offset: 0x51E66, size: 0x8, addend: 0x0, symName: __ZNKSt3__117__compressed_pairIPP15JobWorkerThreadNS_9allocatorIS2_EEE5firstB7v160006Ev, symObjAddr: 0x14FAC, symBinAddr: 0x100018228, symSize: 0x24 }
  - { offsetInCU: 0x2E99F, offset: 0x51E8C, size: 0x8, addend: 0x0, symName: __ZNKSt3__122__compressed_pair_elemIPP15JobWorkerThreadLi0ELb0EE5__getB7v160006Ev, symObjAddr: 0x14FD0, symBinAddr: 0x10001824C, symSize: 0x14 }
  - { offsetInCU: 0x2E9C5, offset: 0x51EB2, size: 0x8, addend: 0x0, symName: __ZNSt3__15dequeIP3JobNS_9allocatorIS2_EEED2B7v160006Ev, symObjAddr: 0x14FE4, symBinAddr: 0x100018260, symSize: 0x9C }
  - { offsetInCU: 0x2EA1C, offset: 0x51F09, size: 0x8, addend: 0x0, symName: __ZNSt3__15dequeIP3JobNS_9allocatorIS2_EEE5clearEv, symObjAddr: 0x15080, symBinAddr: 0x1000182FC, symSize: 0x180 }
  - { offsetInCU: 0x2EA77, offset: 0x51F64, size: 0x8, addend: 0x0, symName: __ZNSt3__114__split_bufferIPP3JobNS_9allocatorIS3_EEE5beginB7v160006Ev, symObjAddr: 0x15200, symBinAddr: 0x10001847C, symSize: 0x18 }
  - { offsetInCU: 0x2EA9D, offset: 0x51F8A, size: 0x8, addend: 0x0, symName: __ZNSt3__114__split_bufferIPP3JobNS_9allocatorIS3_EEE3endB7v160006Ev, symObjAddr: 0x15218, symBinAddr: 0x100018494, symSize: 0x18 }
  - { offsetInCU: 0x2EAC3, offset: 0x51FB0, size: 0x8, addend: 0x0, symName: __ZNSt3__116allocator_traitsINS_9allocatorIP3JobEEE10deallocateB7v160006ERS4_PS3_m, symObjAddr: 0x15230, symBinAddr: 0x1000184AC, symSize: 0x34 }
  - { offsetInCU: 0x2EB05, offset: 0x51FF2, size: 0x8, addend: 0x0, symName: __ZNSt3__15dequeIP3JobNS_9allocatorIS2_EEE7__allocB7v160006Ev, symObjAddr: 0x15264, symBinAddr: 0x1000184E0, symSize: 0x28 }
  - { offsetInCU: 0x2EB2B, offset: 0x52018, size: 0x8, addend: 0x0, symName: __ZNSt3__114__split_bufferIPP3JobNS_9allocatorIS3_EEED1Ev, symObjAddr: 0x1528C, symBinAddr: 0x100018508, symSize: 0x2C }
  - { offsetInCU: 0x2EB57, offset: 0x52044, size: 0x8, addend: 0x0, symName: __ZNSt3__116allocator_traitsINS_9allocatorIP3JobEEE7destroyB7v160006IS3_vEEvRS4_PT_, symObjAddr: 0x152B8, symBinAddr: 0x100018534, symSize: 0x2C }
  - { offsetInCU: 0x2EB94, offset: 0x52081, size: 0x8, addend: 0x0, symName: __ZNSt3__15dequeIP3JobNS_9allocatorIS2_EEE6__sizeB7v160006Ev, symObjAddr: 0x152E4, symBinAddr: 0x100018560, symSize: 0x28 }
  - { offsetInCU: 0x2EBBA, offset: 0x520A7, size: 0x8, addend: 0x0, symName: __ZNKSt3__114__split_bufferIPP3JobNS_9allocatorIS3_EEE4sizeB7v160006Ev, symObjAddr: 0x1530C, symBinAddr: 0x100018588, symSize: 0x28 }
  - { offsetInCU: 0x2EBE0, offset: 0x520CD, size: 0x8, addend: 0x0, symName: __ZNSt3__114__split_bufferIPP3JobNS_9allocatorIS3_EEE5frontB7v160006Ev, symObjAddr: 0x15334, symBinAddr: 0x1000185B0, symSize: 0x18 }
  - { offsetInCU: 0x2EC06, offset: 0x520F3, size: 0x8, addend: 0x0, symName: __ZNSt3__114__split_bufferIPP3JobNS_9allocatorIS3_EEE9pop_frontB7v160006Ev, symObjAddr: 0x1534C, symBinAddr: 0x1000185C8, symSize: 0x2C }
  - { offsetInCU: 0x2EC2C, offset: 0x52119, size: 0x8, addend: 0x0, symName: __ZNSt3__19allocatorIP3JobE7destroyB7v160006EPS2_, symObjAddr: 0x15378, symBinAddr: 0x1000185F4, symSize: 0x14 }
  - { offsetInCU: 0x2EC60, offset: 0x5214D, size: 0x8, addend: 0x0, symName: __ZNSt3__117__compressed_pairImNS_9allocatorIP3JobEEE5firstB7v160006Ev, symObjAddr: 0x1538C, symBinAddr: 0x100018608, symSize: 0x24 }
  - { offsetInCU: 0x2EC86, offset: 0x52173, size: 0x8, addend: 0x0, symName: __ZNSt3__114__split_bufferIPP3JobNS_9allocatorIS3_EEE19__destruct_at_beginB7v160006EPS3_, symObjAddr: 0x153B0, symBinAddr: 0x10001862C, symSize: 0x2C }
  - { offsetInCU: 0x2ECBA, offset: 0x521A7, size: 0x8, addend: 0x0, symName: __ZNSt3__114__split_bufferIPP3JobNS_9allocatorIS3_EEE19__destruct_at_beginEPS3_NS_17integral_constantIbLb1EEE, symObjAddr: 0x153DC, symBinAddr: 0x100018658, symSize: 0x20 }
  - { offsetInCU: 0x2ECFB, offset: 0x521E8, size: 0x8, addend: 0x0, symName: __ZNSt3__19allocatorIP3JobE10deallocateB7v160006EPS2_m, symObjAddr: 0x153FC, symBinAddr: 0x100018678, symSize: 0x40 }
  - { offsetInCU: 0x2ED3D, offset: 0x5222A, size: 0x8, addend: 0x0, symName: __ZNSt3__117__compressed_pairImNS_9allocatorIP3JobEEE6secondB7v160006Ev, symObjAddr: 0x1543C, symBinAddr: 0x1000186B8, symSize: 0x24 }
  - { offsetInCU: 0x2ED63, offset: 0x52250, size: 0x8, addend: 0x0, symName: __ZNSt3__122__compressed_pair_elemINS_9allocatorIP3JobEELi1ELb1EE5__getB7v160006Ev, symObjAddr: 0x15460, symBinAddr: 0x1000186DC, symSize: 0x14 }
  - { offsetInCU: 0x2ED89, offset: 0x52276, size: 0x8, addend: 0x0, symName: __ZNSt3__114__split_bufferIPP3JobNS_9allocatorIS3_EEED2Ev, symObjAddr: 0x15474, symBinAddr: 0x1000186F0, symSize: 0x8C }
  - { offsetInCU: 0x2EDB5, offset: 0x522A2, size: 0x8, addend: 0x0, symName: __ZNSt3__114__split_bufferIPP3JobNS_9allocatorIS3_EEE5clearB7v160006Ev, symObjAddr: 0x15500, symBinAddr: 0x10001877C, symSize: 0x28 }
  - { offsetInCU: 0x2EDDB, offset: 0x522C8, size: 0x8, addend: 0x0, symName: __ZNSt3__116allocator_traitsINS_9allocatorIPP3JobEEE10deallocateB7v160006ERS5_PS4_m, symObjAddr: 0x15528, symBinAddr: 0x1000187A4, symSize: 0x34 }
  - { offsetInCU: 0x2EE1D, offset: 0x5230A, size: 0x8, addend: 0x0, symName: __ZNSt3__114__split_bufferIPP3JobNS_9allocatorIS3_EEE7__allocB7v160006Ev, symObjAddr: 0x1555C, symBinAddr: 0x1000187D8, symSize: 0x28 }
  - { offsetInCU: 0x2EE43, offset: 0x52330, size: 0x8, addend: 0x0, symName: __ZNKSt3__114__split_bufferIPP3JobNS_9allocatorIS3_EEE8capacityB7v160006Ev, symObjAddr: 0x15584, symBinAddr: 0x100018800, symSize: 0x40 }
  - { offsetInCU: 0x2EE69, offset: 0x52356, size: 0x8, addend: 0x0, symName: __ZNSt3__114__split_bufferIPP3JobNS_9allocatorIS3_EEE17__destruct_at_endB7v160006EPS3_, symObjAddr: 0x155C4, symBinAddr: 0x100018840, symSize: 0x2C }
  - { offsetInCU: 0x2EE9D, offset: 0x5238A, size: 0x8, addend: 0x0, symName: __ZNSt3__114__split_bufferIPP3JobNS_9allocatorIS3_EEE17__destruct_at_endB7v160006EPS3_NS_17integral_constantIbLb0EEE, symObjAddr: 0x155F0, symBinAddr: 0x10001886C, symSize: 0x80 }
  - { offsetInCU: 0x2EEDE, offset: 0x523CB, size: 0x8, addend: 0x0, symName: __ZNSt3__116allocator_traitsINS_9allocatorIPP3JobEEE7destroyB7v160006IS4_vEEvRS5_PT_, symObjAddr: 0x15670, symBinAddr: 0x1000188EC, symSize: 0x2C }
  - { offsetInCU: 0x2EF1B, offset: 0x52408, size: 0x8, addend: 0x0, symName: __ZNSt3__19allocatorIPP3JobE7destroyB7v160006EPS3_, symObjAddr: 0x156B0, symBinAddr: 0x10001892C, symSize: 0x14 }
  - { offsetInCU: 0x2EF4F, offset: 0x5243C, size: 0x8, addend: 0x0, symName: __ZNSt3__19allocatorIPP3JobE10deallocateB7v160006EPS3_m, symObjAddr: 0x156C4, symBinAddr: 0x100018940, symSize: 0x40 }
  - { offsetInCU: 0x2EF91, offset: 0x5247E, size: 0x8, addend: 0x0, symName: __ZNSt3__117__compressed_pairIPPP3JobNS_9allocatorIS3_EEE6secondB7v160006Ev, symObjAddr: 0x15704, symBinAddr: 0x100018980, symSize: 0x24 }
  - { offsetInCU: 0x2EFB7, offset: 0x524A4, size: 0x8, addend: 0x0, symName: __ZNSt3__122__compressed_pair_elemINS_9allocatorIPP3JobEELi1ELb1EE5__getB7v160006Ev, symObjAddr: 0x15728, symBinAddr: 0x1000189A4, symSize: 0x14 }
  - { offsetInCU: 0x2EFDD, offset: 0x524CA, size: 0x8, addend: 0x0, symName: __ZNKSt3__114__split_bufferIPP3JobNS_9allocatorIS3_EEE9__end_capB7v160006Ev, symObjAddr: 0x1573C, symBinAddr: 0x1000189B8, symSize: 0x28 }
  - { offsetInCU: 0x2F003, offset: 0x524F0, size: 0x8, addend: 0x0, symName: __ZNKSt3__117__compressed_pairIPPP3JobNS_9allocatorIS3_EEE5firstB7v160006Ev, symObjAddr: 0x15764, symBinAddr: 0x1000189E0, symSize: 0x24 }
  - { offsetInCU: 0x2F029, offset: 0x52516, size: 0x8, addend: 0x0, symName: __ZNKSt3__122__compressed_pair_elemIPPP3JobLi0ELb0EE5__getB7v160006Ev, symObjAddr: 0x15788, symBinAddr: 0x100018A04, symSize: 0x14 }
  - { offsetInCU: 0x2F04F, offset: 0x5253C, size: 0x8, addend: 0x0, symName: __ZNSt3__16vectorI15JobHistoryEntryNS_9allocatorIS1_EEED2B7v160006Ev, symObjAddr: 0x1579C, symBinAddr: 0x100018A18, symSize: 0x44 }
  - { offsetInCU: 0x2F079, offset: 0x52566, size: 0x8, addend: 0x0, symName: __ZNSt3__16vectorI15JobHistoryEntryNS_9allocatorIS1_EEE16__destroy_vectorC1ERS4_, symObjAddr: 0x157E0, symBinAddr: 0x100018A5C, symSize: 0x34 }
  - { offsetInCU: 0x2F0B2, offset: 0x5259F, size: 0x8, addend: 0x0, symName: __ZNSt3__16vectorI15JobHistoryEntryNS_9allocatorIS1_EEE16__destroy_vectorclB7v160006Ev, symObjAddr: 0x15814, symBinAddr: 0x100018A90, symSize: 0x9C }
  - { offsetInCU: 0x2F0D8, offset: 0x525C5, size: 0x8, addend: 0x0, symName: __ZNSt3__16vectorI15JobHistoryEntryNS_9allocatorIS1_EEE16__destroy_vectorC2ERS4_, symObjAddr: 0x158B0, symBinAddr: 0x100018B2C, symSize: 0x20 }
  - { offsetInCU: 0x2F111, offset: 0x525FE, size: 0x8, addend: 0x0, symName: __ZNKSt3__16vectorI15JobHistoryEntryNS_9allocatorIS1_EEE17__annotate_deleteB7v160006Ev, symObjAddr: 0x158D0, symBinAddr: 0x100018B4C, symSize: 0xB8 }
  - { offsetInCU: 0x2F137, offset: 0x52624, size: 0x8, addend: 0x0, symName: __ZNSt3__16vectorI15JobHistoryEntryNS_9allocatorIS1_EEE7__clearB7v160006Ev, symObjAddr: 0x15998, symBinAddr: 0x100018C14, symSize: 0x28 }
  - { offsetInCU: 0x2F15D, offset: 0x5264A, size: 0x8, addend: 0x0, symName: __ZNSt3__116allocator_traitsINS_9allocatorI15JobHistoryEntryEEE10deallocateB7v160006ERS3_PS2_m, symObjAddr: 0x159C0, symBinAddr: 0x100018C3C, symSize: 0x34 }
  - { offsetInCU: 0x2F19F, offset: 0x5268C, size: 0x8, addend: 0x0, symName: __ZNSt3__16vectorI15JobHistoryEntryNS_9allocatorIS1_EEE7__allocB7v160006Ev, symObjAddr: 0x159F4, symBinAddr: 0x100018C70, symSize: 0x28 }
  - { offsetInCU: 0x2F1C5, offset: 0x526B2, size: 0x8, addend: 0x0, symName: __ZNKSt3__16vectorI15JobHistoryEntryNS_9allocatorIS1_EEE8capacityB7v160006Ev, symObjAddr: 0x15A1C, symBinAddr: 0x100018C98, symSize: 0x40 }
  - { offsetInCU: 0x2F1EB, offset: 0x526D8, size: 0x8, addend: 0x0, symName: __ZNKSt3__16vectorI15JobHistoryEntryNS_9allocatorIS1_EEE31__annotate_contiguous_containerB7v160006EPKvS6_S6_S6_, symObjAddr: 0x15A5C, symBinAddr: 0x100018CD8, symSize: 0x20 }
  - { offsetInCU: 0x2F23D, offset: 0x5272A, size: 0x8, addend: 0x0, symName: __ZNKSt3__16vectorI15JobHistoryEntryNS_9allocatorIS1_EEE4dataB7v160006Ev, symObjAddr: 0x15A7C, symBinAddr: 0x100018CF8, symSize: 0x28 }
  - { offsetInCU: 0x2F263, offset: 0x52750, size: 0x8, addend: 0x0, symName: __ZNSt3__16vectorI15JobHistoryEntryNS_9allocatorIS1_EEE22__base_destruct_at_endB7v160006EPS1_, symObjAddr: 0x15AB8, symBinAddr: 0x100018D34, symSize: 0x8C }
  - { offsetInCU: 0x2F2A7, offset: 0x52794, size: 0x8, addend: 0x0, symName: __ZNSt3__116allocator_traitsINS_9allocatorI15JobHistoryEntryEEE7destroyB7v160006IS2_vEEvRS3_PT_, symObjAddr: 0x15B44, symBinAddr: 0x100018DC0, symSize: 0x2C }
  - { offsetInCU: 0x2F2E4, offset: 0x527D1, size: 0x8, addend: 0x0, symName: __ZNSt3__19allocatorI15JobHistoryEntryE7destroyB7v160006EPS1_, symObjAddr: 0x15B70, symBinAddr: 0x100018DEC, symSize: 0x14 }
  - { offsetInCU: 0x2F318, offset: 0x52805, size: 0x8, addend: 0x0, symName: __ZNSt3__19allocatorI15JobHistoryEntryE10deallocateB7v160006EPS1_m, symObjAddr: 0x15B84, symBinAddr: 0x100018E00, symSize: 0x40 }
  - { offsetInCU: 0x2F35A, offset: 0x52847, size: 0x8, addend: 0x0, symName: __ZNSt3__117__compressed_pairIP15JobHistoryEntryNS_9allocatorIS1_EEE6secondB7v160006Ev, symObjAddr: 0x15BC4, symBinAddr: 0x100018E40, symSize: 0x24 }
  - { offsetInCU: 0x2F380, offset: 0x5286D, size: 0x8, addend: 0x0, symName: __ZNSt3__122__compressed_pair_elemINS_9allocatorI15JobHistoryEntryEELi1ELb1EE5__getB7v160006Ev, symObjAddr: 0x15BE8, symBinAddr: 0x100018E64, symSize: 0x14 }
  - { offsetInCU: 0x2F3A6, offset: 0x52893, size: 0x8, addend: 0x0, symName: __ZNKSt3__16vectorI15JobHistoryEntryNS_9allocatorIS1_EEE9__end_capB7v160006Ev, symObjAddr: 0x15BFC, symBinAddr: 0x100018E78, symSize: 0x28 }
  - { offsetInCU: 0x2F3CC, offset: 0x528B9, size: 0x8, addend: 0x0, symName: __ZNKSt3__117__compressed_pairIP15JobHistoryEntryNS_9allocatorIS1_EEE5firstB7v160006Ev, symObjAddr: 0x15C24, symBinAddr: 0x100018EA0, symSize: 0x24 }
  - { offsetInCU: 0x2F3F2, offset: 0x528DF, size: 0x8, addend: 0x0, symName: __ZNKSt3__122__compressed_pair_elemIP15JobHistoryEntryLi0ELb0EE5__getB7v160006Ev, symObjAddr: 0x15C48, symBinAddr: 0x100018EC4, symSize: 0x14 }
  - { offsetInCU: 0x2F418, offset: 0x52905, size: 0x8, addend: 0x0, symName: __ZNSt3__113unordered_mapINS_12basic_stringIcNS_11char_traitsIcEENS_9allocatorIcEEEENS_8functionIFvRN8nlohmann16json_abi_v3_11_210basic_jsonINS_3mapENS_6vectorES6_bxydS4_NS9_14adl_serializerENSC_IhNS4_IhEEEEvEEEEENS_4hashIS6_EENS_8equal_toIS6_EENS4_INS_4pairIKS6_SJ_EEEEED2B7v160006Ev, symObjAddr: 0x15C5C, symBinAddr: 0x100018ED8, symSize: 0x2C }
  - { offsetInCU: 0x2F442, offset: 0x5292F, size: 0x8, addend: 0x0, symName: __ZNSt3__112__hash_tableINS_17__hash_value_typeINS_12basic_stringIcNS_11char_traitsIcEENS_9allocatorIcEEEENS_8functionIFvRN8nlohmann16json_abi_v3_11_210basic_jsonINS_3mapENS_6vectorES7_bxydS5_NSA_14adl_serializerENSD_IhNS5_IhEEEEvEEEEEEENS_22__unordered_map_hasherIS7_SL_NS_4hashIS7_EENS_8equal_toIS7_EELb1EEENS_21__unordered_map_equalIS7_SL_SQ_SO_Lb1EEENS5_ISL_EEED1Ev, symObjAddr: 0x15C88, symBinAddr: 0x100018F04, symSize: 0x2C }
  - { offsetInCU: 0x2F46E, offset: 0x5295B, size: 0x8, addend: 0x0, symName: __ZNSt3__112__hash_tableINS_17__hash_value_typeINS_12basic_stringIcNS_11char_traitsIcEENS_9allocatorIcEEEENS_8functionIFvRN8nlohmann16json_abi_v3_11_210basic_jsonINS_3mapENS_6vectorES7_bxydS5_NSA_14adl_serializerENSD_IhNS5_IhEEEEvEEEEEEENS_22__unordered_map_hasherIS7_SL_NS_4hashIS7_EENS_8equal_toIS7_EELb1EEENS_21__unordered_map_equalIS7_SL_SQ_SO_Lb1EEENS5_ISL_EEED2Ev, symObjAddr: 0x15CB4, symBinAddr: 0x100018F30, symSize: 0x58 }
  - { offsetInCU: 0x2F49A, offset: 0x52987, size: 0x8, addend: 0x0, symName: __ZNSt3__112__hash_tableINS_17__hash_value_typeINS_12basic_stringIcNS_11char_traitsIcEENS_9allocatorIcEEEENS_8functionIFvRN8nlohmann16json_abi_v3_11_210basic_jsonINS_3mapENS_6vectorES7_bxydS5_NSA_14adl_serializerENSD_IhNS5_IhEEEEvEEEEEEENS_22__unordered_map_hasherIS7_SL_NS_4hashIS7_EENS_8equal_toIS7_EELb1EEENS_21__unordered_map_equalIS7_SL_SQ_SO_Lb1EEENS5_ISL_EEE17__deallocate_nodeEPNS_16__hash_node_baseIPNS_11__hash_nodeISL_PvEEEE, symObjAddr: 0x15D0C, symBinAddr: 0x100018F88, symSize: 0xA8 }
  - { offsetInCU: 0x2F504, offset: 0x529F1, size: 0x8, addend: 0x0, symName: __ZNSt3__117__compressed_pairINS_16__hash_node_baseIPNS_11__hash_nodeINS_17__hash_value_typeINS_12basic_stringIcNS_11char_traitsIcEENS_9allocatorIcEEEENS_8functionIFvRN8nlohmann16json_abi_v3_11_210basic_jsonINS_3mapENS_6vectorES9_bxydS7_NSC_14adl_serializerENSF_IhNS7_IhEEEEvEEEEEEEPvEEEENS7_ISP_EEE5firstB7v160006Ev, symObjAddr: 0x15DB4, symBinAddr: 0x100019030, symSize: 0x24 }
  - { offsetInCU: 0x2F52A, offset: 0x52A17, size: 0x8, addend: 0x0, symName: __ZNSt3__110unique_ptrIA_PNS_16__hash_node_baseIPNS_11__hash_nodeINS_17__hash_value_typeINS_12basic_stringIcNS_11char_traitsIcEENS_9allocatorIcEEEENS_8functionIFvRN8nlohmann16json_abi_v3_11_210basic_jsonINS_3mapENS_6vectorES9_bxydS7_NSC_14adl_serializerENSF_IhNS7_IhEEEEvEEEEEEEPvEEEENS_25__bucket_list_deallocatorINS7_ISS_EEEEED1B7v160006Ev, symObjAddr: 0x15DE8, symBinAddr: 0x100019064, symSize: 0x2C }
  - { offsetInCU: 0x2F554, offset: 0x52A41, size: 0x8, addend: 0x0, symName: __ZNSt3__112__hash_tableINS_17__hash_value_typeINS_12basic_stringIcNS_11char_traitsIcEENS_9allocatorIcEEEENS_8functionIFvRN8nlohmann16json_abi_v3_11_210basic_jsonINS_3mapENS_6vectorES7_bxydS5_NSA_14adl_serializerENSD_IhNS5_IhEEEEvEEEEEEENS_22__unordered_map_hasherIS7_SL_NS_4hashIS7_EENS_8equal_toIS7_EELb1EEENS_21__unordered_map_equalIS7_SL_SQ_SO_Lb1EEENS5_ISL_EEE12__node_allocB7v160006Ev, symObjAddr: 0x15E14, symBinAddr: 0x100019090, symSize: 0x28 }
  - { offsetInCU: 0x2F57A, offset: 0x52A67, size: 0x8, addend: 0x0, symName: __ZNSt3__116__hash_node_baseIPNS_11__hash_nodeINS_17__hash_value_typeINS_12basic_stringIcNS_11char_traitsIcEENS_9allocatorIcEEEENS_8functionIFvRN8nlohmann16json_abi_v3_11_210basic_jsonINS_3mapENS_6vectorES8_bxydS6_NSB_14adl_serializerENSE_IhNS6_IhEEEEvEEEEEEEPvEEE8__upcastB7v160006Ev, symObjAddr: 0x15E3C, symBinAddr: 0x1000190B8, symSize: 0x24 }
  - { offsetInCU: 0x2F5A0, offset: 0x52A8D, size: 0x8, addend: 0x0, symName: __ZNSt3__116allocator_traitsINS_9allocatorINS_11__hash_nodeINS_17__hash_value_typeINS_12basic_stringIcNS_11char_traitsIcEENS1_IcEEEENS_8functionIFvRN8nlohmann16json_abi_v3_11_210basic_jsonINS_3mapENS_6vectorES8_bxydS1_NSB_14adl_serializerENSE_IhNS1_IhEEEEvEEEEEEEPvEEEEE7destroyB7v160006INS_4pairIKS8_SL_EEvvEEvRSP_PT_, symObjAddr: 0x15E60, symBinAddr: 0x1000190DC, symSize: 0x28 }
  - { offsetInCU: 0x2F5DA, offset: 0x52AC7, size: 0x8, addend: 0x0, symName: __ZNSt3__122__hash_key_value_typesINS_17__hash_value_typeINS_12basic_stringIcNS_11char_traitsIcEENS_9allocatorIcEEEENS_8functionIFvRN8nlohmann16json_abi_v3_11_210basic_jsonINS_3mapENS_6vectorES7_bxydS5_NSA_14adl_serializerENSD_IhNS5_IhEEEEvEEEEEEEE9__get_ptrB7v160006ERSL_, symObjAddr: 0x15E88, symBinAddr: 0x100019104, symSize: 0x24 }
  - { offsetInCU: 0x2F5FD, offset: 0x52AEA, size: 0x8, addend: 0x0, symName: __ZNSt3__116allocator_traitsINS_9allocatorINS_11__hash_nodeINS_17__hash_value_typeINS_12basic_stringIcNS_11char_traitsIcEENS1_IcEEEENS_8functionIFvRN8nlohmann16json_abi_v3_11_210basic_jsonINS_3mapENS_6vectorES8_bxydS1_NSB_14adl_serializerENSE_IhNS1_IhEEEEvEEEEEEEPvEEEEE10deallocateB7v160006ERSP_PSO_m, symObjAddr: 0x15EAC, symBinAddr: 0x100019128, symSize: 0x34 }
  - { offsetInCU: 0x2F63F, offset: 0x52B2C, size: 0x8, addend: 0x0, symName: __ZNSt3__117__compressed_pairINS_16__hash_node_baseIPNS_11__hash_nodeINS_17__hash_value_typeINS_12basic_stringIcNS_11char_traitsIcEENS_9allocatorIcEEEENS_8functionIFvRN8nlohmann16json_abi_v3_11_210basic_jsonINS_3mapENS_6vectorES9_bxydS7_NSC_14adl_serializerENSF_IhNS7_IhEEEEvEEEEEEEPvEEEENS7_ISP_EEE6secondB7v160006Ev, symObjAddr: 0x15EE0, symBinAddr: 0x10001915C, symSize: 0x24 }
  - { offsetInCU: 0x2F665, offset: 0x52B52, size: 0x8, addend: 0x0, symName: __ZNSt3__122__compressed_pair_elemINS_9allocatorINS_11__hash_nodeINS_17__hash_value_typeINS_12basic_stringIcNS_11char_traitsIcEENS1_IcEEEENS_8functionIFvRN8nlohmann16json_abi_v3_11_210basic_jsonINS_3mapENS_6vectorES8_bxydS1_NSB_14adl_serializerENSE_IhNS1_IhEEEEvEEEEEEEPvEEEELi1ELb1EE5__getB7v160006Ev, symObjAddr: 0x15F04, symBinAddr: 0x100019180, symSize: 0x14 }
  - { offsetInCU: 0x2F68B, offset: 0x52B78, size: 0x8, addend: 0x0, symName: __ZNSt3__114pointer_traitsIPNS_16__hash_node_baseIPNS_11__hash_nodeINS_17__hash_value_typeINS_12basic_stringIcNS_11char_traitsIcEENS_9allocatorIcEEEENS_8functionIFvRN8nlohmann16json_abi_v3_11_210basic_jsonINS_3mapENS_6vectorES9_bxydS7_NSC_14adl_serializerENSF_IhNS7_IhEEEEvEEEEEEEPvEEEEE10pointer_toB7v160006ERSR_, symObjAddr: 0x15F18, symBinAddr: 0x100019194, symSize: 0x14 }
  - { offsetInCU: 0x2F6AE, offset: 0x52B9B, size: 0x8, addend: 0x0, symName: __ZNSt3__14pairIKNS_12basic_stringIcNS_11char_traitsIcEENS_9allocatorIcEEEENS_8functionIFvRN8nlohmann16json_abi_v3_11_210basic_jsonINS_3mapENS_6vectorES6_bxydS4_NSA_14adl_serializerENSD_IhNS4_IhEEEEvEEEEEED1Ev, symObjAddr: 0x15F2C, symBinAddr: 0x1000191A8, symSize: 0x2C }
  - { offsetInCU: 0x2F6DA, offset: 0x52BC7, size: 0x8, addend: 0x0, symName: __ZNSt3__14pairIKNS_12basic_stringIcNS_11char_traitsIcEENS_9allocatorIcEEEENS_8functionIFvRN8nlohmann16json_abi_v3_11_210basic_jsonINS_3mapENS_6vectorES6_bxydS4_NSA_14adl_serializerENSD_IhNS4_IhEEEEvEEEEEED2Ev, symObjAddr: 0x15F58, symBinAddr: 0x1000191D4, symSize: 0x38 }
  - { offsetInCU: 0x2F706, offset: 0x52BF3, size: 0x8, addend: 0x0, symName: __ZNSt3__117__hash_value_typeINS_12basic_stringIcNS_11char_traitsIcEENS_9allocatorIcEEEENS_8functionIFvRN8nlohmann16json_abi_v3_11_210basic_jsonINS_3mapENS_6vectorES6_bxydS4_NS9_14adl_serializerENSC_IhNS4_IhEEEEvEEEEEE11__get_valueB7v160006Ev, symObjAddr: 0x160A4, symBinAddr: 0x10001920C, symSize: 0x24 }
  - { offsetInCU: 0x2F72C, offset: 0x52C19, size: 0x8, addend: 0x0, symName: __ZNSt3__19allocatorINS_11__hash_nodeINS_17__hash_value_typeINS_12basic_stringIcNS_11char_traitsIcEENS0_IcEEEENS_8functionIFvRN8nlohmann16json_abi_v3_11_210basic_jsonINS_3mapENS_6vectorES7_bxydS0_NSA_14adl_serializerENSD_IhNS0_IhEEEEvEEEEEEEPvEEE10deallocateB7v160006EPSN_m, symObjAddr: 0x16100, symBinAddr: 0x100019268, symSize: 0x44 }
  - { offsetInCU: 0x2F76E, offset: 0x52C5B, size: 0x8, addend: 0x0, symName: __ZNSt3__122__compressed_pair_elemINS_16__hash_node_baseIPNS_11__hash_nodeINS_17__hash_value_typeINS_12basic_stringIcNS_11char_traitsIcEENS_9allocatorIcEEEENS_8functionIFvRN8nlohmann16json_abi_v3_11_210basic_jsonINS_3mapENS_6vectorES9_bxydS7_NSC_14adl_serializerENSF_IhNS7_IhEEEEvEEEEEEEPvEEEELi0ELb0EE5__getB7v160006Ev, symObjAddr: 0x16144, symBinAddr: 0x1000192AC, symSize: 0x14 }
  - { offsetInCU: 0x2F794, offset: 0x52C81, size: 0x8, addend: 0x0, symName: __ZNSt3__110unique_ptrIA_PNS_16__hash_node_baseIPNS_11__hash_nodeINS_17__hash_value_typeINS_12basic_stringIcNS_11char_traitsIcEENS_9allocatorIcEEEENS_8functionIFvRN8nlohmann16json_abi_v3_11_210basic_jsonINS_3mapENS_6vectorES9_bxydS7_NSC_14adl_serializerENSF_IhNS7_IhEEEEvEEEEEEEPvEEEENS_25__bucket_list_deallocatorINS7_ISS_EEEEED2B7v160006Ev, symObjAddr: 0x16158, symBinAddr: 0x1000192C0, symSize: 0x30 }
  - { offsetInCU: 0x2F7BE, offset: 0x52CAB, size: 0x8, addend: 0x0, symName: __ZNSt3__110unique_ptrIA_PNS_16__hash_node_baseIPNS_11__hash_nodeINS_17__hash_value_typeINS_12basic_stringIcNS_11char_traitsIcEENS_9allocatorIcEEEENS_8functionIFvRN8nlohmann16json_abi_v3_11_210basic_jsonINS_3mapENS_6vectorES9_bxydS7_NSC_14adl_serializerENSF_IhNS7_IhEEEEvEEEEEEEPvEEEENS_25__bucket_list_deallocatorINS7_ISS_EEEEE5resetB7v160006EDn, symObjAddr: 0x16188, symBinAddr: 0x1000192F0, symSize: 0x6C }
  - { offsetInCU: 0x2F7FE, offset: 0x52CEB, size: 0x8, addend: 0x0, symName: __ZNSt3__117__compressed_pairIPPNS_16__hash_node_baseIPNS_11__hash_nodeINS_17__hash_value_typeINS_12basic_stringIcNS_11char_traitsIcEENS_9allocatorIcEEEENS_8functionIFvRN8nlohmann16json_abi_v3_11_210basic_jsonINS_3mapENS_6vectorES9_bxydS7_NSC_14adl_serializerENSF_IhNS7_IhEEEEvEEEEEEEPvEEEENS_25__bucket_list_deallocatorINS7_ISS_EEEEE5firstB7v160006Ev, symObjAddr: 0x161F4, symBinAddr: 0x10001935C, symSize: 0x24 }
  - { offsetInCU: 0x2F824, offset: 0x52D11, size: 0x8, addend: 0x0, symName: __ZNSt3__117__compressed_pairIPPNS_16__hash_node_baseIPNS_11__hash_nodeINS_17__hash_value_typeINS_12basic_stringIcNS_11char_traitsIcEENS_9allocatorIcEEEENS_8functionIFvRN8nlohmann16json_abi_v3_11_210basic_jsonINS_3mapENS_6vectorES9_bxydS7_NSC_14adl_serializerENSF_IhNS7_IhEEEEvEEEEEEEPvEEEENS_25__bucket_list_deallocatorINS7_ISS_EEEEE6secondB7v160006Ev, symObjAddr: 0x16218, symBinAddr: 0x100019380, symSize: 0x28 }
  - { offsetInCU: 0x2F84A, offset: 0x52D37, size: 0x8, addend: 0x0, symName: __ZNSt3__125__bucket_list_deallocatorINS_9allocatorIPNS_16__hash_node_baseIPNS_11__hash_nodeINS_17__hash_value_typeINS_12basic_stringIcNS_11char_traitsIcEENS1_IcEEEENS_8functionIFvRN8nlohmann16json_abi_v3_11_210basic_jsonINS_3mapENS_6vectorES9_bxydS1_NSC_14adl_serializerENSF_IhNS1_IhEEEEvEEEEEEEPvEEEEEEEclB7v160006EPSS_, symObjAddr: 0x16240, symBinAddr: 0x1000193A8, symSize: 0x58 }
  - { offsetInCU: 0x2F87F, offset: 0x52D6C, size: 0x8, addend: 0x0, symName: __ZNSt3__122__compressed_pair_elemIPPNS_16__hash_node_baseIPNS_11__hash_nodeINS_17__hash_value_typeINS_12basic_stringIcNS_11char_traitsIcEENS_9allocatorIcEEEENS_8functionIFvRN8nlohmann16json_abi_v3_11_210basic_jsonINS_3mapENS_6vectorES9_bxydS7_NSC_14adl_serializerENSF_IhNS7_IhEEEEvEEEEEEEPvEEEELi0ELb0EE5__getB7v160006Ev, symObjAddr: 0x16298, symBinAddr: 0x100019400, symSize: 0x14 }
  - { offsetInCU: 0x2F8A5, offset: 0x52D92, size: 0x8, addend: 0x0, symName: __ZNSt3__122__compressed_pair_elemINS_25__bucket_list_deallocatorINS_9allocatorIPNS_16__hash_node_baseIPNS_11__hash_nodeINS_17__hash_value_typeINS_12basic_stringIcNS_11char_traitsIcEENS2_IcEEEENS_8functionIFvRN8nlohmann16json_abi_v3_11_210basic_jsonINS_3mapENS_6vectorESA_bxydS2_NSD_14adl_serializerENSG_IhNS2_IhEEEEvEEEEEEEPvEEEEEEEELi1ELb0EE5__getB7v160006Ev, symObjAddr: 0x162AC, symBinAddr: 0x100019414, symSize: 0x14 }
  - { offsetInCU: 0x2F8CB, offset: 0x52DB8, size: 0x8, addend: 0x0, symName: __ZNSt3__116allocator_traitsINS_9allocatorIPNS_16__hash_node_baseIPNS_11__hash_nodeINS_17__hash_value_typeINS_12basic_stringIcNS_11char_traitsIcEENS1_IcEEEENS_8functionIFvRN8nlohmann16json_abi_v3_11_210basic_jsonINS_3mapENS_6vectorES9_bxydS1_NSC_14adl_serializerENSF_IhNS1_IhEEEEvEEEEEEEPvEEEEEEE10deallocateB7v160006ERST_PSS_m, symObjAddr: 0x162C0, symBinAddr: 0x100019428, symSize: 0x34 }
  - { offsetInCU: 0x2F90D, offset: 0x52DFA, size: 0x8, addend: 0x0, symName: __ZNSt3__125__bucket_list_deallocatorINS_9allocatorIPNS_16__hash_node_baseIPNS_11__hash_nodeINS_17__hash_value_typeINS_12basic_stringIcNS_11char_traitsIcEENS1_IcEEEENS_8functionIFvRN8nlohmann16json_abi_v3_11_210basic_jsonINS_3mapENS_6vectorES9_bxydS1_NSC_14adl_serializerENSF_IhNS1_IhEEEEvEEEEEEEPvEEEEEEE7__allocB7v160006Ev, symObjAddr: 0x162F4, symBinAddr: 0x10001945C, symSize: 0x24 }
  - { offsetInCU: 0x2F933, offset: 0x52E20, size: 0x8, addend: 0x0, symName: __ZNSt3__125__bucket_list_deallocatorINS_9allocatorIPNS_16__hash_node_baseIPNS_11__hash_nodeINS_17__hash_value_typeINS_12basic_stringIcNS_11char_traitsIcEENS1_IcEEEENS_8functionIFvRN8nlohmann16json_abi_v3_11_210basic_jsonINS_3mapENS_6vectorES9_bxydS1_NSC_14adl_serializerENSF_IhNS1_IhEEEEvEEEEEEEPvEEEEEEE4sizeB7v160006Ev, symObjAddr: 0x16318, symBinAddr: 0x100019480, symSize: 0x24 }
  - { offsetInCU: 0x2F959, offset: 0x52E46, size: 0x8, addend: 0x0, symName: __ZNSt3__19allocatorIPNS_16__hash_node_baseIPNS_11__hash_nodeINS_17__hash_value_typeINS_12basic_stringIcNS_11char_traitsIcEENS0_IcEEEENS_8functionIFvRN8nlohmann16json_abi_v3_11_210basic_jsonINS_3mapENS_6vectorES8_bxydS0_NSB_14adl_serializerENSE_IhNS0_IhEEEEvEEEEEEEPvEEEEE10deallocateB7v160006EPSR_m, symObjAddr: 0x1633C, symBinAddr: 0x1000194A4, symSize: 0x40 }
  - { offsetInCU: 0x2F99B, offset: 0x52E88, size: 0x8, addend: 0x0, symName: __ZNSt3__117__compressed_pairImNS_9allocatorIPNS_16__hash_node_baseIPNS_11__hash_nodeINS_17__hash_value_typeINS_12basic_stringIcNS_11char_traitsIcEENS1_IcEEEENS_8functionIFvRN8nlohmann16json_abi_v3_11_210basic_jsonINS_3mapENS_6vectorES9_bxydS1_NSC_14adl_serializerENSF_IhNS1_IhEEEEvEEEEEEEPvEEEEEEE6secondB7v160006Ev, symObjAddr: 0x1637C, symBinAddr: 0x1000194E4, symSize: 0x24 }
  - { offsetInCU: 0x2F9C1, offset: 0x52EAE, size: 0x8, addend: 0x0, symName: __ZNSt3__122__compressed_pair_elemINS_9allocatorIPNS_16__hash_node_baseIPNS_11__hash_nodeINS_17__hash_value_typeINS_12basic_stringIcNS_11char_traitsIcEENS1_IcEEEENS_8functionIFvRN8nlohmann16json_abi_v3_11_210basic_jsonINS_3mapENS_6vectorES9_bxydS1_NSC_14adl_serializerENSF_IhNS1_IhEEEEvEEEEEEEPvEEEEEELi1ELb1EE5__getB7v160006Ev, symObjAddr: 0x163A0, symBinAddr: 0x100019508, symSize: 0x14 }
  - { offsetInCU: 0x2F9E7, offset: 0x52ED4, size: 0x8, addend: 0x0, symName: __ZNSt3__117__compressed_pairImNS_9allocatorIPNS_16__hash_node_baseIPNS_11__hash_nodeINS_17__hash_value_typeINS_12basic_stringIcNS_11char_traitsIcEENS1_IcEEEENS_8functionIFvRN8nlohmann16json_abi_v3_11_210basic_jsonINS_3mapENS_6vectorES9_bxydS1_NSC_14adl_serializerENSF_IhNS1_IhEEEEvEEEEEEEPvEEEEEEE5firstB7v160006Ev, symObjAddr: 0x163B4, symBinAddr: 0x10001951C, symSize: 0x24 }
  - { offsetInCU: 0x2FA0D, offset: 0x52EFA, size: 0x8, addend: 0x0, symName: __ZNKSt3__16vectorI15JobHistoryEntryNS_9allocatorIS1_EEE8max_sizeEv, symObjAddr: 0x163D8, symBinAddr: 0x100019540, symSize: 0x60 }
  - { offsetInCU: 0x2FA35, offset: 0x52F22, size: 0x8, addend: 0x0, symName: __ZNKSt3__16vectorI15JobHistoryEntryNS_9allocatorIS1_EEE20__throw_length_errorB7v160006Ev, symObjAddr: 0x16438, symBinAddr: 0x1000195A0, symSize: 0x1C }
  - { offsetInCU: 0x2FA5B, offset: 0x52F48, size: 0x8, addend: 0x0, symName: __ZNSt3__114__split_bufferI15JobHistoryEntryRNS_9allocatorIS1_EEEC1EmmS4_, symObjAddr: 0x16454, symBinAddr: 0x1000195BC, symSize: 0x44 }
  - { offsetInCU: 0x2FAB1, offset: 0x52F9E, size: 0x8, addend: 0x0, symName: __ZNSt3__114__split_bufferI15JobHistoryEntryRNS_9allocatorIS1_EEED1Ev, symObjAddr: 0x165B0, symBinAddr: 0x100019718, symSize: 0x2C }
  - { offsetInCU: 0x2FAE8, offset: 0x52FD5, size: 0x8, addend: 0x0, symName: __ZNSt3__116allocator_traitsINS_9allocatorI15JobHistoryEntryEEE8max_sizeB7v160006IS3_vEEmRKS3_, symObjAddr: 0x165DC, symBinAddr: 0x100019744, symSize: 0x24 }
  - { offsetInCU: 0x2FB16, offset: 0x53003, size: 0x8, addend: 0x0, symName: __ZNKSt3__16vectorI15JobHistoryEntryNS_9allocatorIS1_EEE7__allocB7v160006Ev, symObjAddr: 0x16600, symBinAddr: 0x100019768, symSize: 0x28 }
  - { offsetInCU: 0x2FB3C, offset: 0x53029, size: 0x8, addend: 0x0, symName: __ZNKSt3__19allocatorI15JobHistoryEntryE8max_sizeB7v160006Ev, symObjAddr: 0x16628, symBinAddr: 0x100019790, symSize: 0x14 }
  - { offsetInCU: 0x2FB62, offset: 0x5304F, size: 0x8, addend: 0x0, symName: __ZNKSt3__117__compressed_pairIP15JobHistoryEntryNS_9allocatorIS1_EEE6secondB7v160006Ev, symObjAddr: 0x1663C, symBinAddr: 0x1000197A4, symSize: 0x24 }
  - { offsetInCU: 0x2FB88, offset: 0x53075, size: 0x8, addend: 0x0, symName: __ZNKSt3__122__compressed_pair_elemINS_9allocatorI15JobHistoryEntryEELi1ELb1EE5__getB7v160006Ev, symObjAddr: 0x16660, symBinAddr: 0x1000197C8, symSize: 0x14 }
  - { offsetInCU: 0x2FBAE, offset: 0x5309B, size: 0x8, addend: 0x0, symName: __ZNSt3__114__split_bufferI15JobHistoryEntryRNS_9allocatorIS1_EEEC2EmmS4_, symObjAddr: 0x16674, symBinAddr: 0x1000197DC, symSize: 0xD4 }
  - { offsetInCU: 0x2FC22, offset: 0x5310F, size: 0x8, addend: 0x0, symName: __ZNSt3__117__compressed_pairIP15JobHistoryEntryRNS_9allocatorIS1_EEEC1B7v160006IDnS5_EEOT_OT0_, symObjAddr: 0x16748, symBinAddr: 0x1000198B0, symSize: 0x3C }
  - { offsetInCU: 0x2FC7A, offset: 0x53167, size: 0x8, addend: 0x0, symName: __ZNSt3__114__split_bufferI15JobHistoryEntryRNS_9allocatorIS1_EEE7__allocB7v160006Ev, symObjAddr: 0x167C4, symBinAddr: 0x10001992C, symSize: 0x28 }
  - { offsetInCU: 0x2FCA0, offset: 0x5318D, size: 0x8, addend: 0x0, symName: __ZNSt3__114__split_bufferI15JobHistoryEntryRNS_9allocatorIS1_EEE9__end_capB7v160006Ev, symObjAddr: 0x167EC, symBinAddr: 0x100019954, symSize: 0x28 }
  - { offsetInCU: 0x2FCC6, offset: 0x531B3, size: 0x8, addend: 0x0, symName: __ZNSt3__117__compressed_pairIP15JobHistoryEntryRNS_9allocatorIS1_EEEC2B7v160006IDnS5_EEOT_OT0_, symObjAddr: 0x16814, symBinAddr: 0x10001997C, symSize: 0x48 }
  - { offsetInCU: 0x2FD1E, offset: 0x5320B, size: 0x8, addend: 0x0, symName: __ZNSt3__122__compressed_pair_elemIRNS_9allocatorI15JobHistoryEntryEELi1ELb0EEC2B7v160006IS4_vEEOT_, symObjAddr: 0x1685C, symBinAddr: 0x1000199C4, symSize: 0x20 }
  - { offsetInCU: 0x2FD60, offset: 0x5324D, size: 0x8, addend: 0x0, symName: __ZNSt3__19allocatorI15JobHistoryEntryE8allocateB7v160006Em, symObjAddr: 0x1687C, symBinAddr: 0x1000199E4, symSize: 0x58 }
  - { offsetInCU: 0x2FD94, offset: 0x53281, size: 0x8, addend: 0x0, symName: __ZNSt3__117__compressed_pairIP15JobHistoryEntryRNS_9allocatorIS1_EEE6secondB7v160006Ev, symObjAddr: 0x168D4, symBinAddr: 0x100019A3C, symSize: 0x28 }
  - { offsetInCU: 0x2FDBA, offset: 0x532A7, size: 0x8, addend: 0x0, symName: __ZNSt3__122__compressed_pair_elemIRNS_9allocatorI15JobHistoryEntryEELi1ELb0EE5__getB7v160006Ev, symObjAddr: 0x168FC, symBinAddr: 0x100019A64, symSize: 0x18 }
  - { offsetInCU: 0x2FDE0, offset: 0x532CD, size: 0x8, addend: 0x0, symName: __ZNSt3__117__compressed_pairIP15JobHistoryEntryRNS_9allocatorIS1_EEE5firstB7v160006Ev, symObjAddr: 0x16914, symBinAddr: 0x100019A7C, symSize: 0x24 }
  - { offsetInCU: 0x2FE06, offset: 0x532F3, size: 0x8, addend: 0x0, symName: __ZNSt3__122__compressed_pair_elemIP15JobHistoryEntryLi0ELb0EE5__getB7v160006Ev, symObjAddr: 0x16938, symBinAddr: 0x100019AA0, symSize: 0x14 }
  - { offsetInCU: 0x2FE2C, offset: 0x53319, size: 0x8, addend: 0x0, symName: __ZNSt3__116reverse_iteratorIP15JobHistoryEntryEC1B7v160006ES2_, symObjAddr: 0x169C4, symBinAddr: 0x100019B2C, symSize: 0x34 }
  - { offsetInCU: 0x2FE64, offset: 0x53351, size: 0x8, addend: 0x0, symName: __ZNKSt3__116reverse_iteratorIP15JobHistoryEntryE4baseB7v160006Ev, symObjAddr: 0x169F8, symBinAddr: 0x100019B60, symSize: 0x18 }
  - { offsetInCU: 0x2FE8A, offset: 0x53377, size: 0x8, addend: 0x0, symName: __ZNSt3__16vectorI15JobHistoryEntryNS_9allocatorIS1_EEE9__end_capB7v160006Ev, symObjAddr: 0x16A4C, symBinAddr: 0x100019BB4, symSize: 0x28 }
  - { offsetInCU: 0x2FEB0, offset: 0x5339D, size: 0x8, addend: 0x0, symName: __ZNKSt3__16vectorI15JobHistoryEntryNS_9allocatorIS1_EEE14__annotate_newB7v160006Em, symObjAddr: 0x16A74, symBinAddr: 0x100019BDC, symSize: 0xAC }
  - { offsetInCU: 0x2FF02, offset: 0x533EF, size: 0x8, addend: 0x0, symName: __ZNKSt3__111__move_loopINS_17_ClassicAlgPolicyEEclB7v160006INS_16reverse_iteratorIP15JobHistoryEntryEES7_S7_EENS_4pairIT_T1_EES9_T0_SA_, symObjAddr: 0x16E20, symBinAddr: 0x100019F88, symSize: 0xA0 }
  - { offsetInCU: 0x2FF6D, offset: 0x5345A, size: 0x8, addend: 0x0, symName: __ZNSt3__18_IterOpsINS_17_ClassicAlgPolicyEE11__iter_moveB7v160006IRNS_16reverse_iteratorIP15JobHistoryEntryEEEENS_9enable_ifIXsr12is_referenceIDTdeclsr3stdE7declvalIRT_EEEEE5valueEDTclsr3stdE4movedeclsr3stdE7declvalISB_EEEEE4typeEOSA_, symObjAddr: 0x17054, symBinAddr: 0x10001A1BC, symSize: 0x28 }
  - { offsetInCU: 0x2FF99, offset: 0x53486, size: 0x8, addend: 0x0, symName: __ZNKSt3__116reverse_iteratorIP15JobHistoryEntryEdeB7v160006Ev, symObjAddr: 0x1707C, symBinAddr: 0x10001A1E4, symSize: 0x28 }
  - { offsetInCU: 0x2FFCE, offset: 0x534BB, size: 0x8, addend: 0x0, symName: __ZNSt3__116reverse_iteratorIP15JobHistoryEntryEppB7v160006Ev, symObjAddr: 0x170A4, symBinAddr: 0x10001A20C, symSize: 0x20 }
  - { offsetInCU: 0x2FFF4, offset: 0x534E1, size: 0x8, addend: 0x0, symName: __ZNSt3__18_IterOpsINS_17_ClassicAlgPolicyEE25__validate_iter_referenceB7v160006IRNS_16reverse_iteratorIP15JobHistoryEntryEEEEvv, symObjAddr: 0x170C4, symBinAddr: 0x10001A22C, symSize: 0x4 }
  - { offsetInCU: 0x30012, offset: 0x534FF, size: 0x8, addend: 0x0, symName: __ZNSt3__118__unwrap_iter_implINS_16reverse_iteratorIP15JobHistoryEntryEELb0EE8__unwrapB7v160006ES4_, symObjAddr: 0x170C8, symBinAddr: 0x10001A230, symSize: 0x24 }
  - { offsetInCU: 0x3003B, offset: 0x53528, size: 0x8, addend: 0x0, symName: __ZNSt3__14pairINS_16reverse_iteratorIP15JobHistoryEntryEES4_EC1B7v160006IS4_S4_LPv0EEEOT_OT0_, symObjAddr: 0x170EC, symBinAddr: 0x10001A254, symSize: 0x3C }
  - { offsetInCU: 0x30099, offset: 0x53586, size: 0x8, addend: 0x0, symName: __ZNSt3__14pairINS_16reverse_iteratorIP15JobHistoryEntryEES4_EC2B7v160006IS4_S4_LPv0EEEOT_OT0_, symObjAddr: 0x17128, symBinAddr: 0x10001A290, symSize: 0x34 }
  - { offsetInCU: 0x300F7, offset: 0x535E4, size: 0x8, addend: 0x0, symName: __ZNSt3__118__unwrap_iter_implINS_16reverse_iteratorIP15JobHistoryEntryEELb0EE8__rewrapB7v160006ES4_S4_, symObjAddr: 0x1715C, symBinAddr: 0x10001A2C4, symSize: 0x2C }
  - { offsetInCU: 0x30125, offset: 0x53612, size: 0x8, addend: 0x0, symName: __ZNSt3__116reverse_iteratorIP15JobHistoryEntryEC2B7v160006ES2_, symObjAddr: 0x17188, symBinAddr: 0x10001A2F0, symSize: 0x28 }
  - { offsetInCU: 0x3015D, offset: 0x5364A, size: 0x8, addend: 0x0, symName: __ZNSt3__117__compressed_pairIP15JobHistoryEntryNS_9allocatorIS1_EEE5firstB7v160006Ev, symObjAddr: 0x171B0, symBinAddr: 0x10001A318, symSize: 0x24 }
  - { offsetInCU: 0x30183, offset: 0x53670, size: 0x8, addend: 0x0, symName: __ZNSt3__114__split_bufferI15JobHistoryEntryRNS_9allocatorIS1_EEED2Ev, symObjAddr: 0x171D4, symBinAddr: 0x10001A33C, symSize: 0x8C }
  - { offsetInCU: 0x301AF, offset: 0x5369C, size: 0x8, addend: 0x0, symName: __ZNSt3__114__split_bufferI15JobHistoryEntryRNS_9allocatorIS1_EEE5clearB7v160006Ev, symObjAddr: 0x17260, symBinAddr: 0x10001A3C8, symSize: 0x28 }
  - { offsetInCU: 0x301D5, offset: 0x536C2, size: 0x8, addend: 0x0, symName: __ZNKSt3__114__split_bufferI15JobHistoryEntryRNS_9allocatorIS1_EEE8capacityB7v160006Ev, symObjAddr: 0x17288, symBinAddr: 0x10001A3F0, symSize: 0x40 }
  - { offsetInCU: 0x301FB, offset: 0x536E8, size: 0x8, addend: 0x0, symName: __ZNSt3__114__split_bufferI15JobHistoryEntryRNS_9allocatorIS1_EEE17__destruct_at_endB7v160006EPS1_, symObjAddr: 0x172C8, symBinAddr: 0x10001A430, symSize: 0x2C }
  - { offsetInCU: 0x3022F, offset: 0x5371C, size: 0x8, addend: 0x0, symName: __ZNSt3__114__split_bufferI15JobHistoryEntryRNS_9allocatorIS1_EEE17__destruct_at_endB7v160006EPS1_NS_17integral_constantIbLb0EEE, symObjAddr: 0x172F4, symBinAddr: 0x10001A45C, symSize: 0x80 }
  - { offsetInCU: 0x30270, offset: 0x5375D, size: 0x8, addend: 0x0, symName: __ZNKSt3__114__split_bufferI15JobHistoryEntryRNS_9allocatorIS1_EEE9__end_capB7v160006Ev, symObjAddr: 0x17374, symBinAddr: 0x10001A4DC, symSize: 0x28 }
  - { offsetInCU: 0x30296, offset: 0x53783, size: 0x8, addend: 0x0, symName: __ZNKSt3__117__compressed_pairIP15JobHistoryEntryRNS_9allocatorIS1_EEE5firstB7v160006Ev, symObjAddr: 0x1739C, symBinAddr: 0x10001A504, symSize: 0x24 }
  - { offsetInCU: 0x302BC, offset: 0x537A9, size: 0x8, addend: 0x0, symName: __ZNSt3__16vectorIP15JobWorkerThreadNS_9allocatorIS2_EEE17__destruct_at_endB7v160006EPS2_, symObjAddr: 0x173C0, symBinAddr: 0x10001A528, symSize: 0x60 }
  - { offsetInCU: 0x30300, offset: 0x537ED, size: 0x8, addend: 0x0, symName: __ZNSt3__16vectorIP15JobWorkerThreadNS_9allocatorIS2_EEE27__invalidate_iterators_pastB7v160006EPS2_, symObjAddr: 0x17420, symBinAddr: 0x10001A588, symSize: 0x14 }
  - { offsetInCU: 0x30337, offset: 0x53824, size: 0x8, addend: 0x0, symName: __ZNKSt3__16vectorIP15JobWorkerThreadNS_9allocatorIS2_EEE17__annotate_shrinkB7v160006Em, symObjAddr: 0x17434, symBinAddr: 0x10001A59C, symSize: 0xB4 }
  - { offsetInCU: 0x3036C, offset: 0x53859, size: 0x8, addend: 0x0, symName: __ZNSt3__16vectorIP15JobWorkerThreadNS_9allocatorIS2_EEE9__end_capB7v160006Ev, symObjAddr: 0x174E8, symBinAddr: 0x10001A650, symSize: 0x28 }
  - { offsetInCU: 0x30392, offset: 0x5387F, size: 0x8, addend: 0x0, symName: __ZNSt3__16vectorIP15JobWorkerThreadNS_9allocatorIS2_EEE22__construct_one_at_endB7v160006IJRKS2_EEEvDpOT_, symObjAddr: 0x17510, symBinAddr: 0x10001A678, symSize: 0x90 }
  - { offsetInCU: 0x303E1, offset: 0x538CE, size: 0x8, addend: 0x0, symName: __ZNSt3__16vectorIP15JobWorkerThreadNS_9allocatorIS2_EEE21__push_back_slow_pathIRKS2_EEvOT_, symObjAddr: 0x175A0, symBinAddr: 0x10001A708, symSize: 0xD8 }
  - { offsetInCU: 0x3043F, offset: 0x5392C, size: 0x8, addend: 0x0, symName: __ZNSt3__117__compressed_pairIPP15JobWorkerThreadNS_9allocatorIS2_EEE5firstB7v160006Ev, symObjAddr: 0x17678, symBinAddr: 0x10001A7E0, symSize: 0x24 }
  - { offsetInCU: 0x30465, offset: 0x53952, size: 0x8, addend: 0x0, symName: __ZNSt3__122__compressed_pair_elemIPP15JobWorkerThreadLi0ELb0EE5__getB7v160006Ev, symObjAddr: 0x1769C, symBinAddr: 0x10001A804, symSize: 0x14 }
  - { offsetInCU: 0x304A7, offset: 0x53994, size: 0x8, addend: 0x0, symName: __ZNSt3__16vectorIP15JobWorkerThreadNS_9allocatorIS2_EEE21_ConstructTransactionC1B7v160006ERS5_m, symObjAddr: 0x176B0, symBinAddr: 0x10001A818, symSize: 0x3C }
  - { offsetInCU: 0x304EF, offset: 0x539DC, size: 0x8, addend: 0x0, symName: __ZNSt3__116allocator_traitsINS_9allocatorIP15JobWorkerThreadEEE9constructB7v160006IS3_JRKS3_EvEEvRS4_PT_DpOT0_, symObjAddr: 0x176EC, symBinAddr: 0x10001A854, symSize: 0x34 }
  - { offsetInCU: 0x30546, offset: 0x53A33, size: 0x8, addend: 0x0, symName: __ZNSt3__16vectorIP15JobWorkerThreadNS_9allocatorIS2_EEE21_ConstructTransactionD1B7v160006Ev, symObjAddr: 0x17720, symBinAddr: 0x10001A888, symSize: 0x2C }
  - { offsetInCU: 0x30570, offset: 0x53A5D, size: 0x8, addend: 0x0, symName: __ZNSt3__16vectorIP15JobWorkerThreadNS_9allocatorIS2_EEE21_ConstructTransactionC2B7v160006ERS5_m, symObjAddr: 0x1774C, symBinAddr: 0x10001A8B4, symSize: 0x44 }
  - { offsetInCU: 0x305B8, offset: 0x53AA5, size: 0x8, addend: 0x0, symName: __ZNSt3__19allocatorIP15JobWorkerThreadE9constructB7v160006IS2_JRKS2_EEEvPT_DpOT0_, symObjAddr: 0x17790, symBinAddr: 0x10001A8F8, symSize: 0x28 }
  - { offsetInCU: 0x3060E, offset: 0x53AFB, size: 0x8, addend: 0x0, symName: __ZNSt3__16vectorIP15JobWorkerThreadNS_9allocatorIS2_EEE21_ConstructTransactionD2B7v160006Ev, symObjAddr: 0x177B8, symBinAddr: 0x10001A920, symSize: 0x20 }
  - { offsetInCU: 0x30638, offset: 0x53B25, size: 0x8, addend: 0x0, symName: __ZNKSt3__16vectorIP15JobWorkerThreadNS_9allocatorIS2_EEE11__recommendB7v160006Em, symObjAddr: 0x177D8, symBinAddr: 0x10001A940, symSize: 0xB4 }
  - { offsetInCU: 0x3068D, offset: 0x53B7A, size: 0x8, addend: 0x0, symName: __ZNSt3__114__split_bufferIP15JobWorkerThreadRNS_9allocatorIS2_EEEC1EmmS5_, symObjAddr: 0x1788C, symBinAddr: 0x10001A9F4, symSize: 0x44 }
  - { offsetInCU: 0x306E3, offset: 0x53BD0, size: 0x8, addend: 0x0, symName: __ZNSt3__114__split_bufferIP15JobWorkerThreadRNS_9allocatorIS2_EEED1Ev, symObjAddr: 0x179E8, symBinAddr: 0x10001AB50, symSize: 0x2C }
  - { offsetInCU: 0x3070F, offset: 0x53BFC, size: 0x8, addend: 0x0, symName: __ZNKSt3__16vectorIP15JobWorkerThreadNS_9allocatorIS2_EEE8max_sizeEv, symObjAddr: 0x17A14, symBinAddr: 0x10001AB7C, symSize: 0x60 }
  - { offsetInCU: 0x30737, offset: 0x53C24, size: 0x8, addend: 0x0, symName: __ZNKSt3__16vectorIP15JobWorkerThreadNS_9allocatorIS2_EEE20__throw_length_errorB7v160006Ev, symObjAddr: 0x17A74, symBinAddr: 0x10001ABDC, symSize: 0x1C }
  - { offsetInCU: 0x30768, offset: 0x53C55, size: 0x8, addend: 0x0, symName: __ZNSt3__116allocator_traitsINS_9allocatorIP15JobWorkerThreadEEE8max_sizeB7v160006IS4_vEEmRKS4_, symObjAddr: 0x17A90, symBinAddr: 0x10001ABF8, symSize: 0x24 }
  - { offsetInCU: 0x30796, offset: 0x53C83, size: 0x8, addend: 0x0, symName: __ZNKSt3__16vectorIP15JobWorkerThreadNS_9allocatorIS2_EEE7__allocB7v160006Ev, symObjAddr: 0x17AB4, symBinAddr: 0x10001AC1C, symSize: 0x28 }
  - { offsetInCU: 0x307BC, offset: 0x53CA9, size: 0x8, addend: 0x0, symName: __ZNKSt3__19allocatorIP15JobWorkerThreadE8max_sizeB7v160006Ev, symObjAddr: 0x17ADC, symBinAddr: 0x10001AC44, symSize: 0x14 }
  - { offsetInCU: 0x307E2, offset: 0x53CCF, size: 0x8, addend: 0x0, symName: __ZNKSt3__117__compressed_pairIPP15JobWorkerThreadNS_9allocatorIS2_EEE6secondB7v160006Ev, symObjAddr: 0x17AF0, symBinAddr: 0x10001AC58, symSize: 0x24 }
  - { offsetInCU: 0x30808, offset: 0x53CF5, size: 0x8, addend: 0x0, symName: __ZNKSt3__122__compressed_pair_elemINS_9allocatorIP15JobWorkerThreadEELi1ELb1EE5__getB7v160006Ev, symObjAddr: 0x17B14, symBinAddr: 0x10001AC7C, symSize: 0x14 }
  - { offsetInCU: 0x3082E, offset: 0x53D1B, size: 0x8, addend: 0x0, symName: __ZNSt3__114__split_bufferIP15JobWorkerThreadRNS_9allocatorIS2_EEEC2EmmS5_, symObjAddr: 0x17B28, symBinAddr: 0x10001AC90, symSize: 0xD4 }
  - { offsetInCU: 0x308A2, offset: 0x53D8F, size: 0x8, addend: 0x0, symName: __ZNSt3__117__compressed_pairIPP15JobWorkerThreadRNS_9allocatorIS2_EEEC1B7v160006IDnS6_EEOT_OT0_, symObjAddr: 0x17BFC, symBinAddr: 0x10001AD64, symSize: 0x3C }
  - { offsetInCU: 0x308FA, offset: 0x53DE7, size: 0x8, addend: 0x0, symName: __ZNSt3__114__split_bufferIP15JobWorkerThreadRNS_9allocatorIS2_EEE7__allocB7v160006Ev, symObjAddr: 0x17C78, symBinAddr: 0x10001ADE0, symSize: 0x28 }
  - { offsetInCU: 0x30920, offset: 0x53E0D, size: 0x8, addend: 0x0, symName: __ZNSt3__114__split_bufferIP15JobWorkerThreadRNS_9allocatorIS2_EEE9__end_capB7v160006Ev, symObjAddr: 0x17CA0, symBinAddr: 0x10001AE08, symSize: 0x28 }
  - { offsetInCU: 0x30946, offset: 0x53E33, size: 0x8, addend: 0x0, symName: __ZNSt3__117__compressed_pairIPP15JobWorkerThreadRNS_9allocatorIS2_EEEC2B7v160006IDnS6_EEOT_OT0_, symObjAddr: 0x17CC8, symBinAddr: 0x10001AE30, symSize: 0x48 }
  - { offsetInCU: 0x3099E, offset: 0x53E8B, size: 0x8, addend: 0x0, symName: __ZNSt3__122__compressed_pair_elemIRNS_9allocatorIP15JobWorkerThreadEELi1ELb0EEC2B7v160006IS5_vEEOT_, symObjAddr: 0x17D10, symBinAddr: 0x10001AE78, symSize: 0x20 }
